
save.elf:     file format elf32-littlenios2
save.elf
architecture: nios2:r1, flags 0x00000112:
EXEC_P, HAS_SYMS, D_PAGED
start address 0x00000248

Program Header:
    LOAD off    0x00001000 vaddr 0x00000000 paddr 0x00000000 align 2**12
         filesz 0x00000020 memsz 0x00000020 flags r-x
    LOAD off    0x00001020 vaddr 0x00000020 paddr 0x00000020 align 2**12
         filesz 0x00010ddc memsz 0x00010ddc flags r-x
    LOAD off    0x00011dfc vaddr 0x00010dfc paddr 0x00012b1c align 2**12
         filesz 0x00001d20 memsz 0x00001d20 flags rw-
    LOAD off    0x0001483c vaddr 0x0001483c paddr 0x0001483c align 2**12
         filesz 0x00000000 memsz 0x00000160 flags rw-

Sections:
Idx Name          Size      VMA       LMA       File off  Algn
  0 .entry        00000020  00000000  00000000  00001000  2**5
                  CONTENTS, ALLOC, LOAD, READONLY, CODE
  1 .exceptions   00000228  00000020  00000020  00001020  2**2
                  CONTENTS, ALLOC, LOAD, READONLY, CODE
  2 .text         00010794  00000248  00000248  00001248  2**2
                  CONTENTS, ALLOC, LOAD, READONLY, CODE
  3 .rodata       00000420  000109dc  000109dc  000119dc  2**2
                  CONTENTS, ALLOC, LOAD, READONLY, DATA
  4 .rwdata       00001d20  00010dfc  00012b1c  00011dfc  2**2
                  CONTENTS, ALLOC, LOAD, DATA, SMALL_DATA
  5 .bss          00000160  0001483c  0001483c  0001483c  2**2
                  ALLOC, SMALL_DATA
  6 .SDRAM        00000000  0001499c  0001499c  00013b1c  2**0
                  CONTENTS
  7 .Onchip_SRAM  00000000  08000000  08000000  00013b1c  2**0
                  CONTENTS
  8 .VGA_Subsystem_Char_Buf_Subsystem_Onchip_SRAM 00000000  09000000  09000000  00013b1c  2**0
                  CONTENTS
  9 .ARM_A9_HPS_axi_sdram 00000000  40000000  40000000  00013b1c  2**0
                  CONTENTS
 10 .comment      00000023  00000000  00000000  00013b1c  2**0
                  CONTENTS, READONLY
 11 .debug_aranges 00000ed8  00000000  00000000  00013b40  2**3
                  CONTENTS, READONLY, DEBUGGING
 12 .debug_info   00024737  00000000  00000000  00014a18  2**0
                  CONTENTS, READONLY, DEBUGGING
 13 .debug_abbrev 0000922a  00000000  00000000  0003914f  2**0
                  CONTENTS, READONLY, DEBUGGING
 14 .debug_line   0000ba3a  00000000  00000000  00042379  2**0
                  CONTENTS, READONLY, DEBUGGING
 15 .debug_frame  0000242c  00000000  00000000  0004ddb4  2**2
                  CONTENTS, READONLY, DEBUGGING
 16 .debug_str    00003f19  00000000  00000000  000501e0  2**0
                  CONTENTS, READONLY, DEBUGGING
 17 .debug_loc    00017868  00000000  00000000  000540f9  2**0
                  CONTENTS, READONLY, DEBUGGING
 18 .debug_alt_sim_info 00000020  00000000  00000000  0006b964  2**2
                  CONTENTS, READONLY, DEBUGGING
 19 .debug_ranges 000018c0  00000000  00000000  0006b988  2**3
                  CONTENTS, READONLY, DEBUGGING
 20 .thread_model 00000003  00000000  00000000  000709fa  2**0
                  CONTENTS, READONLY
 21 .cpu          00000005  00000000  00000000  000709fd  2**0
                  CONTENTS, READONLY
 22 .qsys         00000001  00000000  00000000  00070a02  2**0
                  CONTENTS, READONLY
 23 .simulation_enabled 00000001  00000000  00000000  00070a03  2**0
                  CONTENTS, READONLY
 24 .sysid_hash   00000004  00000000  00000000  00070a04  2**0
                  CONTENTS, READONLY
 25 .sysid_base   00000004  00000000  00000000  00070a08  2**0
                  CONTENTS, READONLY
 26 .sysid_time   00000004  00000000  00000000  00070a0c  2**0
                  CONTENTS, READONLY
 27 .stderr_dev   00000009  00000000  00000000  00070a10  2**0
                  CONTENTS, READONLY
 28 .stdin_dev    00000009  00000000  00000000  00070a19  2**0
                  CONTENTS, READONLY
 29 .stdout_dev   00000009  00000000  00000000  00070a22  2**0
                  CONTENTS, READONLY
 30 .sopc_system_name 0000000f  00000000  00000000  00070a2b  2**0
                  CONTENTS, READONLY
 31 .quartus_project_dir 0000005b  00000000  00000000  00070a3a  2**0
                  CONTENTS, READONLY
 32 .jdi          0000ebbf  00000000  00000000  00070a95  2**0
                  CONTENTS, READONLY
 33 .sopcinfo     00461a55  00000000  00000000  0007f654  2**0
                  CONTENTS, READONLY
SYMBOL TABLE:
00000000 l    d  .entry	00000000 .entry
00000020 l    d  .exceptions	00000000 .exceptions
00000248 l    d  .text	00000000 .text
000109dc l    d  .rodata	00000000 .rodata
00010dfc l    d  .rwdata	00000000 .rwdata
0001483c l    d  .bss	00000000 .bss
0001499c l    d  .SDRAM	00000000 .SDRAM
08000000 l    d  .Onchip_SRAM	00000000 .Onchip_SRAM
09000000 l    d  .VGA_Subsystem_Char_Buf_Subsystem_Onchip_SRAM	00000000 .VGA_Subsystem_Char_Buf_Subsystem_Onchip_SRAM
40000000 l    d  .ARM_A9_HPS_axi_sdram	00000000 .ARM_A9_HPS_axi_sdram
00000000 l    d  .comment	00000000 .comment
00000000 l    d  .debug_aranges	00000000 .debug_aranges
00000000 l    d  .debug_info	00000000 .debug_info
00000000 l    d  .debug_abbrev	00000000 .debug_abbrev
00000000 l    d  .debug_line	00000000 .debug_line
00000000 l    d  .debug_frame	00000000 .debug_frame
00000000 l    d  .debug_str	00000000 .debug_str
00000000 l    d  .debug_loc	00000000 .debug_loc
00000000 l    d  .debug_alt_sim_info	00000000 .debug_alt_sim_info
00000000 l    d  .debug_ranges	00000000 .debug_ranges
00000000 l    df *ABS*	00000000 ../save_bsp//obj/HAL/src/crt0.o
00000280 l       .text	00000000 alt_after_alt_main
00000000 l    df *ABS*	00000000 alt_irq_handler.c
00000000 l    df *ABS*	00000000 alt_instruction_exception_entry.c
00000000 l    df *ABS*	00000000 hello_world.c
00000000 l    df *ABS*	00000000 printf.c
00000000 l    df *ABS*	00000000 puts.c
00000000 l    df *ABS*	00000000 strlen.c
00000000 l    df *ABS*	00000000 vfprintf.c
00010a62 l     O .rodata	00000010 zeroes.4404
00002ce4 l     F .text	000000bc __sbprintf
00010a72 l     O .rodata	00000010 blanks.4403
00000000 l    df *ABS*	00000000 wsetup.c
00000000 l    df *ABS*	00000000 dtoa.c
00002ef4 l     F .text	00000200 quorem
00000000 l    df *ABS*	00000000 fflush.c
00000000 l    df *ABS*	00000000 findfp.c
00004a24 l     F .text	00000008 __fp_unlock
00004a38 l     F .text	0000019c __sinit.part.1
00004bd4 l     F .text	00000008 __fp_lock
00000000 l    df *ABS*	00000000 mallocr.c
00000000 l    df *ABS*	00000000 fvwrite.c
00000000 l    df *ABS*	00000000 fwalk.c
00000000 l    df *ABS*	00000000 impure.c
00010dfc l     O .rwdata	00000424 impure_data
00000000 l    df *ABS*	00000000 locale.c
00011240 l     O .rwdata	00000020 lc_ctype_charset
00011220 l     O .rwdata	00000020 lc_message_charset
00011260 l     O .rwdata	00000038 lconv
00000000 l    df *ABS*	00000000 makebuf.c
00000000 l    df *ABS*	00000000 mallocr.c
00000000 l    df *ABS*	00000000 memchr.c
00000000 l    df *ABS*	00000000 memcpy.c
00000000 l    df *ABS*	00000000 memmove.c
00000000 l    df *ABS*	00000000 memset.c
00000000 l    df *ABS*	00000000 mprec.c
00010aa4 l     O .rodata	0000000c p05.2768
00000000 l    df *ABS*	00000000 mallocr.c
00000000 l    df *ABS*	00000000 s_fpclassify.c
00000000 l    df *ABS*	00000000 sbrkr.c
00000000 l    df *ABS*	00000000 stdio.c
00000000 l    df *ABS*	00000000 strcmp.c
00000000 l    df *ABS*	00000000 vfprintf.c
00007fd0 l     F .text	000000fc __sprint_r.part.0
00010bd8 l     O .rodata	00000010 blanks.4348
00010bc8 l     O .rodata	00000010 zeroes.4349
0000955c l     F .text	000000bc __sbprintf
00000000 l    df *ABS*	00000000 writer.c
00000000 l    df *ABS*	00000000 closer.c
00000000 l    df *ABS*	00000000 mallocr.c
00000000 l    df *ABS*	00000000 fclose.c
00000000 l    df *ABS*	00000000 fputwc.c
00000000 l    df *ABS*	00000000 fstatr.c
00000000 l    df *ABS*	00000000 int_errno.c
00000000 l    df *ABS*	00000000 isattyr.c
00000000 l    df *ABS*	00000000 lseekr.c
00000000 l    df *ABS*	00000000 readr.c
00000000 l    df *ABS*	00000000 wbuf.c
00000000 l    df *ABS*	00000000 wcrtomb.c
00000000 l    df *ABS*	00000000 wctomb_r.c
00000000 l    df *ABS*	00000000 libgcc2.c
00000000 l    df *ABS*	00000000 libgcc2.c
00000000 l    df *ABS*	00000000 lib2-divmod.c
00000000 l    df *ABS*	00000000 adddf3.c
00000000 l    df *ABS*	00000000 divdf3.c
00000000 l    df *ABS*	00000000 eqdf2.c
00000000 l    df *ABS*	00000000 gedf2.c
00000000 l    df *ABS*	00000000 ledf2.c
00000000 l    df *ABS*	00000000 muldf3.c
00000000 l    df *ABS*	00000000 subdf3.c
00000000 l    df *ABS*	00000000 fixdfsi.c
00000000 l    df *ABS*	00000000 floatsidf.c
00000000 l    df *ABS*	00000000 floatunsidf.c
00000000 l    df *ABS*	00000000 libgcc2.c
00000000 l    df *ABS*	00000000 libgcc2.c
00000000 l    df *ABS*	00000000 alt_close.c
0000d218 l     F .text	0000003c alt_get_errno
00000000 l    df *ABS*	00000000 alt_dev.c
0000d324 l     F .text	0000002c alt_dev_null_write
00000000 l    df *ABS*	00000000 alt_errno.c
00000000 l    df *ABS*	00000000 alt_fstat.c
0000d350 l     F .text	0000003c alt_get_errno
00000000 l    df *ABS*	00000000 alt_isatty.c
0000d43c l     F .text	0000003c alt_get_errno
00000000 l    df *ABS*	00000000 alt_load.c
0000d51c l     F .text	00000068 alt_load_section
00000000 l    df *ABS*	00000000 alt_lseek.c
0000d608 l     F .text	0000003c alt_get_errno
00000000 l    df *ABS*	00000000 alt_main.c
00000000 l    df *ABS*	00000000 alt_malloc_lock.c
00000000 l    df *ABS*	00000000 alt_read.c
0000d7dc l     F .text	0000003c alt_get_errno
00000000 l    df *ABS*	00000000 alt_release_fd.c
00000000 l    df *ABS*	00000000 alt_sbrk.c
00012b0c l     O .rwdata	00000004 heap_end
00000000 l    df *ABS*	00000000 alt_write.c
0000da28 l     F .text	0000003c alt_get_errno
00000000 l    df *ABS*	00000000 alt_sys_init.c
0000db5c l     F .text	00000034 alt_dev_reg
00011848 l     O .rwdata	00001060 JTAG_UART
000128a8 l     O .rwdata	0000002c ADC
000128d4 l     O .rwdata	00000030 AV_Config
00012904 l     O .rwdata	00000030 Audio_Subsystem_Audio
00012934 l     O .rwdata	0000002c IrDA
00012960 l     O .rwdata	00000038 PS2_Port
00012998 l     O .rwdata	00000038 PS2_Port_Dual
000129d0 l     O .rwdata	0000005c VGA_Subsystem_Char_Buf_Subsystem_Char_Buf_DMA
00012a2c l     O .rwdata	0000005c Video_In_Subsystem_Video_In_DMA
00012a88 l     O .rwdata	00000054 VGA_Subsystem_VGA_Pixel_DMA
00000000 l    df *ABS*	00000000 altera_avalon_jtag_uart_fd.c
00000000 l    df *ABS*	00000000 altera_avalon_jtag_uart_init.c
0000e570 l     F .text	00000210 altera_avalon_jtag_uart_irq
0000e780 l     F .text	000000a0 altera_avalon_jtag_uart_timeout
00000000 l    df *ABS*	00000000 altera_avalon_jtag_uart_ioctl.c
00000000 l    df *ABS*	00000000 altera_avalon_jtag_uart_read.c
00000000 l    df *ABS*	00000000 altera_avalon_jtag_uart_write.c
00000000 l    df *ABS*	00000000 altera_avalon_timer_sc.c
0000edb8 l     F .text	0000007c alt_avalon_timer_sc_irq
00000000 l    df *ABS*	00000000 altera_up_avalon_irda.c
00000000 l    df *ABS*	00000000 altera_up_avalon_ps2.c
00000000 l    df *ABS*	00000000 alt_alarm_start.c
00000000 l    df *ABS*	00000000 alt_dcache_flush_all.c
00000000 l    df *ABS*	00000000 alt_dev_llist_insert.c
0000fa30 l     F .text	0000003c alt_get_errno
00000000 l    df *ABS*	00000000 alt_do_ctors.c
00000000 l    df *ABS*	00000000 alt_do_dtors.c
00000000 l    df *ABS*	00000000 alt_find_dev.c
00000000 l    df *ABS*	00000000 alt_icache_flush_all.c
00000000 l    df *ABS*	00000000 alt_io_redirect.c
0000fc94 l     F .text	000000c4 alt_open_fd
00000000 l    df *ABS*	00000000 alt_irq_register.c
00000000 l    df *ABS*	00000000 alt_irq_vars.c
00000000 l    df *ABS*	00000000 alt_open.c
0000ff54 l     F .text	0000003c alt_get_errno
0000ff90 l     F .text	000000c4 alt_file_locked
00000000 l    df *ABS*	00000000 alt_tick.c
00000000 l    df *ABS*	00000000 altera_nios2_gen2_irq.c
00000000 l    df *ABS*	00000000 alt_find_file.c
00000000 l    df *ABS*	00000000 alt_get_fd.c
00000000 l    df *ABS*	00000000 alt_icache_flush.c
00000000 l    df *ABS*	00000000 atexit.c
00000000 l    df *ABS*	00000000 exit.c
00000000 l    df *ABS*	00000000 memcmp.c
00000000 l    df *ABS*	00000000 __atexit.c
00000000 l    df *ABS*	00000000 __call_atexit.c
00000000 l    df *ABS*	00000000 alt_exit.c
00014870 g     O .bss	00000004 alt_instruction_exception_handler
00007614 g     F .text	00000074 _mprec_log10
00007700 g     F .text	0000008c __any_on
00009af8 g     F .text	00000054 _isatty_r
00010ab0 g     O .rodata	00000028 __mprec_tinytens
0000d718 g     F .text	0000007c alt_main
00000964 g     F .text	000000c0 _puts_r
0001489c g     O .bss	00000100 alt_irq
0000f480 g     F .text	00000060 alt_up_ps2_disable_read_interrupt
00009b4c g     F .text	00000060 _lseek_r
00012b1c g       *ABS*	00000000 __flash_rwdata_start
0000bd44 g     F .text	00000088 .hidden __eqdf2
0001499c g       *ABS*	00000000 __alt_heap_start
00000928 g     F .text	0000003c printf
00009d64 g     F .text	0000009c _wcrtomb_r
00007e90 g     F .text	0000005c __sseek
00004d74 g     F .text	00000010 __sinit
00009c0c g     F .text	00000140 __swbuf_r
0000f298 g     F .text	00000034 read_CE_bit
0000583c g     F .text	0000007c _setlocale_r
00004bdc g     F .text	00000068 __sfmoreglue
0000d7b8 g     F .text	00000024 __malloc_unlock
0000f620 g     F .text	0000009c alt_up_ps2_read_data_byte_timeout
0000650c g     F .text	0000015c memmove
00004d5c g     F .text	00000018 _cleanup
00006790 g     F .text	000000a8 _Balloc
0000bdcc g     F .text	000000dc .hidden __gtdf2
0001034c g     F .text	00000024 altera_nios2_gen2_irq_init
00000000 g     F .entry	0000001c __reset
00000020 g       *ABS*	00000000 __flash_exceptions_start
00009a9c g     F .text	0000005c _fstat_r
00014854 g     O .bss	00000004 errno
00007e0c g     F .text	00000008 __seofread
0001485c g     O .bss	00000004 alt_argv
0001aadc g       *ABS*	00000000 _gp
000116c8 g     O .rwdata	00000180 alt_fd_list
0000fbd0 g     F .text	00000090 alt_find_dev
000063c4 g     F .text	00000148 memcpy
00004a2c g     F .text	0000000c _cleanup_r
0000d030 g     F .text	000000dc .hidden __floatsidf
0000fd58 g     F .text	0000007c alt_io_redirect
0000bea8 g     F .text	000000f4 .hidden __ltdf2
000109dc g       *ABS*	00000000 __DTOR_END__
0000f168 g     F .text	00000090 alt_up_irda_write_fd
00000a24 g     F .text	00000014 puts
000105ac g     F .text	0000009c alt_exception_cause_generated_bad_addr
00007cf0 g     F .text	00000074 __fpclassifyd
00007570 g     F .text	000000a4 __ratio
00009540 g     F .text	0000001c __vfiprintf_internal
0000ef64 g     F .text	00000040 alt_up_irda_get_used_space_in_read_FIFO
0000e978 g     F .text	0000021c altera_avalon_jtag_uart_read
000008f8 g     F .text	00000030 _printf_r
0000aaf4 g     F .text	00000064 .hidden __udivsi3
0000d478 g     F .text	000000a4 isatty
00010b00 g     O .rodata	000000c8 __mprec_tens
000058b8 g     F .text	0000000c __locale_charset
0000ef04 g     F .text	00000060 alt_up_irda_disable_read_interrupt
0001051c g     F .text	00000090 alt_icache_flush
00014850 g     O .bss	00000004 __malloc_top_pad
00012ae4 g     O .rwdata	00000004 __mb_cur_max
000058e8 g     F .text	0000000c _localeconv_r
00006b9c g     F .text	0000003c __i2b
000051f8 g     F .text	000004bc __sfvwrite_r
00007d64 g     F .text	00000054 _sbrk_r
00009bac g     F .text	00000060 _read_r
00012b04 g     O .rwdata	00000004 alt_max_fd
00009790 g     F .text	000000f0 _fclose_r
0000f2cc g     F .text	00000030 read_num_bytes_available
000049f4 g     F .text	00000030 fflush
0001484c g     O .bss	00000004 __malloc_max_sbrked_mem
0000fdd4 g     F .text	00000180 alt_irq_register
0000f234 g     F .text	00000034 read_RI_bit
0000abb0 g     F .text	000008ac .hidden __adddf3
00007318 g     F .text	0000010c __b2d
0000a4c4 g     F .text	00000538 .hidden __umoddi3
0000d644 g     F .text	000000d4 lseek
00012adc g     O .rwdata	00000004 _global_impure_ptr
0000778c g     F .text	00000564 _realloc_r
0001499c g       *ABS*	00000000 __bss_end
00010244 g     F .text	00000108 alt_tick
00009f4c g     F .text	00000578 .hidden __udivdi3
000099f8 g     F .text	00000024 _fputwc_r
00010ad8 g     O .rodata	00000028 __mprec_bigtens
00006980 g     F .text	00000104 __s2b
0000d10c g     F .text	000000a8 .hidden __floatunsidf
00007058 g     F .text	00000060 __mcmp
0000f330 g     F .text	0000002c read_data_byte
00004d94 g     F .text	00000018 __fp_lock_all
00000284 g     F .text	000000b4 check_KEYs
000101a8 g     F .text	0000009c alt_alarm_stop
0000f268 g     F .text	00000030 read_RE_bit
00014864 g     O .bss	00000004 alt_irq_active
0000efa4 g     F .text	0000003c alt_up_irda_get_available_space_in_write_FIFO
000000fc g     F .exceptions	000000d8 alt_irq_handler
000116a0 g     O .rwdata	00000028 alt_dev_null
0000f4e0 g     F .text	00000074 alt_up_ps2_write_data_byte
0000fa10 g     F .text	00000020 alt_dcache_flush_all
00006a84 g     F .text	00000068 __hi0bits
0000cfb0 g     F .text	00000080 .hidden __fixdfsi
00012b1c g       *ABS*	00000000 __ram_rwdata_end
00012afc g     O .rwdata	00000008 alt_dev_list
0000da64 g     F .text	000000f8 write
00010dfc g       *ABS*	00000000 __ram_rodata_end
0000d38c g     F .text	000000b0 fstat
00000000 g       *ABS*	00000000 __alt_mem_SDRAM
0000bea8 g     F .text	000000f4 .hidden __ledf2
00006dd0 g     F .text	00000140 __pow5mult
000080e4 g     F .text	0000145c ___vfiprintf_internal_r
00014844 g     O .bss	00000004 __nlocale_changed
40000000 g       *ABS*	00000000 __alt_mem_ARM_A9_HPS_axi_sdram
0000ab58 g     F .text	00000058 .hidden __umodsi3
0001499c g       *ABS*	00000000 end
0000f810 g     F .text	00000098 alt_up_ps2_write_fd
0000efe0 g     F .text	00000044 alt_up_irda_check_parity
0000e4bc g     F .text	000000b4 altera_avalon_jtag_uart_init
000001d4 g     F .exceptions	00000074 alt_instruction_exception_entry
000109dc g       *ABS*	00000000 __CTOR_LIST__
02000000 g       *ABS*	00000000 __alt_stack_pointer
0000ee34 g     F .text	00000074 alt_avalon_timer_sc_init
0000d1b4 g     F .text	00000064 .hidden __clzsi2
0000eb94 g     F .text	00000224 altera_avalon_jtag_uart_write
00004d84 g     F .text	00000004 __sfp_lock_acquire
000062e0 g     F .text	000000e4 memchr
00000ad0 g     F .text	000021f8 ___vfprintf_internal_r
00004ee8 g     F .text	00000310 _free_r
000058c4 g     F .text	00000010 __locale_mb_cur_max
00010828 g     F .text	00000180 __call_exitprocs
00014840 g     O .bss	00000004 __mlocale_changed
00012ae8 g     O .rwdata	00000004 __malloc_sbrk_base
00000248 g     F .text	0000003c _start
00014868 g     O .bss	00000004 _alt_tick_rate
00006f10 g     F .text	00000148 __lshift
0001486c g     O .bss	00000004 _alt_nticks
0000d818 g     F .text	000000fc read
0000dbc8 g     F .text	00000790 alt_sys_init
00010710 g     F .text	00000118 __register_exitproc
0000f72c g     F .text	00000058 alt_up_ps2_clear_fifo
00006bd8 g     F .text	000001f8 __multiply
0000e820 g     F .text	00000068 altera_avalon_jtag_uart_close
00010dfc g       *ABS*	00000000 __ram_rwdata_start
000109dc g       *ABS*	00000000 __ram_rodata_start
00014874 g     O .bss	00000028 __malloc_current_mallinfo
00007424 g     F .text	0000014c __d2b
0000e358 g     F .text	00000060 altera_avalon_jtag_uart_read_fd
00010478 g     F .text	000000a4 alt_get_fd
00009678 g     F .text	00000054 _close_r
00010694 g     F .text	0000007c memcmp
0000e418 g     F .text	00000050 altera_avalon_jtag_uart_close_fd
0001499c g       *ABS*	00000000 __alt_stack_base
0000e468 g     F .text	00000054 altera_avalon_jtag_uart_ioctl_fd
0000eea8 g     F .text	0000005c alt_up_irda_enable_read_interrupt
00002da0 g     F .text	00000154 __swsetup_r
0000b45c g     F .text	000008e8 .hidden __divdf3
00004c44 g     F .text	00000118 __sfp
00007688 g     F .text	00000078 __copybits
00011298 g     O .rwdata	00000408 __malloc_av_
00004d90 g     F .text	00000004 __sinit_lock_release
0000bf9c g     F .text	00000718 .hidden __muldf3
00007db8 g     F .text	00000054 __sread
00010370 g     F .text	00000108 alt_find_file
0000fa6c g     F .text	000000a4 alt_dev_llist_insert
0000d794 g     F .text	00000024 __malloc_lock
0000d978 g     F .text	000000b0 sbrk
00004998 g     F .text	0000005c _fflush_r
000096cc g     F .text	000000c4 _calloc_r
0001483c g       *ABS*	00000000 __bss_start
00006668 g     F .text	00000128 memset
00000338 g     F .text	000005c0 main
00014860 g     O .bss	00000004 alt_envp
00014848 g     O .bss	00000004 __malloc_max_total_mem
0000e3b8 g     F .text	00000060 altera_avalon_jtag_uart_write_fd
00009d4c g     F .text	00000018 __swbuf
00007eec g     F .text	00000008 __sclose
02000000 g       *ABS*	00000000 __alt_heap_limit
00009880 g     F .text	00000014 fclose
0000f6bc g     F .text	00000070 alt_up_ps2_read_data_byte
000030f4 g     F .text	00001688 _dtoa_r
00005ad4 g     F .text	0000080c _malloc_r
00009ec0 g     F .text	00000030 __ascii_wctomb
00012b08 g     O .rwdata	00000004 alt_errno
000056b4 g     F .text	000000c4 _fwalk
0000f024 g     F .text	00000040 alt_up_irda_write_data
0000f8a8 g     F .text	0000003c alt_up_ps2_open_dev
0000a9fc g     F .text	00000084 .hidden __divsi3
00004dc4 g     F .text	00000124 _malloc_trim_r
0000f424 g     F .text	0000005c alt_up_ps2_enable_read_interrupt
000109dc g       *ABS*	00000000 __CTOR_END__
00007ef4 g     F .text	000000dc strcmp
000109dc g       *ABS*	00000000 __flash_rodata_start
000109dc g       *ABS*	00000000 __DTOR_LIST__
0000bd44 g     F .text	00000088 .hidden __nedf2
0000db90 g     F .text	00000038 alt_irq_init
0000d914 g     F .text	00000064 alt_release_fd
0000f2fc g     F .text	00000034 read_data_valid
00010be8 g     O .rodata	00000100 .hidden __clz_tab
0001483c g     O .bss	00000004 _PathLocale
0000f5bc g     F .text	00000064 alt_up_ps2_write_data_byte_with_ack
00010648 g     F .text	00000014 atexit
00009618 g     F .text	00000060 _write_r
000058f4 g     F .text	00000018 setlocale
00012ae0 g     O .rwdata	00000004 _impure_ptr
00014858 g     O .bss	00000004 alt_argc
0000477c g     F .text	0000021c __sflush_r
0000fb70 g     F .text	00000060 _do_dtors
000058e0 g     F .text	00000008 __locale_cjk_lang
09000000 g       *ABS*	00000000 __alt_mem_VGA_Subsystem_Char_Buf_Subsystem_Onchip_SRAM
00000020 g       .exceptions	00000000 alt_irq_entry
000072b4 g     F .text	00000064 __ulp
00004dac g     F .text	00000018 __fp_unlock_all
00012af4 g     O .rwdata	00000008 alt_fs_list
00000020 g       *ABS*	00000000 __ram_exceptions_start
0000590c g     F .text	0000000c localeconv
00012b1c g       *ABS*	00000000 _edata
0001499c g       *ABS*	00000000 _end
00009894 g     F .text	00000164 __fputwc
00000248 g       *ABS*	00000000 __ram_exceptions_end
0000e888 g     F .text	000000f0 altera_avalon_jtag_uart_ioctl
08000000 g       *ABS*	00000000 __alt_mem_Onchip_SRAM
00007e14 g     F .text	0000007c __swrite
00012aec g     O .rwdata	00000004 __malloc_trim_threshold
000058d4 g     F .text	0000000c __locale_msgcharset
0001065c g     F .text	00000038 exit
0000f064 g     F .text	00000074 alt_up_irda_read_data
00005778 g     F .text	000000c4 _fwalk_reent
0000f35c g     F .text	000000c8 alt_up_ps2_init
000070b8 g     F .text	000001fc __mdiff
0000aa80 g     F .text	00000074 .hidden __modsi3
02000000 g       *ABS*	00000000 __alt_data_end
00000020 g     F .exceptions	00000000 alt_exception
00004d88 g     F .text	00000004 __sfp_lock_release
0000f1f8 g     F .text	0000003c alt_up_irda_open_dev
000109a8 g     F .text	00000034 _exit
0000f8e4 g     F .text	0000012c alt_alarm_start
00005918 g     F .text	000001bc __smakebuf_r
0000f554 g     F .text	00000068 alt_up_ps2_wait_for_ack
00000a38 g     F .text	00000098 strlen
00010054 g     F .text	00000154 open
0000bdcc g     F .text	000000dc .hidden __gedf2
00012af0 g     O .rwdata	00000004 __wctomb
000080cc g     F .text	00000018 __sprint_r
0000fc60 g     F .text	00000034 alt_icache_flush_all
00012b10 g     O .rwdata	00000004 alt_priority_mask
00002cc8 g     F .text	0000001c __vfprintf_internal
00009ef0 g     F .text	0000005c _wctomb_r
0000f784 g     F .text	0000008c alt_up_ps2_read_fd
0000c6b4 g     F .text	000008fc .hidden __subdf3
0000f0d8 g     F .text	00000090 alt_up_irda_read_fd
00006aec g     F .text	000000b0 __lo0bits
00012b14 g     O .rwdata	00000008 alt_alarm_list
0000fb10 g     F .text	00000060 _do_ctors
00009e00 g     F .text	000000c0 wcrtomb
0000d254 g     F .text	000000d0 close
0000d584 g     F .text	00000084 alt_load
00009a1c g     F .text	00000080 fputwc
00004d8c g     F .text	00000004 __sinit_lock_acquire
00006860 g     F .text	00000120 __multadd
00006838 g     F .text	00000028 _Bfree



Disassembly of section .entry:

00000000 <__reset>:
#if NIOS2_ICACHE_SIZE > 0 && defined(ALT_ALLOW_CODE_AT_RESET) && (!defined(ALT_SIM_OPTIMIZE) || defined(NIOS2_ECC_PRESENT))
    /* Assume the instruction cache size is always a power of two. */
#if NIOS2_ICACHE_SIZE > 0x8000
    movhi r2, %hi(NIOS2_ICACHE_SIZE)
#else
    movui r2, NIOS2_ICACHE_SIZE
   0:	00840014 	movui	r2,4096
#endif

0:
    initi r2
   4:	1001483a 	initi	r2
    addi r2, r2, -NIOS2_ICACHE_LINE_SIZE
   8:	10bff804 	addi	r2,r2,-32
    bgt r2, zero, 0b
   c:	00bffd16 	blt	zero,r2,4 <__alt_mem_ARM_A9_HPS_axi_sdram+0xc0000004>
 * Jump to the _start entry point in the .text section if reset code
 * is allowed or if optimizing for RTL simulation.
 */
#if defined(ALT_ALLOW_CODE_AT_RESET) || defined(ALT_SIM_OPTIMIZE)
    /* Jump to the _start entry point in the .text section. */
    movhi r1, %hi(_start)
  10:	00400034 	movhi	at,0
    ori r1, r1, %lo(_start)
  14:	08409214 	ori	at,at,584
    jmp r1
  18:	0800683a 	jmp	at
  1c:	00000000 	call	0 <__reset>

Disassembly of section .exceptions:

00000020 <alt_exception>:

#else /* ALT_EXCEPTION_STACK disabled */
        /* 
         * Reserve space on normal stack for registers about to be pushed.
         */
        addi  sp, sp, -76
  20:	deffed04 	addi	sp,sp,-76
         * documentation for details).
         *
         * Leave a gap in the stack frame at 4(sp) for the muldiv handler to
         * store zero into.
         */
        stw   ra,  0(sp)
  24:	dfc00015 	stw	ra,0(sp)
        stw   r1,   8(sp)
  28:	d8400215 	stw	at,8(sp)
        stw   r2,  12(sp)
  2c:	d8800315 	stw	r2,12(sp)
        stw   r3,  16(sp)
  30:	d8c00415 	stw	r3,16(sp)
        stw   r4,  20(sp)
  34:	d9000515 	stw	r4,20(sp)
        stw   r5,  24(sp)
  38:	d9400615 	stw	r5,24(sp)
        stw   r6,  28(sp)
  3c:	d9800715 	stw	r6,28(sp)
        stw   r7,  32(sp)
  40:	d9c00815 	stw	r7,32(sp)
        rdctl r5, estatus   /* Read early to avoid usage stall */
  44:	000b307a 	rdctl	r5,estatus
        stw   r8,  36(sp)
  48:	da000915 	stw	r8,36(sp)
        stw   r9,  40(sp)
  4c:	da400a15 	stw	r9,40(sp)
        stw   r10, 44(sp)
  50:	da800b15 	stw	r10,44(sp)
        stw   r11, 48(sp)
  54:	dac00c15 	stw	r11,48(sp)
        stw   r12, 52(sp)
  58:	db000d15 	stw	r12,52(sp)
        stw   r13, 56(sp)
  5c:	db400e15 	stw	r13,56(sp)
        stw   r14, 60(sp)
  60:	db800f15 	stw	r14,60(sp)
        stw   r15, 64(sp)
  64:	dbc01015 	stw	r15,64(sp)
        /*
         * ea-4 contains the address of the instruction being executed
         * when the exception occured. For interrupt exceptions, we will
         * will be re-issue the isntruction. Store it in 72(sp)
         */
        stw   r5,  68(sp)  /* estatus */
  68:	d9401115 	stw	r5,68(sp)
        addi  r15, ea, -4  /* instruction that caused exception */
  6c:	ebffff04 	addi	r15,ea,-4
        stw   r15,  72(sp)
  70:	dbc01215 	stw	r15,72(sp)
#else
        /*
         * Test to see if the exception was a software exception or caused 
         * by an external interrupt, and vector accordingly.
         */
        rdctl r4, ipending
  74:	0009313a 	rdctl	r4,ipending
        andi  r2, r5, 1
  78:	2880004c 	andi	r2,r5,1
        beq   r2, zero, .Lnot_irq
  7c:	10000326 	beq	r2,zero,8c <alt_exception+0x6c>
        beq   r4, zero, .Lnot_irq
  80:	20000226 	beq	r4,zero,8c <alt_exception+0x6c>
        /*
         * Now that all necessary registers have been preserved, call 
         * alt_irq_handler() to process the interrupts.
         */

        call alt_irq_handler
  84:	00000fc0 	call	fc <alt_irq_handler>

        .section .exceptions.irqreturn, "xa"

        br    .Lexception_exit
  88:	00000706 	br	a8 <alt_exception+0x88>
         * upon completion, so we write ea (address of instruction *after*
         * the one where the exception occured) into 72(sp). The actual
         * instruction that caused the exception is written in r2, which these
         * handlers will utilize.
         */
        stw ea, 72(sp) /* EA is PC+4 so will skip over instruction causing exception */
  8c:	df401215 	stw	ea,72(sp)
.Lunknown_16bit:
        addi.n r4, r4, 2 /* Need PC+2 to skip over instruction causing exception */
        stw r4, 72(sp)

#else /* CDX is not Enabled and all instructions are 32bits */
        ldw r2, -4(ea) /* Instruction value that caused exception */
  90:	e8bfff17 	ldw	r2,-4(ea)
         * debugger is present) or go into an infinite loop since the
         * handling behavior is undefined; in that case we will not return here.
         */

        /* Load exception-causing address as first argument (r4) */
        addi   r4, ea, -4
  94:	e93fff04 	addi	r4,ea,-4

        /* Call the instruction-exception entry */
        call   alt_instruction_exception_entry
  98:	00001d40 	call	1d4 <alt_instruction_exception_entry>
         * instruction
         *
         * Return code was 0: Skip. The instruction after the exception is
         * already stored in 72(sp).
         */
        bne   r2, r0, .Lexception_exit
  9c:	1000021e 	bne	r2,zero,a8 <alt_exception+0x88>

        /*
         * Otherwise, modify 72(sp) to re-issue the instruction that caused the
         * exception.
         */
        addi  r15, ea, -4  /* instruction that caused exception */
  a0:	ebffff04 	addi	r15,ea,-4
        stw   r15,  72(sp)
  a4:	dbc01215 	stw	r15,72(sp)
        /* 
         * Restore the saved registers, so that all general purpose registers 
         * have been restored to their state at the time the interrupt occured.
         */

        ldw   r5,  68(sp)
  a8:	d9401117 	ldw	r5,68(sp)
        ldw   ea,  72(sp)  /* This becomes the PC once eret is executed */
  ac:	df401217 	ldw	ea,72(sp)
        ldw   ra,   0(sp)
  b0:	dfc00017 	ldw	ra,0(sp)

        wrctl estatus, r5
  b4:	2801707a 	wrctl	estatus,r5

        ldw   r1,   8(sp)
  b8:	d8400217 	ldw	at,8(sp)
        ldw   r2,  12(sp)
  bc:	d8800317 	ldw	r2,12(sp)
        ldw   r3,  16(sp)
  c0:	d8c00417 	ldw	r3,16(sp)
        ldw   r4,  20(sp)
  c4:	d9000517 	ldw	r4,20(sp)
        ldw   r5,  24(sp)
  c8:	d9400617 	ldw	r5,24(sp)
        ldw   r6,  28(sp)
  cc:	d9800717 	ldw	r6,28(sp)
        ldw   r7,  32(sp)
  d0:	d9c00817 	ldw	r7,32(sp)

#if defined(ALT_EXCEPTION_STACK) && defined(ALT_STACK_CHECK)
        ldw   et, %gprel(alt_exception_old_stack_limit)(gp)
#endif

        ldw   r8,  36(sp)
  d4:	da000917 	ldw	r8,36(sp)
        ldw   r9,  40(sp)
  d8:	da400a17 	ldw	r9,40(sp)
        ldw   r10, 44(sp)
  dc:	da800b17 	ldw	r10,44(sp)
        ldw   r11, 48(sp)
  e0:	dac00c17 	ldw	r11,48(sp)
        ldw   r12, 52(sp)
  e4:	db000d17 	ldw	r12,52(sp)
        ldw   r13, 56(sp)
  e8:	db400e17 	ldw	r13,56(sp)
        ldw   r14, 60(sp)
  ec:	db800f17 	ldw	r14,60(sp)
        ldw   r15, 64(sp)
  f0:	dbc01017 	ldw	r15,64(sp)
        stw   et, %gprel(alt_stack_limit_value)(gp)
        stw   zero, %gprel(alt_exception_old_stack_limit)(gp)
#endif /* ALT_STACK_CHECK */
        ldw   sp,  76(sp)
#else /* ALT_EXCEPTION_STACK disabled */
        addi  sp, sp, 76
  f4:	dec01304 	addi	sp,sp,76

        /*
         * Return to the interrupted instruction.
         */

        eret
  f8:	ef80083a 	eret

000000fc <alt_irq_handler>:
 * instruction is present if the macro ALT_CI_INTERRUPT_VECTOR defined.
 */

void alt_irq_handler (void) __attribute__ ((section (".exceptions")));
void alt_irq_handler (void)
{
  fc:	defff904 	addi	sp,sp,-28
 100:	dfc00615 	stw	ra,24(sp)
 104:	df000515 	stw	fp,20(sp)
 108:	df000504 	addi	fp,sp,20
  
  /*
   * Notify the operating system that we are at interrupt level.
   */ 
  
  ALT_OS_INT_ENTER();
 10c:	0001883a 	nop
#ifndef NIOS2_EIC_PRESENT
static ALT_INLINE alt_u32 ALT_ALWAYS_INLINE alt_irq_pending (void)
{
  alt_u32 active;

  NIOS2_READ_IPENDING (active);
 110:	0005313a 	rdctl	r2,ipending
 114:	e0bffe15 	stw	r2,-8(fp)

  return active;
 118:	e0bffe17 	ldw	r2,-8(fp)
   * Consider the case where the high priority interupt is asserted during
   * the interrupt entry sequence for a lower priority interrupt to see why
   * this is the case.
   */

  active = alt_irq_pending ();
 11c:	e0bffb15 	stw	r2,-20(fp)

  do
  {
    i = 0;
 120:	e03ffd15 	stw	zero,-12(fp)
    mask = 1;
 124:	00800044 	movi	r2,1
 128:	e0bffc15 	stw	r2,-16(fp)
     * called to clear the interrupt condition.
     */

    do
    {
      if (active & mask)
 12c:	e0fffb17 	ldw	r3,-20(fp)
 130:	e0bffc17 	ldw	r2,-16(fp)
 134:	1884703a 	and	r2,r3,r2
 138:	10001526 	beq	r2,zero,190 <alt_irq_handler+0x94>
      { 
#ifdef ALT_ENHANCED_INTERRUPT_API_PRESENT
        alt_irq[i].handler(alt_irq[i].context); 
#else
        alt_irq[i].handler(alt_irq[i].context, i); 
 13c:	00800074 	movhi	r2,1
 140:	10922704 	addi	r2,r2,18588
 144:	e0fffd17 	ldw	r3,-12(fp)
 148:	180690fa 	slli	r3,r3,3
 14c:	10c5883a 	add	r2,r2,r3
 150:	10c00017 	ldw	r3,0(r2)
 154:	00800074 	movhi	r2,1
 158:	10922704 	addi	r2,r2,18588
 15c:	e13ffd17 	ldw	r4,-12(fp)
 160:	200890fa 	slli	r4,r4,3
 164:	1105883a 	add	r2,r2,r4
 168:	10800104 	addi	r2,r2,4
 16c:	10800017 	ldw	r2,0(r2)
 170:	e17ffd17 	ldw	r5,-12(fp)
 174:	1009883a 	mov	r4,r2
 178:	183ee83a 	callr	r3
#endif
        break;
 17c:	0001883a 	nop
#ifndef NIOS2_EIC_PRESENT
static ALT_INLINE alt_u32 ALT_ALWAYS_INLINE alt_irq_pending (void)
{
  alt_u32 active;

  NIOS2_READ_IPENDING (active);
 180:	0005313a 	rdctl	r2,ipending
 184:	e0bfff15 	stw	r2,-4(fp)

  return active;
 188:	e0bfff17 	ldw	r2,-4(fp)
 18c:	00000706 	br	1ac <alt_irq_handler+0xb0>
      }
      mask <<= 1;
 190:	e0bffc17 	ldw	r2,-16(fp)
 194:	1085883a 	add	r2,r2,r2
 198:	e0bffc15 	stw	r2,-16(fp)
      i++;
 19c:	e0bffd17 	ldw	r2,-12(fp)
 1a0:	10800044 	addi	r2,r2,1
 1a4:	e0bffd15 	stw	r2,-12(fp)

    } while (1);
 1a8:	003fe006 	br	12c <__alt_mem_ARM_A9_HPS_axi_sdram+0xc000012c>

    active = alt_irq_pending ();
 1ac:	e0bffb15 	stw	r2,-20(fp)
    
  } while (active);
 1b0:	e0bffb17 	ldw	r2,-20(fp)
 1b4:	103fda1e 	bne	r2,zero,120 <__alt_mem_ARM_A9_HPS_axi_sdram+0xc0000120>

  /*
   * Notify the operating system that interrupt processing is complete.
   */ 

  ALT_OS_INT_EXIT();
 1b8:	0001883a 	nop
}
 1bc:	0001883a 	nop
 1c0:	e037883a 	mov	sp,fp
 1c4:	dfc00117 	ldw	ra,4(sp)
 1c8:	df000017 	ldw	fp,0(sp)
 1cc:	dec00204 	addi	sp,sp,8
 1d0:	f800283a 	ret

000001d4 <alt_instruction_exception_entry>:
 * that handler if it has been registered. Absent a handler, it will
 * break break or hang as discussed below.
 */
int 
alt_instruction_exception_entry (alt_u32 exception_pc)
{
 1d4:	defffb04 	addi	sp,sp,-20
 1d8:	dfc00415 	stw	ra,16(sp)
 1dc:	df000315 	stw	fp,12(sp)
 1e0:	df000304 	addi	fp,sp,12
 1e4:	e13fff15 	stw	r4,-4(fp)
 * NIOS2_EXCEPTION_CAUSE_NOT_PRESENT. Your handling routine should
 * check the validity of the cause argument before proceeding.
 */
#ifdef NIOS2_HAS_EXTRA_EXCEPTION_INFO
  /* Get exception cause & "badaddr" */
  NIOS2_READ_EXCEPTION(cause);
 1e8:	000531fa 	rdctl	r2,exception
 1ec:	e0bffd15 	stw	r2,-12(fp)
  cause = ( (cause & NIOS2_EXCEPTION_REG_CAUSE_MASK) >>
 1f0:	e0bffd17 	ldw	r2,-12(fp)
 1f4:	10801f0c 	andi	r2,r2,124
 1f8:	1004d0ba 	srli	r2,r2,2
 1fc:	e0bffd15 	stw	r2,-12(fp)
              NIOS2_EXCEPTION_REG_CAUSE_OFST );

  NIOS2_READ_BADADDR(badaddr);
 200:	0005333a 	rdctl	r2,badaddr
 204:	e0bffe15 	stw	r2,-8(fp)
#else
  cause = NIOS2_EXCEPTION_CAUSE_NOT_PRESENT;
  badaddr = 0;
#endif /* NIOS2_HAS_EXTRA_EXCEPTION_INFO */

  if(alt_instruction_exception_handler) {
 208:	d0a76517 	ldw	r2,-25196(gp)
 20c:	10000726 	beq	r2,zero,22c <alt_instruction_exception_entry+0x58>
     * Call handler. Its return value indicates whether the exception-causing
     * instruction should be re-issued. The code that called us,
     * alt_eceptions_entry.S, will look at this value and adjust the ea
     * register as necessary
     */
    return alt_instruction_exception_handler(cause, exception_pc, badaddr);
 210:	d0a76517 	ldw	r2,-25196(gp)
 214:	e0fffd17 	ldw	r3,-12(fp)
 218:	e1bffe17 	ldw	r6,-8(fp)
 21c:	e17fff17 	ldw	r5,-4(fp)
 220:	1809883a 	mov	r4,r3
 224:	103ee83a 	callr	r2
 228:	00000206 	br	234 <alt_instruction_exception_entry+0x60>
   *    (a peripheral which negates its interrupt output before its
   *    interrupt handler has been executed will cause spurious interrupts)
   */
  else {
#ifdef NIOS2_HAS_DEBUG_STUB
    NIOS2_BREAK();
 22c:	003da03a 	break	0
      ;
#endif /* NIOS2_HAS_DEBUG_STUB */
  }

  /* We should not get here. Remove compiler warning. */
  return NIOS2_EXCEPTION_RETURN_REISSUE_INST;
 230:	0005883a 	mov	r2,zero
}
 234:	e037883a 	mov	sp,fp
 238:	dfc00117 	ldw	ra,4(sp)
 23c:	df000017 	ldw	fp,0(sp)
 240:	dec00204 	addi	sp,sp,8
 244:	f800283a 	ret

Disassembly of section .text:

00000248 <_start>:

    /*
     * Now that the caches are initialized, set up the stack pointer and global pointer.
     * The values provided by the linker are assumed to be correctly aligned.
     */
    movhi sp, %hi(__alt_stack_pointer)
     248:	06c08034 	movhi	sp,512
    ori sp, sp, %lo(__alt_stack_pointer)
     24c:	dec00014 	ori	sp,sp,0
    movhi gp, %hi(_gp)
     250:	06800074 	movhi	gp,1
    ori gp, gp, %lo(_gp)
     254:	d6aab714 	ori	gp,gp,43740
 */
#ifndef ALT_SIM_OPTIMIZE
    /* Log that the BSS is about to be cleared. */
    ALT_LOG_PUTS(alt_log_msg_bss)

    movhi r2, %hi(__bss_start)
     258:	00800074 	movhi	r2,1
    ori r2, r2, %lo(__bss_start)
     25c:	10920f14 	ori	r2,r2,18492

    movhi r3, %hi(__bss_end)
     260:	00c00074 	movhi	r3,1
    ori r3, r3, %lo(__bss_end)
     264:	18d26714 	ori	r3,r3,18844

    beq r2, r3, 1f
     268:	10c00326 	beq	r2,r3,278 <_start+0x30>

0:
    stw zero, (r2)
     26c:	10000015 	stw	zero,0(r2)
    addi r2, r2, 4
     270:	10800104 	addi	r2,r2,4
    bltu r2, r3, 0b
     274:	10fffd36 	bltu	r2,r3,26c <__alt_mem_ARM_A9_HPS_axi_sdram+0xc000026c>
     * section aren't defined until alt_load() has been called).
     */
    mov   et, zero
#endif

    call alt_load
     278:	000d5840 	call	d584 <alt_load>

    /* Log that alt_main is about to be called. */
    ALT_LOG_PUTS(alt_log_msg_alt_main)

    /* Call the C entry point. It should never return. */
    call alt_main
     27c:	000d7180 	call	d718 <alt_main>

00000280 <alt_after_alt_main>:

    /* Wait in infinite loop in case alt_main does return. */
alt_after_alt_main:
    br alt_after_alt_main
     280:	003fff06 	br	280 <__alt_mem_ARM_A9_HPS_axi_sdram+0xc0000280>

00000284 <check_KEYs>:
#include "stdio.h"
#define BUF_SIZE 500000 // about 10 seconds of buffer (@ 48K samples/sec)
#define BUF_THRESHOLD 96 // 75% of 128 word buffer
#define BUF_THRESHOLD 96

int check_KEYs(int * record, int * play, volatile int * pKEY) {
     284:	defffb04 	addi	sp,sp,-20
     288:	df000415 	stw	fp,16(sp)
     28c:	df000404 	addi	fp,sp,16
     290:	e13ffd15 	stw	r4,-12(fp)
     294:	e17ffe15 	stw	r5,-8(fp)
     298:	e1bfff15 	stw	r6,-4(fp)
	int temp = 0;
     29c:	e03ffc15 	stw	zero,-16(fp)
	while (*pKEY != 0) {
     2a0:	00000606 	br	2bc <check_KEYs+0x38>
		temp = *pKEY;
     2a4:	e0bfff17 	ldw	r2,-4(fp)
     2a8:	10800017 	ldw	r2,0(r2)
     2ac:	e0bffc15 	stw	r2,-16(fp)
		if (*pKEY == 0)
     2b0:	e0bfff17 	ldw	r2,-4(fp)
     2b4:	10800017 	ldw	r2,0(r2)
     2b8:	10000426 	beq	r2,zero,2cc <check_KEYs+0x48>
#define BUF_THRESHOLD 96 // 75% of 128 word buffer
#define BUF_THRESHOLD 96

int check_KEYs(int * record, int * play, volatile int * pKEY) {
	int temp = 0;
	while (*pKEY != 0) {
     2bc:	e0bfff17 	ldw	r2,-4(fp)
     2c0:	10800017 	ldw	r2,0(r2)
     2c4:	103ff71e 	bne	r2,zero,2a4 <__alt_mem_ARM_A9_HPS_axi_sdram+0xc00002a4>
     2c8:	00000106 	br	2d0 <check_KEYs+0x4c>
		temp = *pKEY;
		if (*pKEY == 0)
			break;
     2cc:	0001883a 	nop
	}

	if (temp != 0) {
     2d0:	e0bffc17 	ldw	r2,-16(fp)
     2d4:	10001326 	beq	r2,zero,324 <check_KEYs+0xa0>
		if (temp == 2) {
     2d8:	e0bffc17 	ldw	r2,-16(fp)
     2dc:	10800098 	cmpnei	r2,r2,2
     2e0:	1000061e 	bne	r2,zero,2fc <check_KEYs+0x78>
			*record = 1;
     2e4:	e0bffd17 	ldw	r2,-12(fp)
     2e8:	00c00044 	movi	r3,1
     2ec:	10c00015 	stw	r3,0(r2)
			*play = 0;
     2f0:	e0bffe17 	ldw	r2,-8(fp)
     2f4:	10000015 	stw	zero,0(r2)
     2f8:	00000806 	br	31c <check_KEYs+0x98>
		} else if (temp == 4) {
     2fc:	e0bffc17 	ldw	r2,-16(fp)
     300:	10800118 	cmpnei	r2,r2,4
     304:	1000051e 	bne	r2,zero,31c <check_KEYs+0x98>
			*record = 0;
     308:	e0bffd17 	ldw	r2,-12(fp)
     30c:	10000015 	stw	zero,0(r2)
			*play = 1;
     310:	e0bffe17 	ldw	r2,-8(fp)
     314:	00c00044 	movi	r3,1
     318:	10c00015 	stw	r3,0(r2)
		}
		return temp;
     31c:	e0bffc17 	ldw	r2,-16(fp)
     320:	00000106 	br	328 <check_KEYs+0xa4>
	} else
		return 0;
     324:	0005883a 	mov	r2,zero
}
     328:	e037883a 	mov	sp,fp
     32c:	df000017 	ldw	fp,0(sp)
     330:	dec00104 	addi	sp,sp,4
     334:	f800283a 	ret

00000338 <main>:

int main(void) {
     338:	defffe04 	addi	sp,sp,-8
     33c:	dfc00115 	stw	ra,4(sp)
     340:	df000015 	stw	fp,0(sp)
     344:	d839883a 	mov	fp,sp
     348:	023ff0f4 	movhi	r8,65475
     34c:	423db004 	addi	r8,r8,-2368
     350:	da37883a 	add	sp,sp,r8
	volatile int * pKEY = (int *) 0xff200050;
     354:	00bfc834 	movhi	r2,65312
     358:	10801404 	addi	r2,r2,80
     35c:	00fff0f4 	movhi	r3,65475
     360:	18fdb404 	addi	r3,r3,-2352
     364:	1f07883a 	add	r3,r3,fp
     368:	18800015 	stw	r2,0(r3)
	volatile int * pLED = (int *) LEDS_BASE; // red LED address
     36c:	00bfc834 	movhi	r2,65312
     370:	013ff0f4 	movhi	r4,65475
     374:	213db504 	addi	r4,r4,-2348
     378:	2709883a 	add	r4,r4,fp
     37c:	20800015 	stw	r2,0(r4)
	volatile int * pAudio = (int *) AUDIO_SUBSYSTEM_AUDIO_BASE; // audio port address
     380:	00bfc834 	movhi	r2,65312
     384:	108c1004 	addi	r2,r2,12352
     388:	017ff0f4 	movhi	r5,65475
     38c:	297db604 	addi	r5,r5,-2344
     390:	2f0b883a 	add	r5,r5,fp
     394:	28800015 	stw	r2,0(r5)

	volatile unsigned char * RARC = 0xFF203044;
     398:	00bfc834 	movhi	r2,65312
     39c:	108c1104 	addi	r2,r2,12356
     3a0:	00fff0f4 	movhi	r3,65475
     3a4:	18fdb704 	addi	r3,r3,-2340
     3a8:	1f07883a 	add	r3,r3,fp
     3ac:	18800015 	stw	r2,0(r3)
	volatile unsigned char * RALC = 0xFF203045;
     3b0:	00bfc834 	movhi	r2,65312
     3b4:	108c1144 	addi	r2,r2,12357
     3b8:	013ff0f4 	movhi	r4,65475
     3bc:	213db804 	addi	r4,r4,-2336
     3c0:	2709883a 	add	r4,r4,fp
     3c4:	20800015 	stw	r2,0(r4)
	volatile unsigned char * WSRC = 0xFF203046;
     3c8:	00bfc834 	movhi	r2,65312
     3cc:	108c1184 	addi	r2,r2,12358
     3d0:	017ff0f4 	movhi	r5,65475
     3d4:	297db904 	addi	r5,r5,-2332
     3d8:	2f0b883a 	add	r5,r5,fp
     3dc:	28800015 	stw	r2,0(r5)
	volatile unsigned char * WSLC = 0xFF203047;
     3e0:	00bfc834 	movhi	r2,65312
     3e4:	108c11c4 	addi	r2,r2,12359
     3e8:	00fff0f4 	movhi	r3,65475
     3ec:	18fdba04 	addi	r3,r3,-2328
     3f0:	1f07883a 	add	r3,r3,fp
     3f4:	18800015 	stw	r2,0(r3)
	volatile int * LeftData = 0xFF203048;
     3f8:	00bfc834 	movhi	r2,65312
     3fc:	108c1204 	addi	r2,r2,12360
     400:	013ff0f4 	movhi	r4,65475
     404:	213dbb04 	addi	r4,r4,-2324
     408:	2709883a 	add	r4,r4,fp
     40c:	20800015 	stw	r2,0(r4)
	volatile int * RightData = 0xFF20304C;
     410:	00bfc834 	movhi	r2,65312
     414:	108c1304 	addi	r2,r2,12364
     418:	017ff0f4 	movhi	r5,65475
     41c:	297dbc04 	addi	r5,r5,-2320
     420:	2f0b883a 	add	r5,r5,fp
     424:	28800015 	stw	r2,0(r5)

	int left_buffer[BUF_SIZE];
	int right_buffer[BUF_SIZE];

	int record = 0, play = 0;
     428:	00800f74 	movhi	r2,61
     42c:	10824e04 	addi	r2,r2,2360
     430:	00fff0f4 	movhi	r3,65475
     434:	18fdb004 	addi	r3,r3,-2368
     438:	1f07883a 	add	r3,r3,fp
     43c:	1885883a 	add	r2,r3,r2
     440:	10000015 	stw	zero,0(r2)
     444:	00800f74 	movhi	r2,61
     448:	10824f04 	addi	r2,r2,2364
     44c:	013ff0f4 	movhi	r4,65475
     450:	213db004 	addi	r4,r4,-2368
     454:	2709883a 	add	r4,r4,fp
     458:	2085883a 	add	r2,r4,r2
     45c:	10000015 	stw	zero,0(r2)
	*(pLED) = 0;
     460:	017ff0f4 	movhi	r5,65475
     464:	297db504 	addi	r5,r5,-2348
     468:	2f0b883a 	add	r5,r5,fp
     46c:	28800017 	ldw	r2,0(r5)
     470:	10000015 	stw	zero,0(r2)

	while (1) {
		int check = check_KEYs(&record, &play, pKEY);
     474:	00800f74 	movhi	r2,61
     478:	10824f04 	addi	r2,r2,2364
     47c:	013ff0f4 	movhi	r4,65475
     480:	213db004 	addi	r4,r4,-2368
     484:	2709883a 	add	r4,r4,fp
     488:	2087883a 	add	r3,r4,r2
     48c:	00800f74 	movhi	r2,61
     490:	10824e04 	addi	r2,r2,2360
     494:	017ff0f4 	movhi	r5,65475
     498:	297db004 	addi	r5,r5,-2368
     49c:	2f0b883a 	add	r5,r5,fp
     4a0:	2885883a 	add	r2,r5,r2
     4a4:	013ff0f4 	movhi	r4,65475
     4a8:	213db404 	addi	r4,r4,-2352
     4ac:	2709883a 	add	r4,r4,fp
     4b0:	21800017 	ldw	r6,0(r4)
     4b4:	180b883a 	mov	r5,r3
     4b8:	1009883a 	mov	r4,r2
     4bc:	00002840 	call	284 <check_KEYs>
     4c0:	017ff0f4 	movhi	r5,65475
     4c4:	297dbd04 	addi	r5,r5,-2316
     4c8:	2f0b883a 	add	r5,r5,fp
     4cc:	28800015 	stw	r2,0(r5)

		if (record) {
     4d0:	00800f74 	movhi	r2,61
     4d4:	10824e04 	addi	r2,r2,2360
     4d8:	00fff0f4 	movhi	r3,65475
     4dc:	18fdb004 	addi	r3,r3,-2368
     4e0:	1f07883a 	add	r3,r3,fp
     4e4:	1885883a 	add	r2,r3,r2
     4e8:	10800017 	ldw	r2,0(r2)
     4ec:	10007d26 	beq	r2,zero,6e4 <main+0x3ac>
			*pLED = 0x1;
     4f0:	013ff0f4 	movhi	r4,65475
     4f4:	213db504 	addi	r4,r4,-2348
     4f8:	2709883a 	add	r4,r4,fp
     4fc:	20800017 	ldw	r2,0(r4)
     500:	00c00044 	movi	r3,1
     504:	10c00015 	stw	r3,0(r2)
			int recSec = 0;
     508:	017ff0f4 	movhi	r5,65475
     50c:	297db004 	addi	r5,r5,-2368
     510:	2f0b883a 	add	r5,r5,fp
     514:	28000015 	stw	zero,0(r5)
			int offset = 0;
     518:	00bff0f4 	movhi	r2,65475
     51c:	10bdb104 	addi	r2,r2,-2364
     520:	1705883a 	add	r2,r2,fp
     524:	10000015 	stw	zero,0(r2)
			printf("recording Start\n");
     528:	01000074 	movhi	r4,1
     52c:	21027704 	addi	r4,r4,2524
     530:	0000a240 	call	a24 <puts>
			while (offset < BUF_SIZE) {
     534:	00005406 	br	688 <main+0x350>
				if (*RARC >= BUF_THRESHOLD || *RALC >= BUF_THRESHOLD) {
     538:	00fff0f4 	movhi	r3,65475
     53c:	18fdb704 	addi	r3,r3,-2340
     540:	1f07883a 	add	r3,r3,fp
     544:	18800017 	ldw	r2,0(r3)
     548:	10800003 	ldbu	r2,0(r2)
     54c:	10803fcc 	andi	r2,r2,255
     550:	10801828 	cmpgeui	r2,r2,96
     554:	1000081e 	bne	r2,zero,578 <main+0x240>
     558:	013ff0f4 	movhi	r4,65475
     55c:	213db804 	addi	r4,r4,-2336
     560:	2709883a 	add	r4,r4,fp
     564:	20800017 	ldw	r2,0(r4)
     568:	10800003 	ldbu	r2,0(r2)
     56c:	10803fcc 	andi	r2,r2,255
     570:	10801830 	cmpltui	r2,r2,96
     574:	10002d1e 	bne	r2,zero,62c <main+0x2f4>
					right_buffer[offset] = *RightData;
     578:	017ff0f4 	movhi	r5,65475
     57c:	297dbc04 	addi	r5,r5,-2320
     580:	2f0b883a 	add	r5,r5,fp
     584:	28800017 	ldw	r2,0(r5)
     588:	10c00017 	ldw	r3,0(r2)
     58c:	008007f4 	movhi	r2,31
     590:	10a12e04 	addi	r2,r2,-31560
     594:	017ff0f4 	movhi	r5,65475
     598:	297db004 	addi	r5,r5,-2368
     59c:	2f0b883a 	add	r5,r5,fp
     5a0:	2889883a 	add	r4,r5,r2
     5a4:	017ff0f4 	movhi	r5,65475
     5a8:	297db104 	addi	r5,r5,-2364
     5ac:	2f0b883a 	add	r5,r5,fp
     5b0:	28800017 	ldw	r2,0(r5)
     5b4:	1085883a 	add	r2,r2,r2
     5b8:	1085883a 	add	r2,r2,r2
     5bc:	2085883a 	add	r2,r4,r2
     5c0:	10c00015 	stw	r3,0(r2)
					left_buffer[offset] = *LeftData;
     5c4:	00fff0f4 	movhi	r3,65475
     5c8:	18fdbb04 	addi	r3,r3,-2324
     5cc:	1f07883a 	add	r3,r3,fp
     5d0:	18800017 	ldw	r2,0(r3)
     5d4:	10c00017 	ldw	r3,0(r2)
     5d8:	013ff0f4 	movhi	r4,65475
     5dc:	213db104 	addi	r4,r4,-2364
     5e0:	2709883a 	add	r4,r4,fp
     5e4:	20800017 	ldw	r2,0(r4)
     5e8:	1085883a 	add	r2,r2,r2
     5ec:	1085883a 	add	r2,r2,r2
     5f0:	017ff0f4 	movhi	r5,65475
     5f4:	297db004 	addi	r5,r5,-2368
     5f8:	2f0b883a 	add	r5,r5,fp
     5fc:	2885883a 	add	r2,r5,r2
     600:	10800e04 	addi	r2,r2,56
     604:	10c00015 	stw	r3,0(r2)
					offset++;
     608:	00fff0f4 	movhi	r3,65475
     60c:	18fdb104 	addi	r3,r3,-2364
     610:	1f07883a 	add	r3,r3,fp
     614:	18800017 	ldw	r2,0(r3)
     618:	10800044 	addi	r2,r2,1
     61c:	013ff0f4 	movhi	r4,65475
     620:	213db104 	addi	r4,r4,-2364
     624:	2709883a 	add	r4,r4,fp
     628:	20800015 	stw	r2,0(r4)
				}
				if (offset % 48000 == 0)
     62c:	017ff0f4 	movhi	r5,65475
     630:	297db104 	addi	r5,r5,-2364
     634:	2f0b883a 	add	r5,r5,fp
     638:	28800017 	ldw	r2,0(r5)
     63c:	00eee014 	movui	r3,48000
     640:	10c9283a 	div	r4,r2,r3
     644:	00eee014 	movui	r3,48000
     648:	20c7383a 	mul	r3,r4,r3
     64c:	10c5c83a 	sub	r2,r2,r3
     650:	10000d1e 	bne	r2,zero,688 <main+0x350>
					printf("%d...\n", recSec++);
     654:	00fff0f4 	movhi	r3,65475
     658:	18fdb004 	addi	r3,r3,-2368
     65c:	1f07883a 	add	r3,r3,fp
     660:	18800017 	ldw	r2,0(r3)
     664:	10c00044 	addi	r3,r2,1
     668:	013ff0f4 	movhi	r4,65475
     66c:	213db004 	addi	r4,r4,-2368
     670:	2709883a 	add	r4,r4,fp
     674:	20c00015 	stw	r3,0(r4)
     678:	100b883a 	mov	r5,r2
     67c:	01000074 	movhi	r4,1
     680:	21027b04 	addi	r4,r4,2540
     684:	00009280 	call	928 <printf>
		if (record) {
			*pLED = 0x1;
			int recSec = 0;
			int offset = 0;
			printf("recording Start\n");
			while (offset < BUF_SIZE) {
     688:	017ff0f4 	movhi	r5,65475
     68c:	297db104 	addi	r5,r5,-2364
     690:	2f0b883a 	add	r5,r5,fp
     694:	28c00017 	ldw	r3,0(r5)
     698:	00800234 	movhi	r2,8
     69c:	10a847c4 	addi	r2,r2,-24289
     6a0:	10ffa50e 	bge	r2,r3,538 <__alt_mem_ARM_A9_HPS_axi_sdram+0xc0000538>
					offset++;
				}
				if (offset % 48000 == 0)
					printf("%d...\n", recSec++);
			}
			record = 0;
     6a4:	00800f74 	movhi	r2,61
     6a8:	10824e04 	addi	r2,r2,2360
     6ac:	00fff0f4 	movhi	r3,65475
     6b0:	18fdb004 	addi	r3,r3,-2368
     6b4:	1f07883a 	add	r3,r3,fp
     6b8:	1885883a 	add	r2,r3,r2
     6bc:	10000015 	stw	zero,0(r2)
			printf("recording Done\n");
     6c0:	01000074 	movhi	r4,1
     6c4:	21027d04 	addi	r4,r4,2548
     6c8:	0000a240 	call	a24 <puts>
			*pLED = 0x0;
     6cc:	013ff0f4 	movhi	r4,65475
     6d0:	213db504 	addi	r4,r4,-2348
     6d4:	2709883a 	add	r4,r4,fp
     6d8:	20800017 	ldw	r2,0(r4)
     6dc:	10000015 	stw	zero,0(r2)
     6e0:	003f6406 	br	474 <__alt_mem_ARM_A9_HPS_axi_sdram+0xc0000474>
		} else if (play) {
     6e4:	00800f74 	movhi	r2,61
     6e8:	10824f04 	addi	r2,r2,2364
     6ec:	017ff0f4 	movhi	r5,65475
     6f0:	297db004 	addi	r5,r5,-2368
     6f4:	2f0b883a 	add	r5,r5,fp
     6f8:	2885883a 	add	r2,r5,r2
     6fc:	10800017 	ldw	r2,0(r2)
     700:	103f5c26 	beq	r2,zero,474 <__alt_mem_ARM_A9_HPS_axi_sdram+0xc0000474>
			*pLED = 0x2;
     704:	00fff0f4 	movhi	r3,65475
     708:	18fdb504 	addi	r3,r3,-2348
     70c:	1f07883a 	add	r3,r3,fp
     710:	18800017 	ldw	r2,0(r3)
     714:	00c00084 	movi	r3,2
     718:	10c00015 	stw	r3,0(r2)
			int playSec = 0;
     71c:	013ff0f4 	movhi	r4,65475
     720:	213db204 	addi	r4,r4,-2360
     724:	2709883a 	add	r4,r4,fp
     728:	20000015 	stw	zero,0(r4)
			int offset = 0;
     72c:	017ff0f4 	movhi	r5,65475
     730:	297db304 	addi	r5,r5,-2356
     734:	2f0b883a 	add	r5,r5,fp
     738:	28000015 	stw	zero,0(r5)
			printf("Play Start\n");
     73c:	01000074 	movhi	r4,1
     740:	21028104 	addi	r4,r4,2564
     744:	0000a240 	call	a24 <puts>
			while (offset < BUF_SIZE) {
     748:	00005406 	br	89c <main+0x564>
				if (*WSLC >= BUF_THRESHOLD || *WSRC >= BUF_THRESHOLD){
     74c:	00fff0f4 	movhi	r3,65475
     750:	18fdba04 	addi	r3,r3,-2328
     754:	1f07883a 	add	r3,r3,fp
     758:	18800017 	ldw	r2,0(r3)
     75c:	10800003 	ldbu	r2,0(r2)
     760:	10803fcc 	andi	r2,r2,255
     764:	10801828 	cmpgeui	r2,r2,96
     768:	1000081e 	bne	r2,zero,78c <main+0x454>
     76c:	013ff0f4 	movhi	r4,65475
     770:	213db904 	addi	r4,r4,-2332
     774:	2709883a 	add	r4,r4,fp
     778:	20800017 	ldw	r2,0(r4)
     77c:	10800003 	ldbu	r2,0(r2)
     780:	10803fcc 	andi	r2,r2,255
     784:	10801830 	cmpltui	r2,r2,96
     788:	1000441e 	bne	r2,zero,89c <main+0x564>
					*RightData = right_buffer[offset];
     78c:	008007f4 	movhi	r2,31
     790:	10a12e04 	addi	r2,r2,-31560
     794:	017ff0f4 	movhi	r5,65475
     798:	297db004 	addi	r5,r5,-2368
     79c:	2f0b883a 	add	r5,r5,fp
     7a0:	2887883a 	add	r3,r5,r2
     7a4:	013ff0f4 	movhi	r4,65475
     7a8:	213db304 	addi	r4,r4,-2356
     7ac:	2709883a 	add	r4,r4,fp
     7b0:	20800017 	ldw	r2,0(r4)
     7b4:	1085883a 	add	r2,r2,r2
     7b8:	1085883a 	add	r2,r2,r2
     7bc:	1885883a 	add	r2,r3,r2
     7c0:	10c00017 	ldw	r3,0(r2)
     7c4:	017ff0f4 	movhi	r5,65475
     7c8:	297dbc04 	addi	r5,r5,-2320
     7cc:	2f0b883a 	add	r5,r5,fp
     7d0:	28800017 	ldw	r2,0(r5)
     7d4:	10c00015 	stw	r3,0(r2)
					*LeftData = left_buffer[offset];
     7d8:	00fff0f4 	movhi	r3,65475
     7dc:	18fdb304 	addi	r3,r3,-2356
     7e0:	1f07883a 	add	r3,r3,fp
     7e4:	18800017 	ldw	r2,0(r3)
     7e8:	1085883a 	add	r2,r2,r2
     7ec:	1085883a 	add	r2,r2,r2
     7f0:	013ff0f4 	movhi	r4,65475
     7f4:	213db004 	addi	r4,r4,-2368
     7f8:	2709883a 	add	r4,r4,fp
     7fc:	2085883a 	add	r2,r4,r2
     800:	10800e04 	addi	r2,r2,56
     804:	10c00017 	ldw	r3,0(r2)
     808:	017ff0f4 	movhi	r5,65475
     80c:	297dbb04 	addi	r5,r5,-2324
     810:	2f0b883a 	add	r5,r5,fp
     814:	28800017 	ldw	r2,0(r5)
     818:	10c00015 	stw	r3,0(r2)
					offset++;
     81c:	00fff0f4 	movhi	r3,65475
     820:	18fdb304 	addi	r3,r3,-2356
     824:	1f07883a 	add	r3,r3,fp
     828:	18800017 	ldw	r2,0(r3)
     82c:	10800044 	addi	r2,r2,1
     830:	013ff0f4 	movhi	r4,65475
     834:	213db304 	addi	r4,r4,-2356
     838:	2709883a 	add	r4,r4,fp
     83c:	20800015 	stw	r2,0(r4)

					if (offset % 48000 == 0)
     840:	017ff0f4 	movhi	r5,65475
     844:	297db304 	addi	r5,r5,-2356
     848:	2f0b883a 	add	r5,r5,fp
     84c:	28800017 	ldw	r2,0(r5)
     850:	00eee014 	movui	r3,48000
     854:	10c9283a 	div	r4,r2,r3
     858:	00eee014 	movui	r3,48000
     85c:	20c7383a 	mul	r3,r4,r3
     860:	10c5c83a 	sub	r2,r2,r3
     864:	10000d1e 	bne	r2,zero,89c <main+0x564>
						printf("%d...\n", playSec++);
     868:	00fff0f4 	movhi	r3,65475
     86c:	18fdb204 	addi	r3,r3,-2360
     870:	1f07883a 	add	r3,r3,fp
     874:	18800017 	ldw	r2,0(r3)
     878:	10c00044 	addi	r3,r2,1
     87c:	013ff0f4 	movhi	r4,65475
     880:	213db204 	addi	r4,r4,-2360
     884:	2709883a 	add	r4,r4,fp
     888:	20c00015 	stw	r3,0(r4)
     88c:	100b883a 	mov	r5,r2
     890:	01000074 	movhi	r4,1
     894:	21027b04 	addi	r4,r4,2540
     898:	00009280 	call	928 <printf>
		} else if (play) {
			*pLED = 0x2;
			int playSec = 0;
			int offset = 0;
			printf("Play Start\n");
			while (offset < BUF_SIZE) {
     89c:	017ff0f4 	movhi	r5,65475
     8a0:	297db304 	addi	r5,r5,-2356
     8a4:	2f0b883a 	add	r5,r5,fp
     8a8:	28c00017 	ldw	r3,0(r5)
     8ac:	00800234 	movhi	r2,8
     8b0:	10a847c4 	addi	r2,r2,-24289
     8b4:	10ffa50e 	bge	r2,r3,74c <__alt_mem_ARM_A9_HPS_axi_sdram+0xc000074c>

					if (offset % 48000 == 0)
						printf("%d...\n", playSec++);
				}
			}
			play = 0;
     8b8:	00800f74 	movhi	r2,61
     8bc:	10824f04 	addi	r2,r2,2364
     8c0:	00fff0f4 	movhi	r3,65475
     8c4:	18fdb004 	addi	r3,r3,-2368
     8c8:	1f07883a 	add	r3,r3,fp
     8cc:	1885883a 	add	r2,r3,r2
     8d0:	10000015 	stw	zero,0(r2)
			printf("Play Done\n");
     8d4:	01000074 	movhi	r4,1
     8d8:	21028404 	addi	r4,r4,2576
     8dc:	0000a240 	call	a24 <puts>
			*pLED = 0x0;
     8e0:	013ff0f4 	movhi	r4,65475
     8e4:	213db504 	addi	r4,r4,-2348
     8e8:	2709883a 	add	r4,r4,fp
     8ec:	20800017 	ldw	r2,0(r4)
     8f0:	10000015 	stw	zero,0(r2)
		}
	}
     8f4:	003edf06 	br	474 <__alt_mem_ARM_A9_HPS_axi_sdram+0xc0000474>

000008f8 <_printf_r>:
     8f8:	defffd04 	addi	sp,sp,-12
     8fc:	2805883a 	mov	r2,r5
     900:	dfc00015 	stw	ra,0(sp)
     904:	d9800115 	stw	r6,4(sp)
     908:	d9c00215 	stw	r7,8(sp)
     90c:	21400217 	ldw	r5,8(r4)
     910:	d9c00104 	addi	r7,sp,4
     914:	100d883a 	mov	r6,r2
     918:	0000ad00 	call	ad0 <___vfprintf_internal_r>
     91c:	dfc00017 	ldw	ra,0(sp)
     920:	dec00304 	addi	sp,sp,12
     924:	f800283a 	ret

00000928 <printf>:
     928:	defffc04 	addi	sp,sp,-16
     92c:	dfc00015 	stw	ra,0(sp)
     930:	d9400115 	stw	r5,4(sp)
     934:	d9800215 	stw	r6,8(sp)
     938:	d9c00315 	stw	r7,12(sp)
     93c:	00800074 	movhi	r2,1
     940:	108ab804 	addi	r2,r2,10976
     944:	10800017 	ldw	r2,0(r2)
     948:	200b883a 	mov	r5,r4
     94c:	d9800104 	addi	r6,sp,4
     950:	11000217 	ldw	r4,8(r2)
     954:	0002cc80 	call	2cc8 <__vfprintf_internal>
     958:	dfc00017 	ldw	ra,0(sp)
     95c:	dec00404 	addi	sp,sp,16
     960:	f800283a 	ret

00000964 <_puts_r>:
     964:	defff604 	addi	sp,sp,-40
     968:	dc000715 	stw	r16,28(sp)
     96c:	2021883a 	mov	r16,r4
     970:	2809883a 	mov	r4,r5
     974:	dc400815 	stw	r17,32(sp)
     978:	dfc00915 	stw	ra,36(sp)
     97c:	2823883a 	mov	r17,r5
     980:	0000a380 	call	a38 <strlen>
     984:	10c00044 	addi	r3,r2,1
     988:	d8800115 	stw	r2,4(sp)
     98c:	00800074 	movhi	r2,1
     990:	10828704 	addi	r2,r2,2588
     994:	d8800215 	stw	r2,8(sp)
     998:	00800044 	movi	r2,1
     99c:	d8800315 	stw	r2,12(sp)
     9a0:	00800084 	movi	r2,2
     9a4:	dc400015 	stw	r17,0(sp)
     9a8:	d8c00615 	stw	r3,24(sp)
     9ac:	dec00415 	stw	sp,16(sp)
     9b0:	d8800515 	stw	r2,20(sp)
     9b4:	80000226 	beq	r16,zero,9c0 <_puts_r+0x5c>
     9b8:	80800e17 	ldw	r2,56(r16)
     9bc:	10001426 	beq	r2,zero,a10 <_puts_r+0xac>
     9c0:	81400217 	ldw	r5,8(r16)
     9c4:	2880030b 	ldhu	r2,12(r5)
     9c8:	10c8000c 	andi	r3,r2,8192
     9cc:	1800061e 	bne	r3,zero,9e8 <_puts_r+0x84>
     9d0:	29001917 	ldw	r4,100(r5)
     9d4:	00f7ffc4 	movi	r3,-8193
     9d8:	10880014 	ori	r2,r2,8192
     9dc:	20c6703a 	and	r3,r4,r3
     9e0:	2880030d 	sth	r2,12(r5)
     9e4:	28c01915 	stw	r3,100(r5)
     9e8:	d9800404 	addi	r6,sp,16
     9ec:	8009883a 	mov	r4,r16
     9f0:	00051f80 	call	51f8 <__sfvwrite_r>
     9f4:	1000091e 	bne	r2,zero,a1c <_puts_r+0xb8>
     9f8:	00800284 	movi	r2,10
     9fc:	dfc00917 	ldw	ra,36(sp)
     a00:	dc400817 	ldw	r17,32(sp)
     a04:	dc000717 	ldw	r16,28(sp)
     a08:	dec00a04 	addi	sp,sp,40
     a0c:	f800283a 	ret
     a10:	8009883a 	mov	r4,r16
     a14:	0004d740 	call	4d74 <__sinit>
     a18:	003fe906 	br	9c0 <__alt_mem_ARM_A9_HPS_axi_sdram+0xc00009c0>
     a1c:	00bfffc4 	movi	r2,-1
     a20:	003ff606 	br	9fc <__alt_mem_ARM_A9_HPS_axi_sdram+0xc00009fc>

00000a24 <puts>:
     a24:	00800074 	movhi	r2,1
     a28:	108ab804 	addi	r2,r2,10976
     a2c:	200b883a 	mov	r5,r4
     a30:	11000017 	ldw	r4,0(r2)
     a34:	00009641 	jmpi	964 <_puts_r>

00000a38 <strlen>:
     a38:	208000cc 	andi	r2,r4,3
     a3c:	10002026 	beq	r2,zero,ac0 <strlen+0x88>
     a40:	20800007 	ldb	r2,0(r4)
     a44:	10002026 	beq	r2,zero,ac8 <strlen+0x90>
     a48:	2005883a 	mov	r2,r4
     a4c:	00000206 	br	a58 <strlen+0x20>
     a50:	10c00007 	ldb	r3,0(r2)
     a54:	18001826 	beq	r3,zero,ab8 <strlen+0x80>
     a58:	10800044 	addi	r2,r2,1
     a5c:	10c000cc 	andi	r3,r2,3
     a60:	183ffb1e 	bne	r3,zero,a50 <__alt_mem_ARM_A9_HPS_axi_sdram+0xc0000a50>
     a64:	10c00017 	ldw	r3,0(r2)
     a68:	01ffbff4 	movhi	r7,65279
     a6c:	39ffbfc4 	addi	r7,r7,-257
     a70:	00ca303a 	nor	r5,zero,r3
     a74:	01a02074 	movhi	r6,32897
     a78:	19c7883a 	add	r3,r3,r7
     a7c:	31a02004 	addi	r6,r6,-32640
     a80:	1946703a 	and	r3,r3,r5
     a84:	1986703a 	and	r3,r3,r6
     a88:	1800091e 	bne	r3,zero,ab0 <strlen+0x78>
     a8c:	10800104 	addi	r2,r2,4
     a90:	10c00017 	ldw	r3,0(r2)
     a94:	19cb883a 	add	r5,r3,r7
     a98:	00c6303a 	nor	r3,zero,r3
     a9c:	28c6703a 	and	r3,r5,r3
     aa0:	1986703a 	and	r3,r3,r6
     aa4:	183ff926 	beq	r3,zero,a8c <__alt_mem_ARM_A9_HPS_axi_sdram+0xc0000a8c>
     aa8:	00000106 	br	ab0 <strlen+0x78>
     aac:	10800044 	addi	r2,r2,1
     ab0:	10c00007 	ldb	r3,0(r2)
     ab4:	183ffd1e 	bne	r3,zero,aac <__alt_mem_ARM_A9_HPS_axi_sdram+0xc0000aac>
     ab8:	1105c83a 	sub	r2,r2,r4
     abc:	f800283a 	ret
     ac0:	2005883a 	mov	r2,r4
     ac4:	003fe706 	br	a64 <__alt_mem_ARM_A9_HPS_axi_sdram+0xc0000a64>
     ac8:	0005883a 	mov	r2,zero
     acc:	f800283a 	ret

00000ad0 <___vfprintf_internal_r>:
     ad0:	deffb804 	addi	sp,sp,-288
     ad4:	dfc04715 	stw	ra,284(sp)
     ad8:	ddc04515 	stw	r23,276(sp)
     adc:	dd404315 	stw	r21,268(sp)
     ae0:	d9002c15 	stw	r4,176(sp)
     ae4:	282f883a 	mov	r23,r5
     ae8:	302b883a 	mov	r21,r6
     aec:	d9c02d15 	stw	r7,180(sp)
     af0:	df004615 	stw	fp,280(sp)
     af4:	dd804415 	stw	r22,272(sp)
     af8:	dd004215 	stw	r20,264(sp)
     afc:	dcc04115 	stw	r19,260(sp)
     b00:	dc804015 	stw	r18,256(sp)
     b04:	dc403f15 	stw	r17,252(sp)
     b08:	dc003e15 	stw	r16,248(sp)
     b0c:	00058e80 	call	58e8 <_localeconv_r>
     b10:	10800017 	ldw	r2,0(r2)
     b14:	1009883a 	mov	r4,r2
     b18:	d8803415 	stw	r2,208(sp)
     b1c:	0000a380 	call	a38 <strlen>
     b20:	d8803715 	stw	r2,220(sp)
     b24:	d8802c17 	ldw	r2,176(sp)
     b28:	10000226 	beq	r2,zero,b34 <___vfprintf_internal_r+0x64>
     b2c:	10800e17 	ldw	r2,56(r2)
     b30:	1000f926 	beq	r2,zero,f18 <___vfprintf_internal_r+0x448>
     b34:	b880030b 	ldhu	r2,12(r23)
     b38:	10c8000c 	andi	r3,r2,8192
     b3c:	1800061e 	bne	r3,zero,b58 <___vfprintf_internal_r+0x88>
     b40:	b9001917 	ldw	r4,100(r23)
     b44:	00f7ffc4 	movi	r3,-8193
     b48:	10880014 	ori	r2,r2,8192
     b4c:	20c6703a 	and	r3,r4,r3
     b50:	b880030d 	sth	r2,12(r23)
     b54:	b8c01915 	stw	r3,100(r23)
     b58:	10c0020c 	andi	r3,r2,8
     b5c:	1800c126 	beq	r3,zero,e64 <___vfprintf_internal_r+0x394>
     b60:	b8c00417 	ldw	r3,16(r23)
     b64:	1800bf26 	beq	r3,zero,e64 <___vfprintf_internal_r+0x394>
     b68:	1080068c 	andi	r2,r2,26
     b6c:	00c00284 	movi	r3,10
     b70:	10c0c426 	beq	r2,r3,e84 <___vfprintf_internal_r+0x3b4>
     b74:	d8c00404 	addi	r3,sp,16
     b78:	05000074 	movhi	r20,1
     b7c:	d9001e04 	addi	r4,sp,120
     b80:	a5029884 	addi	r20,r20,2658
     b84:	d8c01e15 	stw	r3,120(sp)
     b88:	d8002015 	stw	zero,128(sp)
     b8c:	d8001f15 	stw	zero,124(sp)
     b90:	d8003315 	stw	zero,204(sp)
     b94:	d8003615 	stw	zero,216(sp)
     b98:	d8003815 	stw	zero,224(sp)
     b9c:	1811883a 	mov	r8,r3
     ba0:	d8003915 	stw	zero,228(sp)
     ba4:	d8003a15 	stw	zero,232(sp)
     ba8:	d8002f15 	stw	zero,188(sp)
     bac:	d9002815 	stw	r4,160(sp)
     bb0:	a8800007 	ldb	r2,0(r21)
     bb4:	10027b26 	beq	r2,zero,15a4 <___vfprintf_internal_r+0xad4>
     bb8:	00c00944 	movi	r3,37
     bbc:	a821883a 	mov	r16,r21
     bc0:	10c0021e 	bne	r2,r3,bcc <___vfprintf_internal_r+0xfc>
     bc4:	00001406 	br	c18 <___vfprintf_internal_r+0x148>
     bc8:	10c00326 	beq	r2,r3,bd8 <___vfprintf_internal_r+0x108>
     bcc:	84000044 	addi	r16,r16,1
     bd0:	80800007 	ldb	r2,0(r16)
     bd4:	103ffc1e 	bne	r2,zero,bc8 <__alt_mem_ARM_A9_HPS_axi_sdram+0xc0000bc8>
     bd8:	8563c83a 	sub	r17,r16,r21
     bdc:	88000e26 	beq	r17,zero,c18 <___vfprintf_internal_r+0x148>
     be0:	d8c02017 	ldw	r3,128(sp)
     be4:	d8801f17 	ldw	r2,124(sp)
     be8:	45400015 	stw	r21,0(r8)
     bec:	1c47883a 	add	r3,r3,r17
     bf0:	10800044 	addi	r2,r2,1
     bf4:	d8c02015 	stw	r3,128(sp)
     bf8:	44400115 	stw	r17,4(r8)
     bfc:	d8801f15 	stw	r2,124(sp)
     c00:	00c001c4 	movi	r3,7
     c04:	1880a716 	blt	r3,r2,ea4 <___vfprintf_internal_r+0x3d4>
     c08:	42000204 	addi	r8,r8,8
     c0c:	d9402f17 	ldw	r5,188(sp)
     c10:	2c4b883a 	add	r5,r5,r17
     c14:	d9402f15 	stw	r5,188(sp)
     c18:	80800007 	ldb	r2,0(r16)
     c1c:	1000a826 	beq	r2,zero,ec0 <___vfprintf_internal_r+0x3f0>
     c20:	84400047 	ldb	r17,1(r16)
     c24:	00bfffc4 	movi	r2,-1
     c28:	85400044 	addi	r21,r16,1
     c2c:	d8002785 	stb	zero,158(sp)
     c30:	0007883a 	mov	r3,zero
     c34:	000f883a 	mov	r7,zero
     c38:	d8802915 	stw	r2,164(sp)
     c3c:	d8003115 	stw	zero,196(sp)
     c40:	0025883a 	mov	r18,zero
     c44:	01401604 	movi	r5,88
     c48:	01800244 	movi	r6,9
     c4c:	02800a84 	movi	r10,42
     c50:	02401b04 	movi	r9,108
     c54:	ad400044 	addi	r21,r21,1
     c58:	88bff804 	addi	r2,r17,-32
     c5c:	28830436 	bltu	r5,r2,1870 <___vfprintf_internal_r+0xda0>
     c60:	100490ba 	slli	r2,r2,2
     c64:	01000034 	movhi	r4,0
     c68:	21031e04 	addi	r4,r4,3192
     c6c:	1105883a 	add	r2,r2,r4
     c70:	10800017 	ldw	r2,0(r2)
     c74:	1000683a 	jmp	r2
     c78:	00001790 	cmplti	zero,zero,94
     c7c:	00001870 	cmpltui	zero,zero,97
     c80:	00001870 	cmpltui	zero,zero,97
     c84:	000017b0 	cmpltui	zero,zero,94
     c88:	00001870 	cmpltui	zero,zero,97
     c8c:	00001870 	cmpltui	zero,zero,97
     c90:	00001870 	cmpltui	zero,zero,97
     c94:	00001870 	cmpltui	zero,zero,97
     c98:	00001870 	cmpltui	zero,zero,97
     c9c:	00001870 	cmpltui	zero,zero,97
     ca0:	00000f24 	muli	zero,zero,60
     ca4:	000016cc 	andi	zero,zero,91
     ca8:	00001870 	cmpltui	zero,zero,97
     cac:	00000dec 	andhi	zero,zero,55
     cb0:	00000f4c 	andi	zero,zero,61
     cb4:	00001870 	cmpltui	zero,zero,97
     cb8:	00000f8c 	andi	zero,zero,62
     cbc:	00000f98 	cmpnei	zero,zero,62
     cc0:	00000f98 	cmpnei	zero,zero,62
     cc4:	00000f98 	cmpnei	zero,zero,62
     cc8:	00000f98 	cmpnei	zero,zero,62
     ccc:	00000f98 	cmpnei	zero,zero,62
     cd0:	00000f98 	cmpnei	zero,zero,62
     cd4:	00000f98 	cmpnei	zero,zero,62
     cd8:	00000f98 	cmpnei	zero,zero,62
     cdc:	00000f98 	cmpnei	zero,zero,62
     ce0:	00001870 	cmpltui	zero,zero,97
     ce4:	00001870 	cmpltui	zero,zero,97
     ce8:	00001870 	cmpltui	zero,zero,97
     cec:	00001870 	cmpltui	zero,zero,97
     cf0:	00001870 	cmpltui	zero,zero,97
     cf4:	00001870 	cmpltui	zero,zero,97
     cf8:	00001870 	cmpltui	zero,zero,97
     cfc:	00001870 	cmpltui	zero,zero,97
     d00:	00001870 	cmpltui	zero,zero,97
     d04:	00001870 	cmpltui	zero,zero,97
     d08:	00000fcc 	andi	zero,zero,63
     d0c:	00001088 	cmpgei	zero,zero,66
     d10:	00001870 	cmpltui	zero,zero,97
     d14:	00001088 	cmpgei	zero,zero,66
     d18:	00001870 	cmpltui	zero,zero,97
     d1c:	00001870 	cmpltui	zero,zero,97
     d20:	00001870 	cmpltui	zero,zero,97
     d24:	00001870 	cmpltui	zero,zero,97
     d28:	00001128 	cmpgeui	zero,zero,68
     d2c:	00001870 	cmpltui	zero,zero,97
     d30:	00001870 	cmpltui	zero,zero,97
     d34:	00001134 	movhi	zero,68
     d38:	00001870 	cmpltui	zero,zero,97
     d3c:	00001870 	cmpltui	zero,zero,97
     d40:	00001870 	cmpltui	zero,zero,97
     d44:	00001870 	cmpltui	zero,zero,97
     d48:	00001870 	cmpltui	zero,zero,97
     d4c:	000015ac 	andhi	zero,zero,86
     d50:	00001870 	cmpltui	zero,zero,97
     d54:	00001870 	cmpltui	zero,zero,97
     d58:	0000160c 	andi	zero,zero,88
     d5c:	00001870 	cmpltui	zero,zero,97
     d60:	00001870 	cmpltui	zero,zero,97
     d64:	00001870 	cmpltui	zero,zero,97
     d68:	00001870 	cmpltui	zero,zero,97
     d6c:	00001870 	cmpltui	zero,zero,97
     d70:	00001870 	cmpltui	zero,zero,97
     d74:	00001870 	cmpltui	zero,zero,97
     d78:	00001870 	cmpltui	zero,zero,97
     d7c:	00001870 	cmpltui	zero,zero,97
     d80:	00001870 	cmpltui	zero,zero,97
     d84:	0000181c 	xori	zero,zero,96
     d88:	000017bc 	xorhi	zero,zero,94
     d8c:	00001088 	cmpgei	zero,zero,66
     d90:	00001088 	cmpgei	zero,zero,66
     d94:	00001088 	cmpgei	zero,zero,66
     d98:	000017cc 	andi	zero,zero,95
     d9c:	000017bc 	xorhi	zero,zero,94
     da0:	00001870 	cmpltui	zero,zero,97
     da4:	00001870 	cmpltui	zero,zero,97
     da8:	000017d8 	cmpnei	zero,zero,95
     dac:	00001870 	cmpltui	zero,zero,97
     db0:	000017e8 	cmpgeui	zero,zero,95
     db4:	000016bc 	xorhi	zero,zero,90
     db8:	00000df8 	rdprs	zero,zero,55
     dbc:	000016dc 	xori	zero,zero,91
     dc0:	00001870 	cmpltui	zero,zero,97
     dc4:	000016e8 	cmpgeui	zero,zero,91
     dc8:	00001870 	cmpltui	zero,zero,97
     dcc:	00001744 	movi	zero,93
     dd0:	00001870 	cmpltui	zero,zero,97
     dd4:	00001870 	cmpltui	zero,zero,97
     dd8:	00001754 	movui	zero,93
     ddc:	d9003117 	ldw	r4,196(sp)
     de0:	d8802d15 	stw	r2,180(sp)
     de4:	0109c83a 	sub	r4,zero,r4
     de8:	d9003115 	stw	r4,196(sp)
     dec:	94800114 	ori	r18,r18,4
     df0:	ac400007 	ldb	r17,0(r21)
     df4:	003f9706 	br	c54 <__alt_mem_ARM_A9_HPS_axi_sdram+0xc0000c54>
     df8:	00800c04 	movi	r2,48
     dfc:	d9002d17 	ldw	r4,180(sp)
     e00:	d9402917 	ldw	r5,164(sp)
     e04:	d8802705 	stb	r2,156(sp)
     e08:	00801e04 	movi	r2,120
     e0c:	d8802745 	stb	r2,157(sp)
     e10:	d8002785 	stb	zero,158(sp)
     e14:	20c00104 	addi	r3,r4,4
     e18:	24c00017 	ldw	r19,0(r4)
     e1c:	002d883a 	mov	r22,zero
     e20:	90800094 	ori	r2,r18,2
     e24:	28029a16 	blt	r5,zero,1890 <___vfprintf_internal_r+0xdc0>
     e28:	00bfdfc4 	movi	r2,-129
     e2c:	90a4703a 	and	r18,r18,r2
     e30:	d8c02d15 	stw	r3,180(sp)
     e34:	94800094 	ori	r18,r18,2
     e38:	9802871e 	bne	r19,zero,1858 <___vfprintf_internal_r+0xd88>
     e3c:	00800074 	movhi	r2,1
     e40:	10829104 	addi	r2,r2,2628
     e44:	d8803915 	stw	r2,228(sp)
     e48:	04401e04 	movi	r17,120
     e4c:	d8802917 	ldw	r2,164(sp)
     e50:	0039883a 	mov	fp,zero
     e54:	1001e926 	beq	r2,zero,15fc <___vfprintf_internal_r+0xb2c>
     e58:	0027883a 	mov	r19,zero
     e5c:	002d883a 	mov	r22,zero
     e60:	00020506 	br	1678 <___vfprintf_internal_r+0xba8>
     e64:	d9002c17 	ldw	r4,176(sp)
     e68:	b80b883a 	mov	r5,r23
     e6c:	0002da00 	call	2da0 <__swsetup_r>
     e70:	1005ac1e 	bne	r2,zero,2524 <___vfprintf_internal_r+0x1a54>
     e74:	b880030b 	ldhu	r2,12(r23)
     e78:	00c00284 	movi	r3,10
     e7c:	1080068c 	andi	r2,r2,26
     e80:	10ff3c1e 	bne	r2,r3,b74 <__alt_mem_ARM_A9_HPS_axi_sdram+0xc0000b74>
     e84:	b880038f 	ldh	r2,14(r23)
     e88:	103f3a16 	blt	r2,zero,b74 <__alt_mem_ARM_A9_HPS_axi_sdram+0xc0000b74>
     e8c:	d9c02d17 	ldw	r7,180(sp)
     e90:	d9002c17 	ldw	r4,176(sp)
     e94:	a80d883a 	mov	r6,r21
     e98:	b80b883a 	mov	r5,r23
     e9c:	0002ce40 	call	2ce4 <__sbprintf>
     ea0:	00001106 	br	ee8 <___vfprintf_internal_r+0x418>
     ea4:	d9002c17 	ldw	r4,176(sp)
     ea8:	d9801e04 	addi	r6,sp,120
     eac:	b80b883a 	mov	r5,r23
     eb0:	00080cc0 	call	80cc <__sprint_r>
     eb4:	1000081e 	bne	r2,zero,ed8 <___vfprintf_internal_r+0x408>
     eb8:	da000404 	addi	r8,sp,16
     ebc:	003f5306 	br	c0c <__alt_mem_ARM_A9_HPS_axi_sdram+0xc0000c0c>
     ec0:	d8802017 	ldw	r2,128(sp)
     ec4:	10000426 	beq	r2,zero,ed8 <___vfprintf_internal_r+0x408>
     ec8:	d9002c17 	ldw	r4,176(sp)
     ecc:	d9801e04 	addi	r6,sp,120
     ed0:	b80b883a 	mov	r5,r23
     ed4:	00080cc0 	call	80cc <__sprint_r>
     ed8:	b880030b 	ldhu	r2,12(r23)
     edc:	1080100c 	andi	r2,r2,64
     ee0:	1005901e 	bne	r2,zero,2524 <___vfprintf_internal_r+0x1a54>
     ee4:	d8802f17 	ldw	r2,188(sp)
     ee8:	dfc04717 	ldw	ra,284(sp)
     eec:	df004617 	ldw	fp,280(sp)
     ef0:	ddc04517 	ldw	r23,276(sp)
     ef4:	dd804417 	ldw	r22,272(sp)
     ef8:	dd404317 	ldw	r21,268(sp)
     efc:	dd004217 	ldw	r20,264(sp)
     f00:	dcc04117 	ldw	r19,260(sp)
     f04:	dc804017 	ldw	r18,256(sp)
     f08:	dc403f17 	ldw	r17,252(sp)
     f0c:	dc003e17 	ldw	r16,248(sp)
     f10:	dec04804 	addi	sp,sp,288
     f14:	f800283a 	ret
     f18:	d9002c17 	ldw	r4,176(sp)
     f1c:	0004d740 	call	4d74 <__sinit>
     f20:	003f0406 	br	b34 <__alt_mem_ARM_A9_HPS_axi_sdram+0xc0000b34>
     f24:	d8802d17 	ldw	r2,180(sp)
     f28:	d9002d17 	ldw	r4,180(sp)
     f2c:	10800017 	ldw	r2,0(r2)
     f30:	d8803115 	stw	r2,196(sp)
     f34:	20800104 	addi	r2,r4,4
     f38:	d9003117 	ldw	r4,196(sp)
     f3c:	203fa716 	blt	r4,zero,ddc <__alt_mem_ARM_A9_HPS_axi_sdram+0xc0000ddc>
     f40:	d8802d15 	stw	r2,180(sp)
     f44:	ac400007 	ldb	r17,0(r21)
     f48:	003f4206 	br	c54 <__alt_mem_ARM_A9_HPS_axi_sdram+0xc0000c54>
     f4c:	ac400007 	ldb	r17,0(r21)
     f50:	aac00044 	addi	r11,r21,1
     f54:	8a872826 	beq	r17,r10,2bf8 <___vfprintf_internal_r+0x2128>
     f58:	88bff404 	addi	r2,r17,-48
     f5c:	0009883a 	mov	r4,zero
     f60:	30867d36 	bltu	r6,r2,2958 <___vfprintf_internal_r+0x1e88>
     f64:	5c400007 	ldb	r17,0(r11)
     f68:	210002a4 	muli	r4,r4,10
     f6c:	5d400044 	addi	r21,r11,1
     f70:	a817883a 	mov	r11,r21
     f74:	2089883a 	add	r4,r4,r2
     f78:	88bff404 	addi	r2,r17,-48
     f7c:	30bff92e 	bgeu	r6,r2,f64 <__alt_mem_ARM_A9_HPS_axi_sdram+0xc0000f64>
     f80:	2005c916 	blt	r4,zero,26a8 <___vfprintf_internal_r+0x1bd8>
     f84:	d9002915 	stw	r4,164(sp)
     f88:	003f3306 	br	c58 <__alt_mem_ARM_A9_HPS_axi_sdram+0xc0000c58>
     f8c:	94802014 	ori	r18,r18,128
     f90:	ac400007 	ldb	r17,0(r21)
     f94:	003f2f06 	br	c54 <__alt_mem_ARM_A9_HPS_axi_sdram+0xc0000c54>
     f98:	a809883a 	mov	r4,r21
     f9c:	d8003115 	stw	zero,196(sp)
     fa0:	88bff404 	addi	r2,r17,-48
     fa4:	0017883a 	mov	r11,zero
     fa8:	24400007 	ldb	r17,0(r4)
     fac:	5ac002a4 	muli	r11,r11,10
     fb0:	ad400044 	addi	r21,r21,1
     fb4:	a809883a 	mov	r4,r21
     fb8:	12d7883a 	add	r11,r2,r11
     fbc:	88bff404 	addi	r2,r17,-48
     fc0:	30bff92e 	bgeu	r6,r2,fa8 <__alt_mem_ARM_A9_HPS_axi_sdram+0xc0000fa8>
     fc4:	dac03115 	stw	r11,196(sp)
     fc8:	003f2306 	br	c58 <__alt_mem_ARM_A9_HPS_axi_sdram+0xc0000c58>
     fcc:	18c03fcc 	andi	r3,r3,255
     fd0:	18072b1e 	bne	r3,zero,2c80 <___vfprintf_internal_r+0x21b0>
     fd4:	94800414 	ori	r18,r18,16
     fd8:	9080080c 	andi	r2,r18,32
     fdc:	10037b26 	beq	r2,zero,1dcc <___vfprintf_internal_r+0x12fc>
     fe0:	d9402d17 	ldw	r5,180(sp)
     fe4:	28800117 	ldw	r2,4(r5)
     fe8:	2cc00017 	ldw	r19,0(r5)
     fec:	29400204 	addi	r5,r5,8
     ff0:	d9402d15 	stw	r5,180(sp)
     ff4:	102d883a 	mov	r22,r2
     ff8:	10044b16 	blt	r2,zero,2128 <___vfprintf_internal_r+0x1658>
     ffc:	d9402917 	ldw	r5,164(sp)
    1000:	df002783 	ldbu	fp,158(sp)
    1004:	2803bc16 	blt	r5,zero,1ef8 <___vfprintf_internal_r+0x1428>
    1008:	00ffdfc4 	movi	r3,-129
    100c:	9d84b03a 	or	r2,r19,r22
    1010:	90e4703a 	and	r18,r18,r3
    1014:	10017726 	beq	r2,zero,15f4 <___vfprintf_internal_r+0xb24>
    1018:	b0038326 	beq	r22,zero,1e28 <___vfprintf_internal_r+0x1358>
    101c:	dc402a15 	stw	r17,168(sp)
    1020:	dc001e04 	addi	r16,sp,120
    1024:	b023883a 	mov	r17,r22
    1028:	402d883a 	mov	r22,r8
    102c:	9809883a 	mov	r4,r19
    1030:	880b883a 	mov	r5,r17
    1034:	01800284 	movi	r6,10
    1038:	000f883a 	mov	r7,zero
    103c:	000a4c40 	call	a4c4 <__umoddi3>
    1040:	10800c04 	addi	r2,r2,48
    1044:	843fffc4 	addi	r16,r16,-1
    1048:	9809883a 	mov	r4,r19
    104c:	880b883a 	mov	r5,r17
    1050:	80800005 	stb	r2,0(r16)
    1054:	01800284 	movi	r6,10
    1058:	000f883a 	mov	r7,zero
    105c:	0009f4c0 	call	9f4c <__udivdi3>
    1060:	1027883a 	mov	r19,r2
    1064:	10c4b03a 	or	r2,r2,r3
    1068:	1823883a 	mov	r17,r3
    106c:	103fef1e 	bne	r2,zero,102c <__alt_mem_ARM_A9_HPS_axi_sdram+0xc000102c>
    1070:	d8c02817 	ldw	r3,160(sp)
    1074:	dc402a17 	ldw	r17,168(sp)
    1078:	b011883a 	mov	r8,r22
    107c:	1c07c83a 	sub	r3,r3,r16
    1080:	d8c02e15 	stw	r3,184(sp)
    1084:	00005906 	br	11ec <___vfprintf_internal_r+0x71c>
    1088:	18c03fcc 	andi	r3,r3,255
    108c:	1806fa1e 	bne	r3,zero,2c78 <___vfprintf_internal_r+0x21a8>
    1090:	9080020c 	andi	r2,r18,8
    1094:	10048a26 	beq	r2,zero,22c0 <___vfprintf_internal_r+0x17f0>
    1098:	d8c02d17 	ldw	r3,180(sp)
    109c:	d9002d17 	ldw	r4,180(sp)
    10a0:	d9402d17 	ldw	r5,180(sp)
    10a4:	18c00017 	ldw	r3,0(r3)
    10a8:	21000117 	ldw	r4,4(r4)
    10ac:	29400204 	addi	r5,r5,8
    10b0:	d8c03615 	stw	r3,216(sp)
    10b4:	d9003815 	stw	r4,224(sp)
    10b8:	d9402d15 	stw	r5,180(sp)
    10bc:	d9003617 	ldw	r4,216(sp)
    10c0:	d9403817 	ldw	r5,224(sp)
    10c4:	da003d15 	stw	r8,244(sp)
    10c8:	04000044 	movi	r16,1
    10cc:	0007cf00 	call	7cf0 <__fpclassifyd>
    10d0:	da003d17 	ldw	r8,244(sp)
    10d4:	14041f1e 	bne	r2,r16,2154 <___vfprintf_internal_r+0x1684>
    10d8:	d9003617 	ldw	r4,216(sp)
    10dc:	d9403817 	ldw	r5,224(sp)
    10e0:	000d883a 	mov	r6,zero
    10e4:	000f883a 	mov	r7,zero
    10e8:	000bea80 	call	bea8 <__ledf2>
    10ec:	da003d17 	ldw	r8,244(sp)
    10f0:	1005be16 	blt	r2,zero,27ec <___vfprintf_internal_r+0x1d1c>
    10f4:	df002783 	ldbu	fp,158(sp)
    10f8:	008011c4 	movi	r2,71
    10fc:	1445330e 	bge	r2,r17,25cc <___vfprintf_internal_r+0x1afc>
    1100:	04000074 	movhi	r16,1
    1104:	84028904 	addi	r16,r16,2596
    1108:	00c000c4 	movi	r3,3
    110c:	00bfdfc4 	movi	r2,-129
    1110:	d8c02a15 	stw	r3,168(sp)
    1114:	90a4703a 	and	r18,r18,r2
    1118:	d8c02e15 	stw	r3,184(sp)
    111c:	d8002915 	stw	zero,164(sp)
    1120:	d8003215 	stw	zero,200(sp)
    1124:	00003706 	br	1204 <___vfprintf_internal_r+0x734>
    1128:	94800214 	ori	r18,r18,8
    112c:	ac400007 	ldb	r17,0(r21)
    1130:	003ec806 	br	c54 <__alt_mem_ARM_A9_HPS_axi_sdram+0xc0000c54>
    1134:	18c03fcc 	andi	r3,r3,255
    1138:	1806db1e 	bne	r3,zero,2ca8 <___vfprintf_internal_r+0x21d8>
    113c:	94800414 	ori	r18,r18,16
    1140:	9080080c 	andi	r2,r18,32
    1144:	1002d826 	beq	r2,zero,1ca8 <___vfprintf_internal_r+0x11d8>
    1148:	d9402d17 	ldw	r5,180(sp)
    114c:	d8c02917 	ldw	r3,164(sp)
    1150:	d8002785 	stb	zero,158(sp)
    1154:	28800204 	addi	r2,r5,8
    1158:	2cc00017 	ldw	r19,0(r5)
    115c:	2d800117 	ldw	r22,4(r5)
    1160:	18048f16 	blt	r3,zero,23a0 <___vfprintf_internal_r+0x18d0>
    1164:	013fdfc4 	movi	r4,-129
    1168:	9d86b03a 	or	r3,r19,r22
    116c:	d8802d15 	stw	r2,180(sp)
    1170:	9124703a 	and	r18,r18,r4
    1174:	1802d91e 	bne	r3,zero,1cdc <___vfprintf_internal_r+0x120c>
    1178:	d8c02917 	ldw	r3,164(sp)
    117c:	0039883a 	mov	fp,zero
    1180:	1805c326 	beq	r3,zero,2890 <___vfprintf_internal_r+0x1dc0>
    1184:	0027883a 	mov	r19,zero
    1188:	002d883a 	mov	r22,zero
    118c:	dc001e04 	addi	r16,sp,120
    1190:	9806d0fa 	srli	r3,r19,3
    1194:	b008977a 	slli	r4,r22,29
    1198:	b02cd0fa 	srli	r22,r22,3
    119c:	9cc001cc 	andi	r19,r19,7
    11a0:	98800c04 	addi	r2,r19,48
    11a4:	843fffc4 	addi	r16,r16,-1
    11a8:	20e6b03a 	or	r19,r4,r3
    11ac:	80800005 	stb	r2,0(r16)
    11b0:	9d86b03a 	or	r3,r19,r22
    11b4:	183ff61e 	bne	r3,zero,1190 <__alt_mem_ARM_A9_HPS_axi_sdram+0xc0001190>
    11b8:	90c0004c 	andi	r3,r18,1
    11bc:	18013b26 	beq	r3,zero,16ac <___vfprintf_internal_r+0xbdc>
    11c0:	10803fcc 	andi	r2,r2,255
    11c4:	1080201c 	xori	r2,r2,128
    11c8:	10bfe004 	addi	r2,r2,-128
    11cc:	00c00c04 	movi	r3,48
    11d0:	10c13626 	beq	r2,r3,16ac <___vfprintf_internal_r+0xbdc>
    11d4:	80ffffc5 	stb	r3,-1(r16)
    11d8:	d8c02817 	ldw	r3,160(sp)
    11dc:	80bfffc4 	addi	r2,r16,-1
    11e0:	1021883a 	mov	r16,r2
    11e4:	1887c83a 	sub	r3,r3,r2
    11e8:	d8c02e15 	stw	r3,184(sp)
    11ec:	d8802e17 	ldw	r2,184(sp)
    11f0:	d9002917 	ldw	r4,164(sp)
    11f4:	1100010e 	bge	r2,r4,11fc <___vfprintf_internal_r+0x72c>
    11f8:	2005883a 	mov	r2,r4
    11fc:	d8802a15 	stw	r2,168(sp)
    1200:	d8003215 	stw	zero,200(sp)
    1204:	e7003fcc 	andi	fp,fp,255
    1208:	e700201c 	xori	fp,fp,128
    120c:	e73fe004 	addi	fp,fp,-128
    1210:	e0000326 	beq	fp,zero,1220 <___vfprintf_internal_r+0x750>
    1214:	d8c02a17 	ldw	r3,168(sp)
    1218:	18c00044 	addi	r3,r3,1
    121c:	d8c02a15 	stw	r3,168(sp)
    1220:	90c0008c 	andi	r3,r18,2
    1224:	d8c02b15 	stw	r3,172(sp)
    1228:	18000326 	beq	r3,zero,1238 <___vfprintf_internal_r+0x768>
    122c:	d8c02a17 	ldw	r3,168(sp)
    1230:	18c00084 	addi	r3,r3,2
    1234:	d8c02a15 	stw	r3,168(sp)
    1238:	90c0210c 	andi	r3,r18,132
    123c:	d8c03015 	stw	r3,192(sp)
    1240:	1801a31e 	bne	r3,zero,18d0 <___vfprintf_internal_r+0xe00>
    1244:	d9003117 	ldw	r4,196(sp)
    1248:	d8c02a17 	ldw	r3,168(sp)
    124c:	20e7c83a 	sub	r19,r4,r3
    1250:	04c19f0e 	bge	zero,r19,18d0 <___vfprintf_internal_r+0xe00>
    1254:	02400404 	movi	r9,16
    1258:	d8c02017 	ldw	r3,128(sp)
    125c:	d8801f17 	ldw	r2,124(sp)
    1260:	4cc50d0e 	bge	r9,r19,2698 <___vfprintf_internal_r+0x1bc8>
    1264:	01400074 	movhi	r5,1
    1268:	29429c84 	addi	r5,r5,2674
    126c:	dc403b15 	stw	r17,236(sp)
    1270:	d9403515 	stw	r5,212(sp)
    1274:	9823883a 	mov	r17,r19
    1278:	482d883a 	mov	r22,r9
    127c:	9027883a 	mov	r19,r18
    1280:	070001c4 	movi	fp,7
    1284:	8025883a 	mov	r18,r16
    1288:	dc002c17 	ldw	r16,176(sp)
    128c:	00000306 	br	129c <___vfprintf_internal_r+0x7cc>
    1290:	8c7ffc04 	addi	r17,r17,-16
    1294:	42000204 	addi	r8,r8,8
    1298:	b440130e 	bge	r22,r17,12e8 <___vfprintf_internal_r+0x818>
    129c:	01000074 	movhi	r4,1
    12a0:	18c00404 	addi	r3,r3,16
    12a4:	10800044 	addi	r2,r2,1
    12a8:	21029c84 	addi	r4,r4,2674
    12ac:	41000015 	stw	r4,0(r8)
    12b0:	45800115 	stw	r22,4(r8)
    12b4:	d8c02015 	stw	r3,128(sp)
    12b8:	d8801f15 	stw	r2,124(sp)
    12bc:	e0bff40e 	bge	fp,r2,1290 <__alt_mem_ARM_A9_HPS_axi_sdram+0xc0001290>
    12c0:	d9801e04 	addi	r6,sp,120
    12c4:	b80b883a 	mov	r5,r23
    12c8:	8009883a 	mov	r4,r16
    12cc:	00080cc0 	call	80cc <__sprint_r>
    12d0:	103f011e 	bne	r2,zero,ed8 <__alt_mem_ARM_A9_HPS_axi_sdram+0xc0000ed8>
    12d4:	8c7ffc04 	addi	r17,r17,-16
    12d8:	d8c02017 	ldw	r3,128(sp)
    12dc:	d8801f17 	ldw	r2,124(sp)
    12e0:	da000404 	addi	r8,sp,16
    12e4:	b47fed16 	blt	r22,r17,129c <__alt_mem_ARM_A9_HPS_axi_sdram+0xc000129c>
    12e8:	9021883a 	mov	r16,r18
    12ec:	9825883a 	mov	r18,r19
    12f0:	8827883a 	mov	r19,r17
    12f4:	dc403b17 	ldw	r17,236(sp)
    12f8:	d9403517 	ldw	r5,212(sp)
    12fc:	98c7883a 	add	r3,r19,r3
    1300:	10800044 	addi	r2,r2,1
    1304:	41400015 	stw	r5,0(r8)
    1308:	44c00115 	stw	r19,4(r8)
    130c:	d8c02015 	stw	r3,128(sp)
    1310:	d8801f15 	stw	r2,124(sp)
    1314:	010001c4 	movi	r4,7
    1318:	2082a316 	blt	r4,r2,1da8 <___vfprintf_internal_r+0x12d8>
    131c:	df002787 	ldb	fp,158(sp)
    1320:	42000204 	addi	r8,r8,8
    1324:	e0000c26 	beq	fp,zero,1358 <___vfprintf_internal_r+0x888>
    1328:	d8801f17 	ldw	r2,124(sp)
    132c:	d9002784 	addi	r4,sp,158
    1330:	18c00044 	addi	r3,r3,1
    1334:	10800044 	addi	r2,r2,1
    1338:	41000015 	stw	r4,0(r8)
    133c:	01000044 	movi	r4,1
    1340:	41000115 	stw	r4,4(r8)
    1344:	d8c02015 	stw	r3,128(sp)
    1348:	d8801f15 	stw	r2,124(sp)
    134c:	010001c4 	movi	r4,7
    1350:	20823c16 	blt	r4,r2,1c44 <___vfprintf_internal_r+0x1174>
    1354:	42000204 	addi	r8,r8,8
    1358:	d8802b17 	ldw	r2,172(sp)
    135c:	10000c26 	beq	r2,zero,1390 <___vfprintf_internal_r+0x8c0>
    1360:	d8801f17 	ldw	r2,124(sp)
    1364:	d9002704 	addi	r4,sp,156
    1368:	18c00084 	addi	r3,r3,2
    136c:	10800044 	addi	r2,r2,1
    1370:	41000015 	stw	r4,0(r8)
    1374:	01000084 	movi	r4,2
    1378:	41000115 	stw	r4,4(r8)
    137c:	d8c02015 	stw	r3,128(sp)
    1380:	d8801f15 	stw	r2,124(sp)
    1384:	010001c4 	movi	r4,7
    1388:	20823616 	blt	r4,r2,1c64 <___vfprintf_internal_r+0x1194>
    138c:	42000204 	addi	r8,r8,8
    1390:	d9003017 	ldw	r4,192(sp)
    1394:	00802004 	movi	r2,128
    1398:	20819926 	beq	r4,r2,1a00 <___vfprintf_internal_r+0xf30>
    139c:	d9402917 	ldw	r5,164(sp)
    13a0:	d8802e17 	ldw	r2,184(sp)
    13a4:	28adc83a 	sub	r22,r5,r2
    13a8:	0580310e 	bge	zero,r22,1470 <___vfprintf_internal_r+0x9a0>
    13ac:	07000404 	movi	fp,16
    13b0:	d8801f17 	ldw	r2,124(sp)
    13b4:	e584140e 	bge	fp,r22,2408 <___vfprintf_internal_r+0x1938>
    13b8:	01400074 	movhi	r5,1
    13bc:	29429884 	addi	r5,r5,2658
    13c0:	dc402915 	stw	r17,164(sp)
    13c4:	d9402b15 	stw	r5,172(sp)
    13c8:	b023883a 	mov	r17,r22
    13cc:	04c001c4 	movi	r19,7
    13d0:	a82d883a 	mov	r22,r21
    13d4:	902b883a 	mov	r21,r18
    13d8:	8025883a 	mov	r18,r16
    13dc:	dc002c17 	ldw	r16,176(sp)
    13e0:	00000306 	br	13f0 <___vfprintf_internal_r+0x920>
    13e4:	8c7ffc04 	addi	r17,r17,-16
    13e8:	42000204 	addi	r8,r8,8
    13ec:	e440110e 	bge	fp,r17,1434 <___vfprintf_internal_r+0x964>
    13f0:	18c00404 	addi	r3,r3,16
    13f4:	10800044 	addi	r2,r2,1
    13f8:	45000015 	stw	r20,0(r8)
    13fc:	47000115 	stw	fp,4(r8)
    1400:	d8c02015 	stw	r3,128(sp)
    1404:	d8801f15 	stw	r2,124(sp)
    1408:	98bff60e 	bge	r19,r2,13e4 <__alt_mem_ARM_A9_HPS_axi_sdram+0xc00013e4>
    140c:	d9801e04 	addi	r6,sp,120
    1410:	b80b883a 	mov	r5,r23
    1414:	8009883a 	mov	r4,r16
    1418:	00080cc0 	call	80cc <__sprint_r>
    141c:	103eae1e 	bne	r2,zero,ed8 <__alt_mem_ARM_A9_HPS_axi_sdram+0xc0000ed8>
    1420:	8c7ffc04 	addi	r17,r17,-16
    1424:	d8c02017 	ldw	r3,128(sp)
    1428:	d8801f17 	ldw	r2,124(sp)
    142c:	da000404 	addi	r8,sp,16
    1430:	e47fef16 	blt	fp,r17,13f0 <__alt_mem_ARM_A9_HPS_axi_sdram+0xc00013f0>
    1434:	9021883a 	mov	r16,r18
    1438:	a825883a 	mov	r18,r21
    143c:	b02b883a 	mov	r21,r22
    1440:	882d883a 	mov	r22,r17
    1444:	dc402917 	ldw	r17,164(sp)
    1448:	d9002b17 	ldw	r4,172(sp)
    144c:	1d87883a 	add	r3,r3,r22
    1450:	10800044 	addi	r2,r2,1
    1454:	41000015 	stw	r4,0(r8)
    1458:	45800115 	stw	r22,4(r8)
    145c:	d8c02015 	stw	r3,128(sp)
    1460:	d8801f15 	stw	r2,124(sp)
    1464:	010001c4 	movi	r4,7
    1468:	2081ee16 	blt	r4,r2,1c24 <___vfprintf_internal_r+0x1154>
    146c:	42000204 	addi	r8,r8,8
    1470:	9080400c 	andi	r2,r18,256
    1474:	1001181e 	bne	r2,zero,18d8 <___vfprintf_internal_r+0xe08>
    1478:	d9402e17 	ldw	r5,184(sp)
    147c:	d8801f17 	ldw	r2,124(sp)
    1480:	44000015 	stw	r16,0(r8)
    1484:	1947883a 	add	r3,r3,r5
    1488:	10800044 	addi	r2,r2,1
    148c:	41400115 	stw	r5,4(r8)
    1490:	d8c02015 	stw	r3,128(sp)
    1494:	d8801f15 	stw	r2,124(sp)
    1498:	010001c4 	movi	r4,7
    149c:	2081d316 	blt	r4,r2,1bec <___vfprintf_internal_r+0x111c>
    14a0:	42000204 	addi	r8,r8,8
    14a4:	9480010c 	andi	r18,r18,4
    14a8:	90003226 	beq	r18,zero,1574 <___vfprintf_internal_r+0xaa4>
    14ac:	d9403117 	ldw	r5,196(sp)
    14b0:	d8802a17 	ldw	r2,168(sp)
    14b4:	28a1c83a 	sub	r16,r5,r2
    14b8:	04002e0e 	bge	zero,r16,1574 <___vfprintf_internal_r+0xaa4>
    14bc:	04400404 	movi	r17,16
    14c0:	d8801f17 	ldw	r2,124(sp)
    14c4:	8c04a20e 	bge	r17,r16,2750 <___vfprintf_internal_r+0x1c80>
    14c8:	01400074 	movhi	r5,1
    14cc:	29429c84 	addi	r5,r5,2674
    14d0:	d9403515 	stw	r5,212(sp)
    14d4:	048001c4 	movi	r18,7
    14d8:	dcc02c17 	ldw	r19,176(sp)
    14dc:	00000306 	br	14ec <___vfprintf_internal_r+0xa1c>
    14e0:	843ffc04 	addi	r16,r16,-16
    14e4:	42000204 	addi	r8,r8,8
    14e8:	8c00130e 	bge	r17,r16,1538 <___vfprintf_internal_r+0xa68>
    14ec:	01000074 	movhi	r4,1
    14f0:	18c00404 	addi	r3,r3,16
    14f4:	10800044 	addi	r2,r2,1
    14f8:	21029c84 	addi	r4,r4,2674
    14fc:	41000015 	stw	r4,0(r8)
    1500:	44400115 	stw	r17,4(r8)
    1504:	d8c02015 	stw	r3,128(sp)
    1508:	d8801f15 	stw	r2,124(sp)
    150c:	90bff40e 	bge	r18,r2,14e0 <__alt_mem_ARM_A9_HPS_axi_sdram+0xc00014e0>
    1510:	d9801e04 	addi	r6,sp,120
    1514:	b80b883a 	mov	r5,r23
    1518:	9809883a 	mov	r4,r19
    151c:	00080cc0 	call	80cc <__sprint_r>
    1520:	103e6d1e 	bne	r2,zero,ed8 <__alt_mem_ARM_A9_HPS_axi_sdram+0xc0000ed8>
    1524:	843ffc04 	addi	r16,r16,-16
    1528:	d8c02017 	ldw	r3,128(sp)
    152c:	d8801f17 	ldw	r2,124(sp)
    1530:	da000404 	addi	r8,sp,16
    1534:	8c3fed16 	blt	r17,r16,14ec <__alt_mem_ARM_A9_HPS_axi_sdram+0xc00014ec>
    1538:	d9403517 	ldw	r5,212(sp)
    153c:	1c07883a 	add	r3,r3,r16
    1540:	10800044 	addi	r2,r2,1
    1544:	41400015 	stw	r5,0(r8)
    1548:	44000115 	stw	r16,4(r8)
    154c:	d8c02015 	stw	r3,128(sp)
    1550:	d8801f15 	stw	r2,124(sp)
    1554:	010001c4 	movi	r4,7
    1558:	2080060e 	bge	r4,r2,1574 <___vfprintf_internal_r+0xaa4>
    155c:	d9002c17 	ldw	r4,176(sp)
    1560:	d9801e04 	addi	r6,sp,120
    1564:	b80b883a 	mov	r5,r23
    1568:	00080cc0 	call	80cc <__sprint_r>
    156c:	103e5a1e 	bne	r2,zero,ed8 <__alt_mem_ARM_A9_HPS_axi_sdram+0xc0000ed8>
    1570:	d8c02017 	ldw	r3,128(sp)
    1574:	d8803117 	ldw	r2,196(sp)
    1578:	d9002a17 	ldw	r4,168(sp)
    157c:	1100010e 	bge	r2,r4,1584 <___vfprintf_internal_r+0xab4>
    1580:	2005883a 	mov	r2,r4
    1584:	d9402f17 	ldw	r5,188(sp)
    1588:	288b883a 	add	r5,r5,r2
    158c:	d9402f15 	stw	r5,188(sp)
    1590:	18019e1e 	bne	r3,zero,1c0c <___vfprintf_internal_r+0x113c>
    1594:	a8800007 	ldb	r2,0(r21)
    1598:	d8001f15 	stw	zero,124(sp)
    159c:	da000404 	addi	r8,sp,16
    15a0:	103d851e 	bne	r2,zero,bb8 <__alt_mem_ARM_A9_HPS_axi_sdram+0xc0000bb8>
    15a4:	a821883a 	mov	r16,r21
    15a8:	003d9b06 	br	c18 <__alt_mem_ARM_A9_HPS_axi_sdram+0xc0000c18>
    15ac:	18c03fcc 	andi	r3,r3,255
    15b0:	1805c11e 	bne	r3,zero,2cb8 <___vfprintf_internal_r+0x21e8>
    15b4:	94800414 	ori	r18,r18,16
    15b8:	9080080c 	andi	r2,r18,32
    15bc:	10020c26 	beq	r2,zero,1df0 <___vfprintf_internal_r+0x1320>
    15c0:	d8802d17 	ldw	r2,180(sp)
    15c4:	d9002917 	ldw	r4,164(sp)
    15c8:	d8002785 	stb	zero,158(sp)
    15cc:	10c00204 	addi	r3,r2,8
    15d0:	14c00017 	ldw	r19,0(r2)
    15d4:	15800117 	ldw	r22,4(r2)
    15d8:	20040f16 	blt	r4,zero,2618 <___vfprintf_internal_r+0x1b48>
    15dc:	013fdfc4 	movi	r4,-129
    15e0:	9d84b03a 	or	r2,r19,r22
    15e4:	d8c02d15 	stw	r3,180(sp)
    15e8:	9124703a 	and	r18,r18,r4
    15ec:	0039883a 	mov	fp,zero
    15f0:	103e891e 	bne	r2,zero,1018 <__alt_mem_ARM_A9_HPS_axi_sdram+0xc0001018>
    15f4:	d9002917 	ldw	r4,164(sp)
    15f8:	2002c11e 	bne	r4,zero,2100 <___vfprintf_internal_r+0x1630>
    15fc:	d8002915 	stw	zero,164(sp)
    1600:	d8002e15 	stw	zero,184(sp)
    1604:	dc001e04 	addi	r16,sp,120
    1608:	003ef806 	br	11ec <__alt_mem_ARM_A9_HPS_axi_sdram+0xc00011ec>
    160c:	18c03fcc 	andi	r3,r3,255
    1610:	18059d1e 	bne	r3,zero,2c88 <___vfprintf_internal_r+0x21b8>
    1614:	01400074 	movhi	r5,1
    1618:	29428c04 	addi	r5,r5,2608
    161c:	d9403915 	stw	r5,228(sp)
    1620:	9080080c 	andi	r2,r18,32
    1624:	10005226 	beq	r2,zero,1770 <___vfprintf_internal_r+0xca0>
    1628:	d8802d17 	ldw	r2,180(sp)
    162c:	14c00017 	ldw	r19,0(r2)
    1630:	15800117 	ldw	r22,4(r2)
    1634:	10800204 	addi	r2,r2,8
    1638:	d8802d15 	stw	r2,180(sp)
    163c:	9080004c 	andi	r2,r18,1
    1640:	10019026 	beq	r2,zero,1c84 <___vfprintf_internal_r+0x11b4>
    1644:	9d84b03a 	or	r2,r19,r22
    1648:	10036926 	beq	r2,zero,23f0 <___vfprintf_internal_r+0x1920>
    164c:	d8c02917 	ldw	r3,164(sp)
    1650:	00800c04 	movi	r2,48
    1654:	d8802705 	stb	r2,156(sp)
    1658:	dc402745 	stb	r17,157(sp)
    165c:	d8002785 	stb	zero,158(sp)
    1660:	90800094 	ori	r2,r18,2
    1664:	18045d16 	blt	r3,zero,27dc <___vfprintf_internal_r+0x1d0c>
    1668:	00bfdfc4 	movi	r2,-129
    166c:	90a4703a 	and	r18,r18,r2
    1670:	94800094 	ori	r18,r18,2
    1674:	0039883a 	mov	fp,zero
    1678:	d9003917 	ldw	r4,228(sp)
    167c:	dc001e04 	addi	r16,sp,120
    1680:	988003cc 	andi	r2,r19,15
    1684:	b006973a 	slli	r3,r22,28
    1688:	2085883a 	add	r2,r4,r2
    168c:	9826d13a 	srli	r19,r19,4
    1690:	10800003 	ldbu	r2,0(r2)
    1694:	b02cd13a 	srli	r22,r22,4
    1698:	843fffc4 	addi	r16,r16,-1
    169c:	1ce6b03a 	or	r19,r3,r19
    16a0:	80800005 	stb	r2,0(r16)
    16a4:	9d84b03a 	or	r2,r19,r22
    16a8:	103ff51e 	bne	r2,zero,1680 <__alt_mem_ARM_A9_HPS_axi_sdram+0xc0001680>
    16ac:	d8c02817 	ldw	r3,160(sp)
    16b0:	1c07c83a 	sub	r3,r3,r16
    16b4:	d8c02e15 	stw	r3,184(sp)
    16b8:	003ecc06 	br	11ec <__alt_mem_ARM_A9_HPS_axi_sdram+0xc00011ec>
    16bc:	18c03fcc 	andi	r3,r3,255
    16c0:	183e9f26 	beq	r3,zero,1140 <__alt_mem_ARM_A9_HPS_axi_sdram+0xc0001140>
    16c4:	d9c02785 	stb	r7,158(sp)
    16c8:	003e9d06 	br	1140 <__alt_mem_ARM_A9_HPS_axi_sdram+0xc0001140>
    16cc:	00c00044 	movi	r3,1
    16d0:	01c00ac4 	movi	r7,43
    16d4:	ac400007 	ldb	r17,0(r21)
    16d8:	003d5e06 	br	c54 <__alt_mem_ARM_A9_HPS_axi_sdram+0xc0000c54>
    16dc:	94800814 	ori	r18,r18,32
    16e0:	ac400007 	ldb	r17,0(r21)
    16e4:	003d5b06 	br	c54 <__alt_mem_ARM_A9_HPS_axi_sdram+0xc0000c54>
    16e8:	d8c02d17 	ldw	r3,180(sp)
    16ec:	d8002785 	stb	zero,158(sp)
    16f0:	1c000017 	ldw	r16,0(r3)
    16f4:	1cc00104 	addi	r19,r3,4
    16f8:	80041926 	beq	r16,zero,2760 <___vfprintf_internal_r+0x1c90>
    16fc:	d9002917 	ldw	r4,164(sp)
    1700:	2003d016 	blt	r4,zero,2644 <___vfprintf_internal_r+0x1b74>
    1704:	200d883a 	mov	r6,r4
    1708:	000b883a 	mov	r5,zero
    170c:	8009883a 	mov	r4,r16
    1710:	da003d15 	stw	r8,244(sp)
    1714:	00062e00 	call	62e0 <memchr>
    1718:	da003d17 	ldw	r8,244(sp)
    171c:	10045426 	beq	r2,zero,2870 <___vfprintf_internal_r+0x1da0>
    1720:	1405c83a 	sub	r2,r2,r16
    1724:	d8802e15 	stw	r2,184(sp)
    1728:	1003cc16 	blt	r2,zero,265c <___vfprintf_internal_r+0x1b8c>
    172c:	df002783 	ldbu	fp,158(sp)
    1730:	d8802a15 	stw	r2,168(sp)
    1734:	dcc02d15 	stw	r19,180(sp)
    1738:	d8002915 	stw	zero,164(sp)
    173c:	d8003215 	stw	zero,200(sp)
    1740:	003eb006 	br	1204 <__alt_mem_ARM_A9_HPS_axi_sdram+0xc0001204>
    1744:	18c03fcc 	andi	r3,r3,255
    1748:	183f9b26 	beq	r3,zero,15b8 <__alt_mem_ARM_A9_HPS_axi_sdram+0xc00015b8>
    174c:	d9c02785 	stb	r7,158(sp)
    1750:	003f9906 	br	15b8 <__alt_mem_ARM_A9_HPS_axi_sdram+0xc00015b8>
    1754:	18c03fcc 	andi	r3,r3,255
    1758:	1805551e 	bne	r3,zero,2cb0 <___vfprintf_internal_r+0x21e0>
    175c:	01400074 	movhi	r5,1
    1760:	29429104 	addi	r5,r5,2628
    1764:	d9403915 	stw	r5,228(sp)
    1768:	9080080c 	andi	r2,r18,32
    176c:	103fae1e 	bne	r2,zero,1628 <__alt_mem_ARM_A9_HPS_axi_sdram+0xc0001628>
    1770:	9080040c 	andi	r2,r18,16
    1774:	1002de26 	beq	r2,zero,22f0 <___vfprintf_internal_r+0x1820>
    1778:	d8c02d17 	ldw	r3,180(sp)
    177c:	002d883a 	mov	r22,zero
    1780:	1cc00017 	ldw	r19,0(r3)
    1784:	18c00104 	addi	r3,r3,4
    1788:	d8c02d15 	stw	r3,180(sp)
    178c:	003fab06 	br	163c <__alt_mem_ARM_A9_HPS_axi_sdram+0xc000163c>
    1790:	38803fcc 	andi	r2,r7,255
    1794:	1080201c 	xori	r2,r2,128
    1798:	10bfe004 	addi	r2,r2,-128
    179c:	1002d21e 	bne	r2,zero,22e8 <___vfprintf_internal_r+0x1818>
    17a0:	00c00044 	movi	r3,1
    17a4:	01c00804 	movi	r7,32
    17a8:	ac400007 	ldb	r17,0(r21)
    17ac:	003d2906 	br	c54 <__alt_mem_ARM_A9_HPS_axi_sdram+0xc0000c54>
    17b0:	94800054 	ori	r18,r18,1
    17b4:	ac400007 	ldb	r17,0(r21)
    17b8:	003d2606 	br	c54 <__alt_mem_ARM_A9_HPS_axi_sdram+0xc0000c54>
    17bc:	18c03fcc 	andi	r3,r3,255
    17c0:	183e0526 	beq	r3,zero,fd8 <__alt_mem_ARM_A9_HPS_axi_sdram+0xc0000fd8>
    17c4:	d9c02785 	stb	r7,158(sp)
    17c8:	003e0306 	br	fd8 <__alt_mem_ARM_A9_HPS_axi_sdram+0xc0000fd8>
    17cc:	94801014 	ori	r18,r18,64
    17d0:	ac400007 	ldb	r17,0(r21)
    17d4:	003d1f06 	br	c54 <__alt_mem_ARM_A9_HPS_axi_sdram+0xc0000c54>
    17d8:	ac400007 	ldb	r17,0(r21)
    17dc:	8a438726 	beq	r17,r9,25fc <___vfprintf_internal_r+0x1b2c>
    17e0:	94800414 	ori	r18,r18,16
    17e4:	003d1b06 	br	c54 <__alt_mem_ARM_A9_HPS_axi_sdram+0xc0000c54>
    17e8:	18c03fcc 	andi	r3,r3,255
    17ec:	1805341e 	bne	r3,zero,2cc0 <___vfprintf_internal_r+0x21f0>
    17f0:	9080080c 	andi	r2,r18,32
    17f4:	1002cd26 	beq	r2,zero,232c <___vfprintf_internal_r+0x185c>
    17f8:	d9402d17 	ldw	r5,180(sp)
    17fc:	d9002f17 	ldw	r4,188(sp)
    1800:	28800017 	ldw	r2,0(r5)
    1804:	2007d7fa 	srai	r3,r4,31
    1808:	29400104 	addi	r5,r5,4
    180c:	d9402d15 	stw	r5,180(sp)
    1810:	11000015 	stw	r4,0(r2)
    1814:	10c00115 	stw	r3,4(r2)
    1818:	003ce506 	br	bb0 <__alt_mem_ARM_A9_HPS_axi_sdram+0xc0000bb0>
    181c:	d8c02d17 	ldw	r3,180(sp)
    1820:	d9002d17 	ldw	r4,180(sp)
    1824:	d8002785 	stb	zero,158(sp)
    1828:	18800017 	ldw	r2,0(r3)
    182c:	21000104 	addi	r4,r4,4
    1830:	00c00044 	movi	r3,1
    1834:	d8c02a15 	stw	r3,168(sp)
    1838:	d8801405 	stb	r2,80(sp)
    183c:	d9002d15 	stw	r4,180(sp)
    1840:	d8c02e15 	stw	r3,184(sp)
    1844:	d8002915 	stw	zero,164(sp)
    1848:	d8003215 	stw	zero,200(sp)
    184c:	dc001404 	addi	r16,sp,80
    1850:	0039883a 	mov	fp,zero
    1854:	003e7206 	br	1220 <__alt_mem_ARM_A9_HPS_axi_sdram+0xc0001220>
    1858:	01000074 	movhi	r4,1
    185c:	21029104 	addi	r4,r4,2628
    1860:	0039883a 	mov	fp,zero
    1864:	d9003915 	stw	r4,228(sp)
    1868:	04401e04 	movi	r17,120
    186c:	003f8206 	br	1678 <__alt_mem_ARM_A9_HPS_axi_sdram+0xc0001678>
    1870:	18c03fcc 	andi	r3,r3,255
    1874:	1805061e 	bne	r3,zero,2c90 <___vfprintf_internal_r+0x21c0>
    1878:	883d9126 	beq	r17,zero,ec0 <__alt_mem_ARM_A9_HPS_axi_sdram+0xc0000ec0>
    187c:	00c00044 	movi	r3,1
    1880:	d8c02a15 	stw	r3,168(sp)
    1884:	dc401405 	stb	r17,80(sp)
    1888:	d8002785 	stb	zero,158(sp)
    188c:	003fec06 	br	1840 <__alt_mem_ARM_A9_HPS_axi_sdram+0xc0001840>
    1890:	01400074 	movhi	r5,1
    1894:	29429104 	addi	r5,r5,2628
    1898:	d9403915 	stw	r5,228(sp)
    189c:	d8c02d15 	stw	r3,180(sp)
    18a0:	1025883a 	mov	r18,r2
    18a4:	04401e04 	movi	r17,120
    18a8:	9d84b03a 	or	r2,r19,r22
    18ac:	1000fc1e 	bne	r2,zero,1ca0 <___vfprintf_internal_r+0x11d0>
    18b0:	0039883a 	mov	fp,zero
    18b4:	00800084 	movi	r2,2
    18b8:	10803fcc 	andi	r2,r2,255
    18bc:	00c00044 	movi	r3,1
    18c0:	10c20f26 	beq	r2,r3,2100 <___vfprintf_internal_r+0x1630>
    18c4:	00c00084 	movi	r3,2
    18c8:	10fd6326 	beq	r2,r3,e58 <__alt_mem_ARM_A9_HPS_axi_sdram+0xc0000e58>
    18cc:	003e2d06 	br	1184 <__alt_mem_ARM_A9_HPS_axi_sdram+0xc0001184>
    18d0:	d8c02017 	ldw	r3,128(sp)
    18d4:	003e9306 	br	1324 <__alt_mem_ARM_A9_HPS_axi_sdram+0xc0001324>
    18d8:	00801944 	movi	r2,101
    18dc:	14407e0e 	bge	r2,r17,1ad8 <___vfprintf_internal_r+0x1008>
    18e0:	d9003617 	ldw	r4,216(sp)
    18e4:	d9403817 	ldw	r5,224(sp)
    18e8:	000d883a 	mov	r6,zero
    18ec:	000f883a 	mov	r7,zero
    18f0:	d8c03c15 	stw	r3,240(sp)
    18f4:	da003d15 	stw	r8,244(sp)
    18f8:	000bd440 	call	bd44 <__eqdf2>
    18fc:	d8c03c17 	ldw	r3,240(sp)
    1900:	da003d17 	ldw	r8,244(sp)
    1904:	1000f71e 	bne	r2,zero,1ce4 <___vfprintf_internal_r+0x1214>
    1908:	d8801f17 	ldw	r2,124(sp)
    190c:	01000074 	movhi	r4,1
    1910:	21029804 	addi	r4,r4,2656
    1914:	18c00044 	addi	r3,r3,1
    1918:	10800044 	addi	r2,r2,1
    191c:	41000015 	stw	r4,0(r8)
    1920:	01000044 	movi	r4,1
    1924:	41000115 	stw	r4,4(r8)
    1928:	d8c02015 	stw	r3,128(sp)
    192c:	d8801f15 	stw	r2,124(sp)
    1930:	010001c4 	movi	r4,7
    1934:	2082b816 	blt	r4,r2,2418 <___vfprintf_internal_r+0x1948>
    1938:	42000204 	addi	r8,r8,8
    193c:	d8802617 	ldw	r2,152(sp)
    1940:	d9403317 	ldw	r5,204(sp)
    1944:	11400216 	blt	r2,r5,1950 <___vfprintf_internal_r+0xe80>
    1948:	9080004c 	andi	r2,r18,1
    194c:	103ed526 	beq	r2,zero,14a4 <__alt_mem_ARM_A9_HPS_axi_sdram+0xc00014a4>
    1950:	d8803717 	ldw	r2,220(sp)
    1954:	d9003417 	ldw	r4,208(sp)
    1958:	d9403717 	ldw	r5,220(sp)
    195c:	1887883a 	add	r3,r3,r2
    1960:	d8801f17 	ldw	r2,124(sp)
    1964:	41000015 	stw	r4,0(r8)
    1968:	41400115 	stw	r5,4(r8)
    196c:	10800044 	addi	r2,r2,1
    1970:	d8c02015 	stw	r3,128(sp)
    1974:	d8801f15 	stw	r2,124(sp)
    1978:	010001c4 	movi	r4,7
    197c:	20832916 	blt	r4,r2,2624 <___vfprintf_internal_r+0x1b54>
    1980:	42000204 	addi	r8,r8,8
    1984:	d8803317 	ldw	r2,204(sp)
    1988:	143fffc4 	addi	r16,r2,-1
    198c:	043ec50e 	bge	zero,r16,14a4 <__alt_mem_ARM_A9_HPS_axi_sdram+0xc00014a4>
    1990:	04400404 	movi	r17,16
    1994:	d8801f17 	ldw	r2,124(sp)
    1998:	8c00880e 	bge	r17,r16,1bbc <___vfprintf_internal_r+0x10ec>
    199c:	01400074 	movhi	r5,1
    19a0:	29429884 	addi	r5,r5,2658
    19a4:	d9402b15 	stw	r5,172(sp)
    19a8:	058001c4 	movi	r22,7
    19ac:	dcc02c17 	ldw	r19,176(sp)
    19b0:	00000306 	br	19c0 <___vfprintf_internal_r+0xef0>
    19b4:	42000204 	addi	r8,r8,8
    19b8:	843ffc04 	addi	r16,r16,-16
    19bc:	8c00820e 	bge	r17,r16,1bc8 <___vfprintf_internal_r+0x10f8>
    19c0:	18c00404 	addi	r3,r3,16
    19c4:	10800044 	addi	r2,r2,1
    19c8:	45000015 	stw	r20,0(r8)
    19cc:	44400115 	stw	r17,4(r8)
    19d0:	d8c02015 	stw	r3,128(sp)
    19d4:	d8801f15 	stw	r2,124(sp)
    19d8:	b0bff60e 	bge	r22,r2,19b4 <__alt_mem_ARM_A9_HPS_axi_sdram+0xc00019b4>
    19dc:	d9801e04 	addi	r6,sp,120
    19e0:	b80b883a 	mov	r5,r23
    19e4:	9809883a 	mov	r4,r19
    19e8:	00080cc0 	call	80cc <__sprint_r>
    19ec:	103d3a1e 	bne	r2,zero,ed8 <__alt_mem_ARM_A9_HPS_axi_sdram+0xc0000ed8>
    19f0:	d8c02017 	ldw	r3,128(sp)
    19f4:	d8801f17 	ldw	r2,124(sp)
    19f8:	da000404 	addi	r8,sp,16
    19fc:	003fee06 	br	19b8 <__alt_mem_ARM_A9_HPS_axi_sdram+0xc00019b8>
    1a00:	d9403117 	ldw	r5,196(sp)
    1a04:	d8802a17 	ldw	r2,168(sp)
    1a08:	28adc83a 	sub	r22,r5,r2
    1a0c:	05be630e 	bge	zero,r22,139c <__alt_mem_ARM_A9_HPS_axi_sdram+0xc000139c>
    1a10:	07000404 	movi	fp,16
    1a14:	d8801f17 	ldw	r2,124(sp)
    1a18:	e5838f0e 	bge	fp,r22,2858 <___vfprintf_internal_r+0x1d88>
    1a1c:	01400074 	movhi	r5,1
    1a20:	29429884 	addi	r5,r5,2658
    1a24:	dc403015 	stw	r17,192(sp)
    1a28:	d9402b15 	stw	r5,172(sp)
    1a2c:	b023883a 	mov	r17,r22
    1a30:	04c001c4 	movi	r19,7
    1a34:	a82d883a 	mov	r22,r21
    1a38:	902b883a 	mov	r21,r18
    1a3c:	8025883a 	mov	r18,r16
    1a40:	dc002c17 	ldw	r16,176(sp)
    1a44:	00000306 	br	1a54 <___vfprintf_internal_r+0xf84>
    1a48:	8c7ffc04 	addi	r17,r17,-16
    1a4c:	42000204 	addi	r8,r8,8
    1a50:	e440110e 	bge	fp,r17,1a98 <___vfprintf_internal_r+0xfc8>
    1a54:	18c00404 	addi	r3,r3,16
    1a58:	10800044 	addi	r2,r2,1
    1a5c:	45000015 	stw	r20,0(r8)
    1a60:	47000115 	stw	fp,4(r8)
    1a64:	d8c02015 	stw	r3,128(sp)
    1a68:	d8801f15 	stw	r2,124(sp)
    1a6c:	98bff60e 	bge	r19,r2,1a48 <__alt_mem_ARM_A9_HPS_axi_sdram+0xc0001a48>
    1a70:	d9801e04 	addi	r6,sp,120
    1a74:	b80b883a 	mov	r5,r23
    1a78:	8009883a 	mov	r4,r16
    1a7c:	00080cc0 	call	80cc <__sprint_r>
    1a80:	103d151e 	bne	r2,zero,ed8 <__alt_mem_ARM_A9_HPS_axi_sdram+0xc0000ed8>
    1a84:	8c7ffc04 	addi	r17,r17,-16
    1a88:	d8c02017 	ldw	r3,128(sp)
    1a8c:	d8801f17 	ldw	r2,124(sp)
    1a90:	da000404 	addi	r8,sp,16
    1a94:	e47fef16 	blt	fp,r17,1a54 <__alt_mem_ARM_A9_HPS_axi_sdram+0xc0001a54>
    1a98:	9021883a 	mov	r16,r18
    1a9c:	a825883a 	mov	r18,r21
    1aa0:	b02b883a 	mov	r21,r22
    1aa4:	882d883a 	mov	r22,r17
    1aa8:	dc403017 	ldw	r17,192(sp)
    1aac:	d9002b17 	ldw	r4,172(sp)
    1ab0:	1d87883a 	add	r3,r3,r22
    1ab4:	10800044 	addi	r2,r2,1
    1ab8:	41000015 	stw	r4,0(r8)
    1abc:	45800115 	stw	r22,4(r8)
    1ac0:	d8c02015 	stw	r3,128(sp)
    1ac4:	d8801f15 	stw	r2,124(sp)
    1ac8:	010001c4 	movi	r4,7
    1acc:	20818e16 	blt	r4,r2,2108 <___vfprintf_internal_r+0x1638>
    1ad0:	42000204 	addi	r8,r8,8
    1ad4:	003e3106 	br	139c <__alt_mem_ARM_A9_HPS_axi_sdram+0xc000139c>
    1ad8:	d9403317 	ldw	r5,204(sp)
    1adc:	00800044 	movi	r2,1
    1ae0:	18c00044 	addi	r3,r3,1
    1ae4:	1141530e 	bge	r2,r5,2034 <___vfprintf_internal_r+0x1564>
    1ae8:	dc401f17 	ldw	r17,124(sp)
    1aec:	00800044 	movi	r2,1
    1af0:	40800115 	stw	r2,4(r8)
    1af4:	8c400044 	addi	r17,r17,1
    1af8:	44000015 	stw	r16,0(r8)
    1afc:	d8c02015 	stw	r3,128(sp)
    1b00:	dc401f15 	stw	r17,124(sp)
    1b04:	008001c4 	movi	r2,7
    1b08:	14416b16 	blt	r2,r17,20b8 <___vfprintf_internal_r+0x15e8>
    1b0c:	42000204 	addi	r8,r8,8
    1b10:	d8803717 	ldw	r2,220(sp)
    1b14:	d9003417 	ldw	r4,208(sp)
    1b18:	8c400044 	addi	r17,r17,1
    1b1c:	10c7883a 	add	r3,r2,r3
    1b20:	40800115 	stw	r2,4(r8)
    1b24:	41000015 	stw	r4,0(r8)
    1b28:	d8c02015 	stw	r3,128(sp)
    1b2c:	dc401f15 	stw	r17,124(sp)
    1b30:	008001c4 	movi	r2,7
    1b34:	14416916 	blt	r2,r17,20dc <___vfprintf_internal_r+0x160c>
    1b38:	45800204 	addi	r22,r8,8
    1b3c:	d9003617 	ldw	r4,216(sp)
    1b40:	d9403817 	ldw	r5,224(sp)
    1b44:	000d883a 	mov	r6,zero
    1b48:	000f883a 	mov	r7,zero
    1b4c:	d8c03c15 	stw	r3,240(sp)
    1b50:	000bd440 	call	bd44 <__eqdf2>
    1b54:	d8c03c17 	ldw	r3,240(sp)
    1b58:	1000bc26 	beq	r2,zero,1e4c <___vfprintf_internal_r+0x137c>
    1b5c:	d9403317 	ldw	r5,204(sp)
    1b60:	84000044 	addi	r16,r16,1
    1b64:	8c400044 	addi	r17,r17,1
    1b68:	28bfffc4 	addi	r2,r5,-1
    1b6c:	1887883a 	add	r3,r3,r2
    1b70:	b0800115 	stw	r2,4(r22)
    1b74:	b4000015 	stw	r16,0(r22)
    1b78:	d8c02015 	stw	r3,128(sp)
    1b7c:	dc401f15 	stw	r17,124(sp)
    1b80:	008001c4 	movi	r2,7
    1b84:	14414316 	blt	r2,r17,2094 <___vfprintf_internal_r+0x15c4>
    1b88:	b5800204 	addi	r22,r22,8
    1b8c:	d9003a17 	ldw	r4,232(sp)
    1b90:	df0022c4 	addi	fp,sp,139
    1b94:	8c400044 	addi	r17,r17,1
    1b98:	20c7883a 	add	r3,r4,r3
    1b9c:	b7000015 	stw	fp,0(r22)
    1ba0:	b1000115 	stw	r4,4(r22)
    1ba4:	d8c02015 	stw	r3,128(sp)
    1ba8:	dc401f15 	stw	r17,124(sp)
    1bac:	008001c4 	movi	r2,7
    1bb0:	14400e16 	blt	r2,r17,1bec <___vfprintf_internal_r+0x111c>
    1bb4:	b2000204 	addi	r8,r22,8
    1bb8:	003e3a06 	br	14a4 <__alt_mem_ARM_A9_HPS_axi_sdram+0xc00014a4>
    1bbc:	01000074 	movhi	r4,1
    1bc0:	21029884 	addi	r4,r4,2658
    1bc4:	d9002b15 	stw	r4,172(sp)
    1bc8:	d9002b17 	ldw	r4,172(sp)
    1bcc:	1c07883a 	add	r3,r3,r16
    1bd0:	44000115 	stw	r16,4(r8)
    1bd4:	41000015 	stw	r4,0(r8)
    1bd8:	10800044 	addi	r2,r2,1
    1bdc:	d8c02015 	stw	r3,128(sp)
    1be0:	d8801f15 	stw	r2,124(sp)
    1be4:	010001c4 	movi	r4,7
    1be8:	20be2d0e 	bge	r4,r2,14a0 <__alt_mem_ARM_A9_HPS_axi_sdram+0xc00014a0>
    1bec:	d9002c17 	ldw	r4,176(sp)
    1bf0:	d9801e04 	addi	r6,sp,120
    1bf4:	b80b883a 	mov	r5,r23
    1bf8:	00080cc0 	call	80cc <__sprint_r>
    1bfc:	103cb61e 	bne	r2,zero,ed8 <__alt_mem_ARM_A9_HPS_axi_sdram+0xc0000ed8>
    1c00:	d8c02017 	ldw	r3,128(sp)
    1c04:	da000404 	addi	r8,sp,16
    1c08:	003e2606 	br	14a4 <__alt_mem_ARM_A9_HPS_axi_sdram+0xc00014a4>
    1c0c:	d9002c17 	ldw	r4,176(sp)
    1c10:	d9801e04 	addi	r6,sp,120
    1c14:	b80b883a 	mov	r5,r23
    1c18:	00080cc0 	call	80cc <__sprint_r>
    1c1c:	103e5d26 	beq	r2,zero,1594 <__alt_mem_ARM_A9_HPS_axi_sdram+0xc0001594>
    1c20:	003cad06 	br	ed8 <__alt_mem_ARM_A9_HPS_axi_sdram+0xc0000ed8>
    1c24:	d9002c17 	ldw	r4,176(sp)
    1c28:	d9801e04 	addi	r6,sp,120
    1c2c:	b80b883a 	mov	r5,r23
    1c30:	00080cc0 	call	80cc <__sprint_r>
    1c34:	103ca81e 	bne	r2,zero,ed8 <__alt_mem_ARM_A9_HPS_axi_sdram+0xc0000ed8>
    1c38:	d8c02017 	ldw	r3,128(sp)
    1c3c:	da000404 	addi	r8,sp,16
    1c40:	003e0b06 	br	1470 <__alt_mem_ARM_A9_HPS_axi_sdram+0xc0001470>
    1c44:	d9002c17 	ldw	r4,176(sp)
    1c48:	d9801e04 	addi	r6,sp,120
    1c4c:	b80b883a 	mov	r5,r23
    1c50:	00080cc0 	call	80cc <__sprint_r>
    1c54:	103ca01e 	bne	r2,zero,ed8 <__alt_mem_ARM_A9_HPS_axi_sdram+0xc0000ed8>
    1c58:	d8c02017 	ldw	r3,128(sp)
    1c5c:	da000404 	addi	r8,sp,16
    1c60:	003dbd06 	br	1358 <__alt_mem_ARM_A9_HPS_axi_sdram+0xc0001358>
    1c64:	d9002c17 	ldw	r4,176(sp)
    1c68:	d9801e04 	addi	r6,sp,120
    1c6c:	b80b883a 	mov	r5,r23
    1c70:	00080cc0 	call	80cc <__sprint_r>
    1c74:	103c981e 	bne	r2,zero,ed8 <__alt_mem_ARM_A9_HPS_axi_sdram+0xc0000ed8>
    1c78:	d8c02017 	ldw	r3,128(sp)
    1c7c:	da000404 	addi	r8,sp,16
    1c80:	003dc306 	br	1390 <__alt_mem_ARM_A9_HPS_axi_sdram+0xc0001390>
    1c84:	d8802917 	ldw	r2,164(sp)
    1c88:	d8002785 	stb	zero,158(sp)
    1c8c:	103f0616 	blt	r2,zero,18a8 <__alt_mem_ARM_A9_HPS_axi_sdram+0xc00018a8>
    1c90:	00ffdfc4 	movi	r3,-129
    1c94:	9d84b03a 	or	r2,r19,r22
    1c98:	90e4703a 	and	r18,r18,r3
    1c9c:	103c6b26 	beq	r2,zero,e4c <__alt_mem_ARM_A9_HPS_axi_sdram+0xc0000e4c>
    1ca0:	0039883a 	mov	fp,zero
    1ca4:	003e7406 	br	1678 <__alt_mem_ARM_A9_HPS_axi_sdram+0xc0001678>
    1ca8:	9080040c 	andi	r2,r18,16
    1cac:	1001b326 	beq	r2,zero,237c <___vfprintf_internal_r+0x18ac>
    1cb0:	d9002d17 	ldw	r4,180(sp)
    1cb4:	d9402917 	ldw	r5,164(sp)
    1cb8:	d8002785 	stb	zero,158(sp)
    1cbc:	20800104 	addi	r2,r4,4
    1cc0:	24c00017 	ldw	r19,0(r4)
    1cc4:	002d883a 	mov	r22,zero
    1cc8:	2801b516 	blt	r5,zero,23a0 <___vfprintf_internal_r+0x18d0>
    1ccc:	00ffdfc4 	movi	r3,-129
    1cd0:	d8802d15 	stw	r2,180(sp)
    1cd4:	90e4703a 	and	r18,r18,r3
    1cd8:	983d2726 	beq	r19,zero,1178 <__alt_mem_ARM_A9_HPS_axi_sdram+0xc0001178>
    1cdc:	0039883a 	mov	fp,zero
    1ce0:	003d2a06 	br	118c <__alt_mem_ARM_A9_HPS_axi_sdram+0xc000118c>
    1ce4:	dc402617 	ldw	r17,152(sp)
    1ce8:	0441d30e 	bge	zero,r17,2438 <___vfprintf_internal_r+0x1968>
    1cec:	dc403217 	ldw	r17,200(sp)
    1cf0:	d8803317 	ldw	r2,204(sp)
    1cf4:	1440010e 	bge	r2,r17,1cfc <___vfprintf_internal_r+0x122c>
    1cf8:	1023883a 	mov	r17,r2
    1cfc:	04400a0e 	bge	zero,r17,1d28 <___vfprintf_internal_r+0x1258>
    1d00:	d8801f17 	ldw	r2,124(sp)
    1d04:	1c47883a 	add	r3,r3,r17
    1d08:	44000015 	stw	r16,0(r8)
    1d0c:	10800044 	addi	r2,r2,1
    1d10:	44400115 	stw	r17,4(r8)
    1d14:	d8c02015 	stw	r3,128(sp)
    1d18:	d8801f15 	stw	r2,124(sp)
    1d1c:	010001c4 	movi	r4,7
    1d20:	20826516 	blt	r4,r2,26b8 <___vfprintf_internal_r+0x1be8>
    1d24:	42000204 	addi	r8,r8,8
    1d28:	88026116 	blt	r17,zero,26b0 <___vfprintf_internal_r+0x1be0>
    1d2c:	d9003217 	ldw	r4,200(sp)
    1d30:	2463c83a 	sub	r17,r4,r17
    1d34:	04407b0e 	bge	zero,r17,1f24 <___vfprintf_internal_r+0x1454>
    1d38:	05800404 	movi	r22,16
    1d3c:	d8801f17 	ldw	r2,124(sp)
    1d40:	b4419d0e 	bge	r22,r17,23b8 <___vfprintf_internal_r+0x18e8>
    1d44:	01000074 	movhi	r4,1
    1d48:	21029884 	addi	r4,r4,2658
    1d4c:	d9002b15 	stw	r4,172(sp)
    1d50:	070001c4 	movi	fp,7
    1d54:	dcc02c17 	ldw	r19,176(sp)
    1d58:	00000306 	br	1d68 <___vfprintf_internal_r+0x1298>
    1d5c:	42000204 	addi	r8,r8,8
    1d60:	8c7ffc04 	addi	r17,r17,-16
    1d64:	b441970e 	bge	r22,r17,23c4 <___vfprintf_internal_r+0x18f4>
    1d68:	18c00404 	addi	r3,r3,16
    1d6c:	10800044 	addi	r2,r2,1
    1d70:	45000015 	stw	r20,0(r8)
    1d74:	45800115 	stw	r22,4(r8)
    1d78:	d8c02015 	stw	r3,128(sp)
    1d7c:	d8801f15 	stw	r2,124(sp)
    1d80:	e0bff60e 	bge	fp,r2,1d5c <__alt_mem_ARM_A9_HPS_axi_sdram+0xc0001d5c>
    1d84:	d9801e04 	addi	r6,sp,120
    1d88:	b80b883a 	mov	r5,r23
    1d8c:	9809883a 	mov	r4,r19
    1d90:	00080cc0 	call	80cc <__sprint_r>
    1d94:	103c501e 	bne	r2,zero,ed8 <__alt_mem_ARM_A9_HPS_axi_sdram+0xc0000ed8>
    1d98:	d8c02017 	ldw	r3,128(sp)
    1d9c:	d8801f17 	ldw	r2,124(sp)
    1da0:	da000404 	addi	r8,sp,16
    1da4:	003fee06 	br	1d60 <__alt_mem_ARM_A9_HPS_axi_sdram+0xc0001d60>
    1da8:	d9002c17 	ldw	r4,176(sp)
    1dac:	d9801e04 	addi	r6,sp,120
    1db0:	b80b883a 	mov	r5,r23
    1db4:	00080cc0 	call	80cc <__sprint_r>
    1db8:	103c471e 	bne	r2,zero,ed8 <__alt_mem_ARM_A9_HPS_axi_sdram+0xc0000ed8>
    1dbc:	d8c02017 	ldw	r3,128(sp)
    1dc0:	df002787 	ldb	fp,158(sp)
    1dc4:	da000404 	addi	r8,sp,16
    1dc8:	003d5606 	br	1324 <__alt_mem_ARM_A9_HPS_axi_sdram+0xc0001324>
    1dcc:	9080040c 	andi	r2,r18,16
    1dd0:	10016126 	beq	r2,zero,2358 <___vfprintf_internal_r+0x1888>
    1dd4:	d8802d17 	ldw	r2,180(sp)
    1dd8:	14c00017 	ldw	r19,0(r2)
    1ddc:	10800104 	addi	r2,r2,4
    1de0:	d8802d15 	stw	r2,180(sp)
    1de4:	982dd7fa 	srai	r22,r19,31
    1de8:	b005883a 	mov	r2,r22
    1dec:	003c8206 	br	ff8 <__alt_mem_ARM_A9_HPS_axi_sdram+0xc0000ff8>
    1df0:	9080040c 	andi	r2,r18,16
    1df4:	10003526 	beq	r2,zero,1ecc <___vfprintf_internal_r+0x13fc>
    1df8:	d9402d17 	ldw	r5,180(sp)
    1dfc:	d8c02917 	ldw	r3,164(sp)
    1e00:	d8002785 	stb	zero,158(sp)
    1e04:	28800104 	addi	r2,r5,4
    1e08:	2cc00017 	ldw	r19,0(r5)
    1e0c:	002d883a 	mov	r22,zero
    1e10:	18003716 	blt	r3,zero,1ef0 <___vfprintf_internal_r+0x1420>
    1e14:	00ffdfc4 	movi	r3,-129
    1e18:	d8802d15 	stw	r2,180(sp)
    1e1c:	90e4703a 	and	r18,r18,r3
    1e20:	0039883a 	mov	fp,zero
    1e24:	983df326 	beq	r19,zero,15f4 <__alt_mem_ARM_A9_HPS_axi_sdram+0xc00015f4>
    1e28:	00800244 	movi	r2,9
    1e2c:	14fc7b36 	bltu	r2,r19,101c <__alt_mem_ARM_A9_HPS_axi_sdram+0xc000101c>
    1e30:	d8c02817 	ldw	r3,160(sp)
    1e34:	dc001dc4 	addi	r16,sp,119
    1e38:	9cc00c04 	addi	r19,r19,48
    1e3c:	1c07c83a 	sub	r3,r3,r16
    1e40:	dcc01dc5 	stb	r19,119(sp)
    1e44:	d8c02e15 	stw	r3,184(sp)
    1e48:	003ce806 	br	11ec <__alt_mem_ARM_A9_HPS_axi_sdram+0xc00011ec>
    1e4c:	d8803317 	ldw	r2,204(sp)
    1e50:	143fffc4 	addi	r16,r2,-1
    1e54:	043f4d0e 	bge	zero,r16,1b8c <__alt_mem_ARM_A9_HPS_axi_sdram+0xc0001b8c>
    1e58:	07000404 	movi	fp,16
    1e5c:	e400810e 	bge	fp,r16,2064 <___vfprintf_internal_r+0x1594>
    1e60:	01400074 	movhi	r5,1
    1e64:	29429884 	addi	r5,r5,2658
    1e68:	d9402b15 	stw	r5,172(sp)
    1e6c:	01c001c4 	movi	r7,7
    1e70:	dcc02c17 	ldw	r19,176(sp)
    1e74:	00000306 	br	1e84 <___vfprintf_internal_r+0x13b4>
    1e78:	b5800204 	addi	r22,r22,8
    1e7c:	843ffc04 	addi	r16,r16,-16
    1e80:	e4007b0e 	bge	fp,r16,2070 <___vfprintf_internal_r+0x15a0>
    1e84:	18c00404 	addi	r3,r3,16
    1e88:	8c400044 	addi	r17,r17,1
    1e8c:	b5000015 	stw	r20,0(r22)
    1e90:	b7000115 	stw	fp,4(r22)
    1e94:	d8c02015 	stw	r3,128(sp)
    1e98:	dc401f15 	stw	r17,124(sp)
    1e9c:	3c7ff60e 	bge	r7,r17,1e78 <__alt_mem_ARM_A9_HPS_axi_sdram+0xc0001e78>
    1ea0:	d9801e04 	addi	r6,sp,120
    1ea4:	b80b883a 	mov	r5,r23
    1ea8:	9809883a 	mov	r4,r19
    1eac:	d9c03c15 	stw	r7,240(sp)
    1eb0:	00080cc0 	call	80cc <__sprint_r>
    1eb4:	d9c03c17 	ldw	r7,240(sp)
    1eb8:	103c071e 	bne	r2,zero,ed8 <__alt_mem_ARM_A9_HPS_axi_sdram+0xc0000ed8>
    1ebc:	d8c02017 	ldw	r3,128(sp)
    1ec0:	dc401f17 	ldw	r17,124(sp)
    1ec4:	dd800404 	addi	r22,sp,16
    1ec8:	003fec06 	br	1e7c <__alt_mem_ARM_A9_HPS_axi_sdram+0xc0001e7c>
    1ecc:	9080100c 	andi	r2,r18,64
    1ed0:	d8002785 	stb	zero,158(sp)
    1ed4:	10010e26 	beq	r2,zero,2310 <___vfprintf_internal_r+0x1840>
    1ed8:	d9002d17 	ldw	r4,180(sp)
    1edc:	d9402917 	ldw	r5,164(sp)
    1ee0:	002d883a 	mov	r22,zero
    1ee4:	20800104 	addi	r2,r4,4
    1ee8:	24c0000b 	ldhu	r19,0(r4)
    1eec:	283fc90e 	bge	r5,zero,1e14 <__alt_mem_ARM_A9_HPS_axi_sdram+0xc0001e14>
    1ef0:	d8802d15 	stw	r2,180(sp)
    1ef4:	0039883a 	mov	fp,zero
    1ef8:	9d84b03a 	or	r2,r19,r22
    1efc:	103c461e 	bne	r2,zero,1018 <__alt_mem_ARM_A9_HPS_axi_sdram+0xc0001018>
    1f00:	00800044 	movi	r2,1
    1f04:	003e6c06 	br	18b8 <__alt_mem_ARM_A9_HPS_axi_sdram+0xc00018b8>
    1f08:	d9002c17 	ldw	r4,176(sp)
    1f0c:	d9801e04 	addi	r6,sp,120
    1f10:	b80b883a 	mov	r5,r23
    1f14:	00080cc0 	call	80cc <__sprint_r>
    1f18:	103bef1e 	bne	r2,zero,ed8 <__alt_mem_ARM_A9_HPS_axi_sdram+0xc0000ed8>
    1f1c:	d8c02017 	ldw	r3,128(sp)
    1f20:	da000404 	addi	r8,sp,16
    1f24:	d9003217 	ldw	r4,200(sp)
    1f28:	d8802617 	ldw	r2,152(sp)
    1f2c:	d9403317 	ldw	r5,204(sp)
    1f30:	8123883a 	add	r17,r16,r4
    1f34:	11400216 	blt	r2,r5,1f40 <___vfprintf_internal_r+0x1470>
    1f38:	9100004c 	andi	r4,r18,1
    1f3c:	20000d26 	beq	r4,zero,1f74 <___vfprintf_internal_r+0x14a4>
    1f40:	d9003717 	ldw	r4,220(sp)
    1f44:	d9403417 	ldw	r5,208(sp)
    1f48:	1907883a 	add	r3,r3,r4
    1f4c:	d9001f17 	ldw	r4,124(sp)
    1f50:	41400015 	stw	r5,0(r8)
    1f54:	d9403717 	ldw	r5,220(sp)
    1f58:	21000044 	addi	r4,r4,1
    1f5c:	d8c02015 	stw	r3,128(sp)
    1f60:	41400115 	stw	r5,4(r8)
    1f64:	d9001f15 	stw	r4,124(sp)
    1f68:	014001c4 	movi	r5,7
    1f6c:	2901e816 	blt	r5,r4,2710 <___vfprintf_internal_r+0x1c40>
    1f70:	42000204 	addi	r8,r8,8
    1f74:	d9003317 	ldw	r4,204(sp)
    1f78:	8121883a 	add	r16,r16,r4
    1f7c:	2085c83a 	sub	r2,r4,r2
    1f80:	8461c83a 	sub	r16,r16,r17
    1f84:	1400010e 	bge	r2,r16,1f8c <___vfprintf_internal_r+0x14bc>
    1f88:	1021883a 	mov	r16,r2
    1f8c:	04000a0e 	bge	zero,r16,1fb8 <___vfprintf_internal_r+0x14e8>
    1f90:	d9001f17 	ldw	r4,124(sp)
    1f94:	1c07883a 	add	r3,r3,r16
    1f98:	44400015 	stw	r17,0(r8)
    1f9c:	21000044 	addi	r4,r4,1
    1fa0:	44000115 	stw	r16,4(r8)
    1fa4:	d8c02015 	stw	r3,128(sp)
    1fa8:	d9001f15 	stw	r4,124(sp)
    1fac:	014001c4 	movi	r5,7
    1fb0:	2901fb16 	blt	r5,r4,27a0 <___vfprintf_internal_r+0x1cd0>
    1fb4:	42000204 	addi	r8,r8,8
    1fb8:	8001f716 	blt	r16,zero,2798 <___vfprintf_internal_r+0x1cc8>
    1fbc:	1421c83a 	sub	r16,r2,r16
    1fc0:	043d380e 	bge	zero,r16,14a4 <__alt_mem_ARM_A9_HPS_axi_sdram+0xc00014a4>
    1fc4:	04400404 	movi	r17,16
    1fc8:	d8801f17 	ldw	r2,124(sp)
    1fcc:	8c3efb0e 	bge	r17,r16,1bbc <__alt_mem_ARM_A9_HPS_axi_sdram+0xc0001bbc>
    1fd0:	01400074 	movhi	r5,1
    1fd4:	29429884 	addi	r5,r5,2658
    1fd8:	d9402b15 	stw	r5,172(sp)
    1fdc:	058001c4 	movi	r22,7
    1fe0:	dcc02c17 	ldw	r19,176(sp)
    1fe4:	00000306 	br	1ff4 <___vfprintf_internal_r+0x1524>
    1fe8:	42000204 	addi	r8,r8,8
    1fec:	843ffc04 	addi	r16,r16,-16
    1ff0:	8c3ef50e 	bge	r17,r16,1bc8 <__alt_mem_ARM_A9_HPS_axi_sdram+0xc0001bc8>
    1ff4:	18c00404 	addi	r3,r3,16
    1ff8:	10800044 	addi	r2,r2,1
    1ffc:	45000015 	stw	r20,0(r8)
    2000:	44400115 	stw	r17,4(r8)
    2004:	d8c02015 	stw	r3,128(sp)
    2008:	d8801f15 	stw	r2,124(sp)
    200c:	b0bff60e 	bge	r22,r2,1fe8 <__alt_mem_ARM_A9_HPS_axi_sdram+0xc0001fe8>
    2010:	d9801e04 	addi	r6,sp,120
    2014:	b80b883a 	mov	r5,r23
    2018:	9809883a 	mov	r4,r19
    201c:	00080cc0 	call	80cc <__sprint_r>
    2020:	103bad1e 	bne	r2,zero,ed8 <__alt_mem_ARM_A9_HPS_axi_sdram+0xc0000ed8>
    2024:	d8c02017 	ldw	r3,128(sp)
    2028:	d8801f17 	ldw	r2,124(sp)
    202c:	da000404 	addi	r8,sp,16
    2030:	003fee06 	br	1fec <__alt_mem_ARM_A9_HPS_axi_sdram+0xc0001fec>
    2034:	9088703a 	and	r4,r18,r2
    2038:	203eab1e 	bne	r4,zero,1ae8 <__alt_mem_ARM_A9_HPS_axi_sdram+0xc0001ae8>
    203c:	dc401f17 	ldw	r17,124(sp)
    2040:	40800115 	stw	r2,4(r8)
    2044:	44000015 	stw	r16,0(r8)
    2048:	8c400044 	addi	r17,r17,1
    204c:	d8c02015 	stw	r3,128(sp)
    2050:	dc401f15 	stw	r17,124(sp)
    2054:	008001c4 	movi	r2,7
    2058:	14400e16 	blt	r2,r17,2094 <___vfprintf_internal_r+0x15c4>
    205c:	45800204 	addi	r22,r8,8
    2060:	003eca06 	br	1b8c <__alt_mem_ARM_A9_HPS_axi_sdram+0xc0001b8c>
    2064:	01000074 	movhi	r4,1
    2068:	21029884 	addi	r4,r4,2658
    206c:	d9002b15 	stw	r4,172(sp)
    2070:	d8802b17 	ldw	r2,172(sp)
    2074:	1c07883a 	add	r3,r3,r16
    2078:	8c400044 	addi	r17,r17,1
    207c:	b0800015 	stw	r2,0(r22)
    2080:	b4000115 	stw	r16,4(r22)
    2084:	d8c02015 	stw	r3,128(sp)
    2088:	dc401f15 	stw	r17,124(sp)
    208c:	008001c4 	movi	r2,7
    2090:	147ebd0e 	bge	r2,r17,1b88 <__alt_mem_ARM_A9_HPS_axi_sdram+0xc0001b88>
    2094:	d9002c17 	ldw	r4,176(sp)
    2098:	d9801e04 	addi	r6,sp,120
    209c:	b80b883a 	mov	r5,r23
    20a0:	00080cc0 	call	80cc <__sprint_r>
    20a4:	103b8c1e 	bne	r2,zero,ed8 <__alt_mem_ARM_A9_HPS_axi_sdram+0xc0000ed8>
    20a8:	d8c02017 	ldw	r3,128(sp)
    20ac:	dc401f17 	ldw	r17,124(sp)
    20b0:	dd800404 	addi	r22,sp,16
    20b4:	003eb506 	br	1b8c <__alt_mem_ARM_A9_HPS_axi_sdram+0xc0001b8c>
    20b8:	d9002c17 	ldw	r4,176(sp)
    20bc:	d9801e04 	addi	r6,sp,120
    20c0:	b80b883a 	mov	r5,r23
    20c4:	00080cc0 	call	80cc <__sprint_r>
    20c8:	103b831e 	bne	r2,zero,ed8 <__alt_mem_ARM_A9_HPS_axi_sdram+0xc0000ed8>
    20cc:	d8c02017 	ldw	r3,128(sp)
    20d0:	dc401f17 	ldw	r17,124(sp)
    20d4:	da000404 	addi	r8,sp,16
    20d8:	003e8d06 	br	1b10 <__alt_mem_ARM_A9_HPS_axi_sdram+0xc0001b10>
    20dc:	d9002c17 	ldw	r4,176(sp)
    20e0:	d9801e04 	addi	r6,sp,120
    20e4:	b80b883a 	mov	r5,r23
    20e8:	00080cc0 	call	80cc <__sprint_r>
    20ec:	103b7a1e 	bne	r2,zero,ed8 <__alt_mem_ARM_A9_HPS_axi_sdram+0xc0000ed8>
    20f0:	d8c02017 	ldw	r3,128(sp)
    20f4:	dc401f17 	ldw	r17,124(sp)
    20f8:	dd800404 	addi	r22,sp,16
    20fc:	003e8f06 	br	1b3c <__alt_mem_ARM_A9_HPS_axi_sdram+0xc0001b3c>
    2100:	0027883a 	mov	r19,zero
    2104:	003f4a06 	br	1e30 <__alt_mem_ARM_A9_HPS_axi_sdram+0xc0001e30>
    2108:	d9002c17 	ldw	r4,176(sp)
    210c:	d9801e04 	addi	r6,sp,120
    2110:	b80b883a 	mov	r5,r23
    2114:	00080cc0 	call	80cc <__sprint_r>
    2118:	103b6f1e 	bne	r2,zero,ed8 <__alt_mem_ARM_A9_HPS_axi_sdram+0xc0000ed8>
    211c:	d8c02017 	ldw	r3,128(sp)
    2120:	da000404 	addi	r8,sp,16
    2124:	003c9d06 	br	139c <__alt_mem_ARM_A9_HPS_axi_sdram+0xc000139c>
    2128:	04e7c83a 	sub	r19,zero,r19
    212c:	9804c03a 	cmpne	r2,r19,zero
    2130:	05adc83a 	sub	r22,zero,r22
    2134:	b0adc83a 	sub	r22,r22,r2
    2138:	d8802917 	ldw	r2,164(sp)
    213c:	07000b44 	movi	fp,45
    2140:	df002785 	stb	fp,158(sp)
    2144:	10017b16 	blt	r2,zero,2734 <___vfprintf_internal_r+0x1c64>
    2148:	00bfdfc4 	movi	r2,-129
    214c:	90a4703a 	and	r18,r18,r2
    2150:	003bb106 	br	1018 <__alt_mem_ARM_A9_HPS_axi_sdram+0xc0001018>
    2154:	d9003617 	ldw	r4,216(sp)
    2158:	d9403817 	ldw	r5,224(sp)
    215c:	da003d15 	stw	r8,244(sp)
    2160:	0007cf00 	call	7cf0 <__fpclassifyd>
    2164:	da003d17 	ldw	r8,244(sp)
    2168:	1000f026 	beq	r2,zero,252c <___vfprintf_internal_r+0x1a5c>
    216c:	d9002917 	ldw	r4,164(sp)
    2170:	05bff7c4 	movi	r22,-33
    2174:	00bfffc4 	movi	r2,-1
    2178:	8dac703a 	and	r22,r17,r22
    217c:	20820026 	beq	r4,r2,2980 <___vfprintf_internal_r+0x1eb0>
    2180:	008011c4 	movi	r2,71
    2184:	b081f726 	beq	r22,r2,2964 <___vfprintf_internal_r+0x1e94>
    2188:	d9003817 	ldw	r4,224(sp)
    218c:	90c04014 	ori	r3,r18,256
    2190:	d8c02b15 	stw	r3,172(sp)
    2194:	20021516 	blt	r4,zero,29ec <___vfprintf_internal_r+0x1f1c>
    2198:	dcc03817 	ldw	r19,224(sp)
    219c:	d8002a05 	stb	zero,168(sp)
    21a0:	00801984 	movi	r2,102
    21a4:	8881f926 	beq	r17,r2,298c <___vfprintf_internal_r+0x1ebc>
    21a8:	00801184 	movi	r2,70
    21ac:	88821c26 	beq	r17,r2,2a20 <___vfprintf_internal_r+0x1f50>
    21b0:	00801144 	movi	r2,69
    21b4:	b081ef26 	beq	r22,r2,2974 <___vfprintf_internal_r+0x1ea4>
    21b8:	d8c02917 	ldw	r3,164(sp)
    21bc:	d8802104 	addi	r2,sp,132
    21c0:	d8800315 	stw	r2,12(sp)
    21c4:	d9403617 	ldw	r5,216(sp)
    21c8:	d8802504 	addi	r2,sp,148
    21cc:	d9002c17 	ldw	r4,176(sp)
    21d0:	d8800215 	stw	r2,8(sp)
    21d4:	d8802604 	addi	r2,sp,152
    21d8:	d8c00015 	stw	r3,0(sp)
    21dc:	d8800115 	stw	r2,4(sp)
    21e0:	01c00084 	movi	r7,2
    21e4:	980d883a 	mov	r6,r19
    21e8:	d8c03c15 	stw	r3,240(sp)
    21ec:	da003d15 	stw	r8,244(sp)
    21f0:	00030f40 	call	30f4 <_dtoa_r>
    21f4:	1021883a 	mov	r16,r2
    21f8:	008019c4 	movi	r2,103
    21fc:	d8c03c17 	ldw	r3,240(sp)
    2200:	da003d17 	ldw	r8,244(sp)
    2204:	88817126 	beq	r17,r2,27cc <___vfprintf_internal_r+0x1cfc>
    2208:	008011c4 	movi	r2,71
    220c:	88829226 	beq	r17,r2,2c58 <___vfprintf_internal_r+0x2188>
    2210:	80f9883a 	add	fp,r16,r3
    2214:	d9003617 	ldw	r4,216(sp)
    2218:	000d883a 	mov	r6,zero
    221c:	000f883a 	mov	r7,zero
    2220:	980b883a 	mov	r5,r19
    2224:	da003d15 	stw	r8,244(sp)
    2228:	000bd440 	call	bd44 <__eqdf2>
    222c:	da003d17 	ldw	r8,244(sp)
    2230:	10018d26 	beq	r2,zero,2868 <___vfprintf_internal_r+0x1d98>
    2234:	d8802117 	ldw	r2,132(sp)
    2238:	1700062e 	bgeu	r2,fp,2254 <___vfprintf_internal_r+0x1784>
    223c:	01000c04 	movi	r4,48
    2240:	10c00044 	addi	r3,r2,1
    2244:	d8c02115 	stw	r3,132(sp)
    2248:	11000005 	stb	r4,0(r2)
    224c:	d8802117 	ldw	r2,132(sp)
    2250:	173ffb36 	bltu	r2,fp,2240 <__alt_mem_ARM_A9_HPS_axi_sdram+0xc0002240>
    2254:	1405c83a 	sub	r2,r2,r16
    2258:	d8803315 	stw	r2,204(sp)
    225c:	008011c4 	movi	r2,71
    2260:	b0817626 	beq	r22,r2,283c <___vfprintf_internal_r+0x1d6c>
    2264:	00801944 	movi	r2,101
    2268:	1442810e 	bge	r2,r17,2c70 <___vfprintf_internal_r+0x21a0>
    226c:	d8c02617 	ldw	r3,152(sp)
    2270:	00801984 	movi	r2,102
    2274:	d8c03215 	stw	r3,200(sp)
    2278:	8881fe26 	beq	r17,r2,2a74 <___vfprintf_internal_r+0x1fa4>
    227c:	d8c03217 	ldw	r3,200(sp)
    2280:	d9003317 	ldw	r4,204(sp)
    2284:	1901dd16 	blt	r3,r4,29fc <___vfprintf_internal_r+0x1f2c>
    2288:	9480004c 	andi	r18,r18,1
    228c:	90022b1e 	bne	r18,zero,2b3c <___vfprintf_internal_r+0x206c>
    2290:	1805883a 	mov	r2,r3
    2294:	18028016 	blt	r3,zero,2c98 <___vfprintf_internal_r+0x21c8>
    2298:	d8c03217 	ldw	r3,200(sp)
    229c:	044019c4 	movi	r17,103
    22a0:	d8c02e15 	stw	r3,184(sp)
    22a4:	df002a07 	ldb	fp,168(sp)
    22a8:	e001531e 	bne	fp,zero,27f8 <___vfprintf_internal_r+0x1d28>
    22ac:	df002783 	ldbu	fp,158(sp)
    22b0:	d8802a15 	stw	r2,168(sp)
    22b4:	dc802b17 	ldw	r18,172(sp)
    22b8:	d8002915 	stw	zero,164(sp)
    22bc:	003bd106 	br	1204 <__alt_mem_ARM_A9_HPS_axi_sdram+0xc0001204>
    22c0:	d8802d17 	ldw	r2,180(sp)
    22c4:	d8c02d17 	ldw	r3,180(sp)
    22c8:	d9002d17 	ldw	r4,180(sp)
    22cc:	10800017 	ldw	r2,0(r2)
    22d0:	18c00117 	ldw	r3,4(r3)
    22d4:	21000204 	addi	r4,r4,8
    22d8:	d8803615 	stw	r2,216(sp)
    22dc:	d8c03815 	stw	r3,224(sp)
    22e0:	d9002d15 	stw	r4,180(sp)
    22e4:	003b7506 	br	10bc <__alt_mem_ARM_A9_HPS_axi_sdram+0xc00010bc>
    22e8:	ac400007 	ldb	r17,0(r21)
    22ec:	003a5906 	br	c54 <__alt_mem_ARM_A9_HPS_axi_sdram+0xc0000c54>
    22f0:	9080100c 	andi	r2,r18,64
    22f4:	1000a826 	beq	r2,zero,2598 <___vfprintf_internal_r+0x1ac8>
    22f8:	d9002d17 	ldw	r4,180(sp)
    22fc:	002d883a 	mov	r22,zero
    2300:	24c0000b 	ldhu	r19,0(r4)
    2304:	21000104 	addi	r4,r4,4
    2308:	d9002d15 	stw	r4,180(sp)
    230c:	003ccb06 	br	163c <__alt_mem_ARM_A9_HPS_axi_sdram+0xc000163c>
    2310:	d8c02d17 	ldw	r3,180(sp)
    2314:	d9002917 	ldw	r4,164(sp)
    2318:	002d883a 	mov	r22,zero
    231c:	18800104 	addi	r2,r3,4
    2320:	1cc00017 	ldw	r19,0(r3)
    2324:	203ebb0e 	bge	r4,zero,1e14 <__alt_mem_ARM_A9_HPS_axi_sdram+0xc0001e14>
    2328:	003ef106 	br	1ef0 <__alt_mem_ARM_A9_HPS_axi_sdram+0xc0001ef0>
    232c:	9080040c 	andi	r2,r18,16
    2330:	1000921e 	bne	r2,zero,257c <___vfprintf_internal_r+0x1aac>
    2334:	9480100c 	andi	r18,r18,64
    2338:	90013926 	beq	r18,zero,2820 <___vfprintf_internal_r+0x1d50>
    233c:	d9002d17 	ldw	r4,180(sp)
    2340:	d9402f17 	ldw	r5,188(sp)
    2344:	20800017 	ldw	r2,0(r4)
    2348:	21000104 	addi	r4,r4,4
    234c:	d9002d15 	stw	r4,180(sp)
    2350:	1140000d 	sth	r5,0(r2)
    2354:	003a1606 	br	bb0 <__alt_mem_ARM_A9_HPS_axi_sdram+0xc0000bb0>
    2358:	9080100c 	andi	r2,r18,64
    235c:	10008026 	beq	r2,zero,2560 <___vfprintf_internal_r+0x1a90>
    2360:	d8c02d17 	ldw	r3,180(sp)
    2364:	1cc0000f 	ldh	r19,0(r3)
    2368:	18c00104 	addi	r3,r3,4
    236c:	d8c02d15 	stw	r3,180(sp)
    2370:	982dd7fa 	srai	r22,r19,31
    2374:	b005883a 	mov	r2,r22
    2378:	003b1f06 	br	ff8 <__alt_mem_ARM_A9_HPS_axi_sdram+0xc0000ff8>
    237c:	9080100c 	andi	r2,r18,64
    2380:	d8002785 	stb	zero,158(sp)
    2384:	10008a1e 	bne	r2,zero,25b0 <___vfprintf_internal_r+0x1ae0>
    2388:	d9402d17 	ldw	r5,180(sp)
    238c:	d8c02917 	ldw	r3,164(sp)
    2390:	002d883a 	mov	r22,zero
    2394:	28800104 	addi	r2,r5,4
    2398:	2cc00017 	ldw	r19,0(r5)
    239c:	183e4b0e 	bge	r3,zero,1ccc <__alt_mem_ARM_A9_HPS_axi_sdram+0xc0001ccc>
    23a0:	9d86b03a 	or	r3,r19,r22
    23a4:	d8802d15 	stw	r2,180(sp)
    23a8:	183e4c1e 	bne	r3,zero,1cdc <__alt_mem_ARM_A9_HPS_axi_sdram+0xc0001cdc>
    23ac:	0039883a 	mov	fp,zero
    23b0:	0005883a 	mov	r2,zero
    23b4:	003d4006 	br	18b8 <__alt_mem_ARM_A9_HPS_axi_sdram+0xc00018b8>
    23b8:	01400074 	movhi	r5,1
    23bc:	29429884 	addi	r5,r5,2658
    23c0:	d9402b15 	stw	r5,172(sp)
    23c4:	d9402b17 	ldw	r5,172(sp)
    23c8:	1c47883a 	add	r3,r3,r17
    23cc:	10800044 	addi	r2,r2,1
    23d0:	41400015 	stw	r5,0(r8)
    23d4:	44400115 	stw	r17,4(r8)
    23d8:	d8c02015 	stw	r3,128(sp)
    23dc:	d8801f15 	stw	r2,124(sp)
    23e0:	010001c4 	movi	r4,7
    23e4:	20bec816 	blt	r4,r2,1f08 <__alt_mem_ARM_A9_HPS_axi_sdram+0xc0001f08>
    23e8:	42000204 	addi	r8,r8,8
    23ec:	003ecd06 	br	1f24 <__alt_mem_ARM_A9_HPS_axi_sdram+0xc0001f24>
    23f0:	d9002917 	ldw	r4,164(sp)
    23f4:	d8002785 	stb	zero,158(sp)
    23f8:	203d2d16 	blt	r4,zero,18b0 <__alt_mem_ARM_A9_HPS_axi_sdram+0xc00018b0>
    23fc:	00bfdfc4 	movi	r2,-129
    2400:	90a4703a 	and	r18,r18,r2
    2404:	003a9106 	br	e4c <__alt_mem_ARM_A9_HPS_axi_sdram+0xc0000e4c>
    2408:	01000074 	movhi	r4,1
    240c:	21029884 	addi	r4,r4,2658
    2410:	d9002b15 	stw	r4,172(sp)
    2414:	003c0c06 	br	1448 <__alt_mem_ARM_A9_HPS_axi_sdram+0xc0001448>
    2418:	d9002c17 	ldw	r4,176(sp)
    241c:	d9801e04 	addi	r6,sp,120
    2420:	b80b883a 	mov	r5,r23
    2424:	00080cc0 	call	80cc <__sprint_r>
    2428:	103aab1e 	bne	r2,zero,ed8 <__alt_mem_ARM_A9_HPS_axi_sdram+0xc0000ed8>
    242c:	d8c02017 	ldw	r3,128(sp)
    2430:	da000404 	addi	r8,sp,16
    2434:	003d4106 	br	193c <__alt_mem_ARM_A9_HPS_axi_sdram+0xc000193c>
    2438:	d8801f17 	ldw	r2,124(sp)
    243c:	01400074 	movhi	r5,1
    2440:	01000044 	movi	r4,1
    2444:	18c00044 	addi	r3,r3,1
    2448:	10800044 	addi	r2,r2,1
    244c:	29429804 	addi	r5,r5,2656
    2450:	41000115 	stw	r4,4(r8)
    2454:	41400015 	stw	r5,0(r8)
    2458:	d8c02015 	stw	r3,128(sp)
    245c:	d8801f15 	stw	r2,124(sp)
    2460:	010001c4 	movi	r4,7
    2464:	20805c16 	blt	r4,r2,25d8 <___vfprintf_internal_r+0x1b08>
    2468:	42000204 	addi	r8,r8,8
    246c:	8800041e 	bne	r17,zero,2480 <___vfprintf_internal_r+0x19b0>
    2470:	d8803317 	ldw	r2,204(sp)
    2474:	1000021e 	bne	r2,zero,2480 <___vfprintf_internal_r+0x19b0>
    2478:	9080004c 	andi	r2,r18,1
    247c:	103c0926 	beq	r2,zero,14a4 <__alt_mem_ARM_A9_HPS_axi_sdram+0xc00014a4>
    2480:	d9003717 	ldw	r4,220(sp)
    2484:	d8801f17 	ldw	r2,124(sp)
    2488:	d9403417 	ldw	r5,208(sp)
    248c:	20c7883a 	add	r3,r4,r3
    2490:	10800044 	addi	r2,r2,1
    2494:	41000115 	stw	r4,4(r8)
    2498:	41400015 	stw	r5,0(r8)
    249c:	d8c02015 	stw	r3,128(sp)
    24a0:	d8801f15 	stw	r2,124(sp)
    24a4:	010001c4 	movi	r4,7
    24a8:	20812116 	blt	r4,r2,2930 <___vfprintf_internal_r+0x1e60>
    24ac:	42000204 	addi	r8,r8,8
    24b0:	0463c83a 	sub	r17,zero,r17
    24b4:	0440730e 	bge	zero,r17,2684 <___vfprintf_internal_r+0x1bb4>
    24b8:	05800404 	movi	r22,16
    24bc:	b440860e 	bge	r22,r17,26d8 <___vfprintf_internal_r+0x1c08>
    24c0:	01400074 	movhi	r5,1
    24c4:	29429884 	addi	r5,r5,2658
    24c8:	d9402b15 	stw	r5,172(sp)
    24cc:	070001c4 	movi	fp,7
    24d0:	dcc02c17 	ldw	r19,176(sp)
    24d4:	00000306 	br	24e4 <___vfprintf_internal_r+0x1a14>
    24d8:	42000204 	addi	r8,r8,8
    24dc:	8c7ffc04 	addi	r17,r17,-16
    24e0:	b440800e 	bge	r22,r17,26e4 <___vfprintf_internal_r+0x1c14>
    24e4:	18c00404 	addi	r3,r3,16
    24e8:	10800044 	addi	r2,r2,1
    24ec:	45000015 	stw	r20,0(r8)
    24f0:	45800115 	stw	r22,4(r8)
    24f4:	d8c02015 	stw	r3,128(sp)
    24f8:	d8801f15 	stw	r2,124(sp)
    24fc:	e0bff60e 	bge	fp,r2,24d8 <__alt_mem_ARM_A9_HPS_axi_sdram+0xc00024d8>
    2500:	d9801e04 	addi	r6,sp,120
    2504:	b80b883a 	mov	r5,r23
    2508:	9809883a 	mov	r4,r19
    250c:	00080cc0 	call	80cc <__sprint_r>
    2510:	103a711e 	bne	r2,zero,ed8 <__alt_mem_ARM_A9_HPS_axi_sdram+0xc0000ed8>
    2514:	d8c02017 	ldw	r3,128(sp)
    2518:	d8801f17 	ldw	r2,124(sp)
    251c:	da000404 	addi	r8,sp,16
    2520:	003fee06 	br	24dc <__alt_mem_ARM_A9_HPS_axi_sdram+0xc00024dc>
    2524:	00bfffc4 	movi	r2,-1
    2528:	003a6f06 	br	ee8 <__alt_mem_ARM_A9_HPS_axi_sdram+0xc0000ee8>
    252c:	008011c4 	movi	r2,71
    2530:	1440b816 	blt	r2,r17,2814 <___vfprintf_internal_r+0x1d44>
    2534:	04000074 	movhi	r16,1
    2538:	84028a04 	addi	r16,r16,2600
    253c:	00c000c4 	movi	r3,3
    2540:	00bfdfc4 	movi	r2,-129
    2544:	d8c02a15 	stw	r3,168(sp)
    2548:	90a4703a 	and	r18,r18,r2
    254c:	df002783 	ldbu	fp,158(sp)
    2550:	d8c02e15 	stw	r3,184(sp)
    2554:	d8002915 	stw	zero,164(sp)
    2558:	d8003215 	stw	zero,200(sp)
    255c:	003b2906 	br	1204 <__alt_mem_ARM_A9_HPS_axi_sdram+0xc0001204>
    2560:	d9002d17 	ldw	r4,180(sp)
    2564:	24c00017 	ldw	r19,0(r4)
    2568:	21000104 	addi	r4,r4,4
    256c:	d9002d15 	stw	r4,180(sp)
    2570:	982dd7fa 	srai	r22,r19,31
    2574:	b005883a 	mov	r2,r22
    2578:	003a9f06 	br	ff8 <__alt_mem_ARM_A9_HPS_axi_sdram+0xc0000ff8>
    257c:	d9402d17 	ldw	r5,180(sp)
    2580:	d8c02f17 	ldw	r3,188(sp)
    2584:	28800017 	ldw	r2,0(r5)
    2588:	29400104 	addi	r5,r5,4
    258c:	d9402d15 	stw	r5,180(sp)
    2590:	10c00015 	stw	r3,0(r2)
    2594:	00398606 	br	bb0 <__alt_mem_ARM_A9_HPS_axi_sdram+0xc0000bb0>
    2598:	d9402d17 	ldw	r5,180(sp)
    259c:	002d883a 	mov	r22,zero
    25a0:	2cc00017 	ldw	r19,0(r5)
    25a4:	29400104 	addi	r5,r5,4
    25a8:	d9402d15 	stw	r5,180(sp)
    25ac:	003c2306 	br	163c <__alt_mem_ARM_A9_HPS_axi_sdram+0xc000163c>
    25b0:	d8c02d17 	ldw	r3,180(sp)
    25b4:	d9002917 	ldw	r4,164(sp)
    25b8:	002d883a 	mov	r22,zero
    25bc:	18800104 	addi	r2,r3,4
    25c0:	1cc0000b 	ldhu	r19,0(r3)
    25c4:	203dc10e 	bge	r4,zero,1ccc <__alt_mem_ARM_A9_HPS_axi_sdram+0xc0001ccc>
    25c8:	003f7506 	br	23a0 <__alt_mem_ARM_A9_HPS_axi_sdram+0xc00023a0>
    25cc:	04000074 	movhi	r16,1
    25d0:	84028804 	addi	r16,r16,2592
    25d4:	003acc06 	br	1108 <__alt_mem_ARM_A9_HPS_axi_sdram+0xc0001108>
    25d8:	d9002c17 	ldw	r4,176(sp)
    25dc:	d9801e04 	addi	r6,sp,120
    25e0:	b80b883a 	mov	r5,r23
    25e4:	00080cc0 	call	80cc <__sprint_r>
    25e8:	103a3b1e 	bne	r2,zero,ed8 <__alt_mem_ARM_A9_HPS_axi_sdram+0xc0000ed8>
    25ec:	dc402617 	ldw	r17,152(sp)
    25f0:	d8c02017 	ldw	r3,128(sp)
    25f4:	da000404 	addi	r8,sp,16
    25f8:	003f9c06 	br	246c <__alt_mem_ARM_A9_HPS_axi_sdram+0xc000246c>
    25fc:	ac400043 	ldbu	r17,1(r21)
    2600:	94800814 	ori	r18,r18,32
    2604:	ad400044 	addi	r21,r21,1
    2608:	8c403fcc 	andi	r17,r17,255
    260c:	8c40201c 	xori	r17,r17,128
    2610:	8c7fe004 	addi	r17,r17,-128
    2614:	00398f06 	br	c54 <__alt_mem_ARM_A9_HPS_axi_sdram+0xc0000c54>
    2618:	d8c02d15 	stw	r3,180(sp)
    261c:	0039883a 	mov	fp,zero
    2620:	003e3506 	br	1ef8 <__alt_mem_ARM_A9_HPS_axi_sdram+0xc0001ef8>
    2624:	d9002c17 	ldw	r4,176(sp)
    2628:	d9801e04 	addi	r6,sp,120
    262c:	b80b883a 	mov	r5,r23
    2630:	00080cc0 	call	80cc <__sprint_r>
    2634:	103a281e 	bne	r2,zero,ed8 <__alt_mem_ARM_A9_HPS_axi_sdram+0xc0000ed8>
    2638:	d8c02017 	ldw	r3,128(sp)
    263c:	da000404 	addi	r8,sp,16
    2640:	003cd006 	br	1984 <__alt_mem_ARM_A9_HPS_axi_sdram+0xc0001984>
    2644:	8009883a 	mov	r4,r16
    2648:	da003d15 	stw	r8,244(sp)
    264c:	0000a380 	call	a38 <strlen>
    2650:	d8802e15 	stw	r2,184(sp)
    2654:	da003d17 	ldw	r8,244(sp)
    2658:	103c340e 	bge	r2,zero,172c <__alt_mem_ARM_A9_HPS_axi_sdram+0xc000172c>
    265c:	0005883a 	mov	r2,zero
    2660:	003c3206 	br	172c <__alt_mem_ARM_A9_HPS_axi_sdram+0xc000172c>
    2664:	d9002c17 	ldw	r4,176(sp)
    2668:	d9801e04 	addi	r6,sp,120
    266c:	b80b883a 	mov	r5,r23
    2670:	00080cc0 	call	80cc <__sprint_r>
    2674:	103a181e 	bne	r2,zero,ed8 <__alt_mem_ARM_A9_HPS_axi_sdram+0xc0000ed8>
    2678:	d8c02017 	ldw	r3,128(sp)
    267c:	d8801f17 	ldw	r2,124(sp)
    2680:	da000404 	addi	r8,sp,16
    2684:	d9403317 	ldw	r5,204(sp)
    2688:	10800044 	addi	r2,r2,1
    268c:	44000015 	stw	r16,0(r8)
    2690:	28c7883a 	add	r3,r5,r3
    2694:	003b7d06 	br	148c <__alt_mem_ARM_A9_HPS_axi_sdram+0xc000148c>
    2698:	01000074 	movhi	r4,1
    269c:	21029c84 	addi	r4,r4,2674
    26a0:	d9003515 	stw	r4,212(sp)
    26a4:	003b1406 	br	12f8 <__alt_mem_ARM_A9_HPS_axi_sdram+0xc00012f8>
    26a8:	013fffc4 	movi	r4,-1
    26ac:	003a3506 	br	f84 <__alt_mem_ARM_A9_HPS_axi_sdram+0xc0000f84>
    26b0:	0023883a 	mov	r17,zero
    26b4:	003d9d06 	br	1d2c <__alt_mem_ARM_A9_HPS_axi_sdram+0xc0001d2c>
    26b8:	d9002c17 	ldw	r4,176(sp)
    26bc:	d9801e04 	addi	r6,sp,120
    26c0:	b80b883a 	mov	r5,r23
    26c4:	00080cc0 	call	80cc <__sprint_r>
    26c8:	103a031e 	bne	r2,zero,ed8 <__alt_mem_ARM_A9_HPS_axi_sdram+0xc0000ed8>
    26cc:	d8c02017 	ldw	r3,128(sp)
    26d0:	da000404 	addi	r8,sp,16
    26d4:	003d9406 	br	1d28 <__alt_mem_ARM_A9_HPS_axi_sdram+0xc0001d28>
    26d8:	01000074 	movhi	r4,1
    26dc:	21029884 	addi	r4,r4,2658
    26e0:	d9002b15 	stw	r4,172(sp)
    26e4:	d9002b17 	ldw	r4,172(sp)
    26e8:	1c47883a 	add	r3,r3,r17
    26ec:	10800044 	addi	r2,r2,1
    26f0:	41000015 	stw	r4,0(r8)
    26f4:	44400115 	stw	r17,4(r8)
    26f8:	d8c02015 	stw	r3,128(sp)
    26fc:	d8801f15 	stw	r2,124(sp)
    2700:	010001c4 	movi	r4,7
    2704:	20bfd716 	blt	r4,r2,2664 <__alt_mem_ARM_A9_HPS_axi_sdram+0xc0002664>
    2708:	42000204 	addi	r8,r8,8
    270c:	003fdd06 	br	2684 <__alt_mem_ARM_A9_HPS_axi_sdram+0xc0002684>
    2710:	d9002c17 	ldw	r4,176(sp)
    2714:	d9801e04 	addi	r6,sp,120
    2718:	b80b883a 	mov	r5,r23
    271c:	00080cc0 	call	80cc <__sprint_r>
    2720:	1039ed1e 	bne	r2,zero,ed8 <__alt_mem_ARM_A9_HPS_axi_sdram+0xc0000ed8>
    2724:	d8802617 	ldw	r2,152(sp)
    2728:	d8c02017 	ldw	r3,128(sp)
    272c:	da000404 	addi	r8,sp,16
    2730:	003e1006 	br	1f74 <__alt_mem_ARM_A9_HPS_axi_sdram+0xc0001f74>
    2734:	00800044 	movi	r2,1
    2738:	10803fcc 	andi	r2,r2,255
    273c:	00c00044 	movi	r3,1
    2740:	10fa3526 	beq	r2,r3,1018 <__alt_mem_ARM_A9_HPS_axi_sdram+0xc0001018>
    2744:	00c00084 	movi	r3,2
    2748:	10fbcb26 	beq	r2,r3,1678 <__alt_mem_ARM_A9_HPS_axi_sdram+0xc0001678>
    274c:	003a8f06 	br	118c <__alt_mem_ARM_A9_HPS_axi_sdram+0xc000118c>
    2750:	01000074 	movhi	r4,1
    2754:	21029c84 	addi	r4,r4,2674
    2758:	d9003515 	stw	r4,212(sp)
    275c:	003b7606 	br	1538 <__alt_mem_ARM_A9_HPS_axi_sdram+0xc0001538>
    2760:	d8802917 	ldw	r2,164(sp)
    2764:	00c00184 	movi	r3,6
    2768:	1880012e 	bgeu	r3,r2,2770 <___vfprintf_internal_r+0x1ca0>
    276c:	1805883a 	mov	r2,r3
    2770:	d8802e15 	stw	r2,184(sp)
    2774:	1000ef16 	blt	r2,zero,2b34 <___vfprintf_internal_r+0x2064>
    2778:	04000074 	movhi	r16,1
    277c:	d8802a15 	stw	r2,168(sp)
    2780:	dcc02d15 	stw	r19,180(sp)
    2784:	d8002915 	stw	zero,164(sp)
    2788:	d8003215 	stw	zero,200(sp)
    278c:	84029604 	addi	r16,r16,2648
    2790:	0039883a 	mov	fp,zero
    2794:	003aa206 	br	1220 <__alt_mem_ARM_A9_HPS_axi_sdram+0xc0001220>
    2798:	0021883a 	mov	r16,zero
    279c:	003e0706 	br	1fbc <__alt_mem_ARM_A9_HPS_axi_sdram+0xc0001fbc>
    27a0:	d9002c17 	ldw	r4,176(sp)
    27a4:	d9801e04 	addi	r6,sp,120
    27a8:	b80b883a 	mov	r5,r23
    27ac:	00080cc0 	call	80cc <__sprint_r>
    27b0:	1039c91e 	bne	r2,zero,ed8 <__alt_mem_ARM_A9_HPS_axi_sdram+0xc0000ed8>
    27b4:	d8802617 	ldw	r2,152(sp)
    27b8:	d9403317 	ldw	r5,204(sp)
    27bc:	d8c02017 	ldw	r3,128(sp)
    27c0:	da000404 	addi	r8,sp,16
    27c4:	2885c83a 	sub	r2,r5,r2
    27c8:	003dfb06 	br	1fb8 <__alt_mem_ARM_A9_HPS_axi_sdram+0xc0001fb8>
    27cc:	9080004c 	andi	r2,r18,1
    27d0:	103e8f1e 	bne	r2,zero,2210 <__alt_mem_ARM_A9_HPS_axi_sdram+0xc0002210>
    27d4:	d8802117 	ldw	r2,132(sp)
    27d8:	003e9e06 	br	2254 <__alt_mem_ARM_A9_HPS_axi_sdram+0xc0002254>
    27dc:	1025883a 	mov	r18,r2
    27e0:	0039883a 	mov	fp,zero
    27e4:	00800084 	movi	r2,2
    27e8:	003fd306 	br	2738 <__alt_mem_ARM_A9_HPS_axi_sdram+0xc0002738>
    27ec:	07000b44 	movi	fp,45
    27f0:	df002785 	stb	fp,158(sp)
    27f4:	003a4006 	br	10f8 <__alt_mem_ARM_A9_HPS_axi_sdram+0xc00010f8>
    27f8:	00c00b44 	movi	r3,45
    27fc:	d8c02785 	stb	r3,158(sp)
    2800:	d8802a15 	stw	r2,168(sp)
    2804:	dc802b17 	ldw	r18,172(sp)
    2808:	d8002915 	stw	zero,164(sp)
    280c:	07000b44 	movi	fp,45
    2810:	003a8006 	br	1214 <__alt_mem_ARM_A9_HPS_axi_sdram+0xc0001214>
    2814:	04000074 	movhi	r16,1
    2818:	84028b04 	addi	r16,r16,2604
    281c:	003f4706 	br	253c <__alt_mem_ARM_A9_HPS_axi_sdram+0xc000253c>
    2820:	d8c02d17 	ldw	r3,180(sp)
    2824:	d9002f17 	ldw	r4,188(sp)
    2828:	18800017 	ldw	r2,0(r3)
    282c:	18c00104 	addi	r3,r3,4
    2830:	d8c02d15 	stw	r3,180(sp)
    2834:	11000015 	stw	r4,0(r2)
    2838:	0038dd06 	br	bb0 <__alt_mem_ARM_A9_HPS_axi_sdram+0xc0000bb0>
    283c:	dd802617 	ldw	r22,152(sp)
    2840:	00bfff44 	movi	r2,-3
    2844:	b0801c16 	blt	r22,r2,28b8 <___vfprintf_internal_r+0x1de8>
    2848:	d9402917 	ldw	r5,164(sp)
    284c:	2d801a16 	blt	r5,r22,28b8 <___vfprintf_internal_r+0x1de8>
    2850:	dd803215 	stw	r22,200(sp)
    2854:	003e8906 	br	227c <__alt_mem_ARM_A9_HPS_axi_sdram+0xc000227c>
    2858:	01000074 	movhi	r4,1
    285c:	21029884 	addi	r4,r4,2658
    2860:	d9002b15 	stw	r4,172(sp)
    2864:	003c9106 	br	1aac <__alt_mem_ARM_A9_HPS_axi_sdram+0xc0001aac>
    2868:	e005883a 	mov	r2,fp
    286c:	003e7906 	br	2254 <__alt_mem_ARM_A9_HPS_axi_sdram+0xc0002254>
    2870:	d9402917 	ldw	r5,164(sp)
    2874:	df002783 	ldbu	fp,158(sp)
    2878:	dcc02d15 	stw	r19,180(sp)
    287c:	d9402a15 	stw	r5,168(sp)
    2880:	d9402e15 	stw	r5,184(sp)
    2884:	d8002915 	stw	zero,164(sp)
    2888:	d8003215 	stw	zero,200(sp)
    288c:	003a5d06 	br	1204 <__alt_mem_ARM_A9_HPS_axi_sdram+0xc0001204>
    2890:	9080004c 	andi	r2,r18,1
    2894:	0039883a 	mov	fp,zero
    2898:	10000426 	beq	r2,zero,28ac <___vfprintf_internal_r+0x1ddc>
    289c:	00800c04 	movi	r2,48
    28a0:	dc001dc4 	addi	r16,sp,119
    28a4:	d8801dc5 	stb	r2,119(sp)
    28a8:	003b8006 	br	16ac <__alt_mem_ARM_A9_HPS_axi_sdram+0xc00016ac>
    28ac:	d8002e15 	stw	zero,184(sp)
    28b0:	dc001e04 	addi	r16,sp,120
    28b4:	003a4d06 	br	11ec <__alt_mem_ARM_A9_HPS_axi_sdram+0xc00011ec>
    28b8:	8c7fff84 	addi	r17,r17,-2
    28bc:	b5bfffc4 	addi	r22,r22,-1
    28c0:	dd802615 	stw	r22,152(sp)
    28c4:	dc4022c5 	stb	r17,139(sp)
    28c8:	b000bf16 	blt	r22,zero,2bc8 <___vfprintf_internal_r+0x20f8>
    28cc:	00800ac4 	movi	r2,43
    28d0:	d8802305 	stb	r2,140(sp)
    28d4:	00800244 	movi	r2,9
    28d8:	15807016 	blt	r2,r22,2a9c <___vfprintf_internal_r+0x1fcc>
    28dc:	00800c04 	movi	r2,48
    28e0:	b5800c04 	addi	r22,r22,48
    28e4:	d8802345 	stb	r2,141(sp)
    28e8:	dd802385 	stb	r22,142(sp)
    28ec:	d88023c4 	addi	r2,sp,143
    28f0:	df0022c4 	addi	fp,sp,139
    28f4:	d8c03317 	ldw	r3,204(sp)
    28f8:	1739c83a 	sub	fp,r2,fp
    28fc:	d9003317 	ldw	r4,204(sp)
    2900:	e0c7883a 	add	r3,fp,r3
    2904:	df003a15 	stw	fp,232(sp)
    2908:	d8c02e15 	stw	r3,184(sp)
    290c:	00800044 	movi	r2,1
    2910:	1100b30e 	bge	r2,r4,2be0 <___vfprintf_internal_r+0x2110>
    2914:	d8c02e17 	ldw	r3,184(sp)
    2918:	18c00044 	addi	r3,r3,1
    291c:	d8c02e15 	stw	r3,184(sp)
    2920:	1805883a 	mov	r2,r3
    2924:	1800ac16 	blt	r3,zero,2bd8 <___vfprintf_internal_r+0x2108>
    2928:	d8003215 	stw	zero,200(sp)
    292c:	003e5d06 	br	22a4 <__alt_mem_ARM_A9_HPS_axi_sdram+0xc00022a4>
    2930:	d9002c17 	ldw	r4,176(sp)
    2934:	d9801e04 	addi	r6,sp,120
    2938:	b80b883a 	mov	r5,r23
    293c:	00080cc0 	call	80cc <__sprint_r>
    2940:	1039651e 	bne	r2,zero,ed8 <__alt_mem_ARM_A9_HPS_axi_sdram+0xc0000ed8>
    2944:	dc402617 	ldw	r17,152(sp)
    2948:	d8c02017 	ldw	r3,128(sp)
    294c:	d8801f17 	ldw	r2,124(sp)
    2950:	da000404 	addi	r8,sp,16
    2954:	003ed606 	br	24b0 <__alt_mem_ARM_A9_HPS_axi_sdram+0xc00024b0>
    2958:	582b883a 	mov	r21,r11
    295c:	d8002915 	stw	zero,164(sp)
    2960:	0038bd06 	br	c58 <__alt_mem_ARM_A9_HPS_axi_sdram+0xc0000c58>
    2964:	d8802917 	ldw	r2,164(sp)
    2968:	103e071e 	bne	r2,zero,2188 <__alt_mem_ARM_A9_HPS_axi_sdram+0xc0002188>
    296c:	dc002915 	stw	r16,164(sp)
    2970:	003e0506 	br	2188 <__alt_mem_ARM_A9_HPS_axi_sdram+0xc0002188>
    2974:	d9002917 	ldw	r4,164(sp)
    2978:	20c00044 	addi	r3,r4,1
    297c:	003e0f06 	br	21bc <__alt_mem_ARM_A9_HPS_axi_sdram+0xc00021bc>
    2980:	01400184 	movi	r5,6
    2984:	d9402915 	stw	r5,164(sp)
    2988:	003dff06 	br	2188 <__alt_mem_ARM_A9_HPS_axi_sdram+0xc0002188>
    298c:	d8802104 	addi	r2,sp,132
    2990:	d8800315 	stw	r2,12(sp)
    2994:	d8802504 	addi	r2,sp,148
    2998:	d8800215 	stw	r2,8(sp)
    299c:	d8802604 	addi	r2,sp,152
    29a0:	d8800115 	stw	r2,4(sp)
    29a4:	d8802917 	ldw	r2,164(sp)
    29a8:	d9403617 	ldw	r5,216(sp)
    29ac:	d9002c17 	ldw	r4,176(sp)
    29b0:	d8800015 	stw	r2,0(sp)
    29b4:	01c000c4 	movi	r7,3
    29b8:	980d883a 	mov	r6,r19
    29bc:	da003d15 	stw	r8,244(sp)
    29c0:	00030f40 	call	30f4 <_dtoa_r>
    29c4:	d8c02917 	ldw	r3,164(sp)
    29c8:	da003d17 	ldw	r8,244(sp)
    29cc:	1021883a 	mov	r16,r2
    29d0:	10f9883a 	add	fp,r2,r3
    29d4:	81000007 	ldb	r4,0(r16)
    29d8:	00800c04 	movi	r2,48
    29dc:	20805e26 	beq	r4,r2,2b58 <___vfprintf_internal_r+0x2088>
    29e0:	d8c02617 	ldw	r3,152(sp)
    29e4:	e0f9883a 	add	fp,fp,r3
    29e8:	003e0a06 	br	2214 <__alt_mem_ARM_A9_HPS_axi_sdram+0xc0002214>
    29ec:	00c00b44 	movi	r3,45
    29f0:	24e0003c 	xorhi	r19,r4,32768
    29f4:	d8c02a05 	stb	r3,168(sp)
    29f8:	003de906 	br	21a0 <__alt_mem_ARM_A9_HPS_axi_sdram+0xc00021a0>
    29fc:	d8c03217 	ldw	r3,200(sp)
    2a00:	00c07a0e 	bge	zero,r3,2bec <___vfprintf_internal_r+0x211c>
    2a04:	00800044 	movi	r2,1
    2a08:	d9003317 	ldw	r4,204(sp)
    2a0c:	1105883a 	add	r2,r2,r4
    2a10:	d8802e15 	stw	r2,184(sp)
    2a14:	10004e16 	blt	r2,zero,2b50 <___vfprintf_internal_r+0x2080>
    2a18:	044019c4 	movi	r17,103
    2a1c:	003e2106 	br	22a4 <__alt_mem_ARM_A9_HPS_axi_sdram+0xc00022a4>
    2a20:	d9002917 	ldw	r4,164(sp)
    2a24:	d8802104 	addi	r2,sp,132
    2a28:	d8800315 	stw	r2,12(sp)
    2a2c:	d9000015 	stw	r4,0(sp)
    2a30:	d8802504 	addi	r2,sp,148
    2a34:	d9403617 	ldw	r5,216(sp)
    2a38:	d9002c17 	ldw	r4,176(sp)
    2a3c:	d8800215 	stw	r2,8(sp)
    2a40:	d8802604 	addi	r2,sp,152
    2a44:	d8800115 	stw	r2,4(sp)
    2a48:	01c000c4 	movi	r7,3
    2a4c:	980d883a 	mov	r6,r19
    2a50:	da003d15 	stw	r8,244(sp)
    2a54:	00030f40 	call	30f4 <_dtoa_r>
    2a58:	d8c02917 	ldw	r3,164(sp)
    2a5c:	da003d17 	ldw	r8,244(sp)
    2a60:	1021883a 	mov	r16,r2
    2a64:	00801184 	movi	r2,70
    2a68:	80f9883a 	add	fp,r16,r3
    2a6c:	88bfd926 	beq	r17,r2,29d4 <__alt_mem_ARM_A9_HPS_axi_sdram+0xc00029d4>
    2a70:	003de806 	br	2214 <__alt_mem_ARM_A9_HPS_axi_sdram+0xc0002214>
    2a74:	d9002917 	ldw	r4,164(sp)
    2a78:	00c04d0e 	bge	zero,r3,2bb0 <___vfprintf_internal_r+0x20e0>
    2a7c:	2000441e 	bne	r4,zero,2b90 <___vfprintf_internal_r+0x20c0>
    2a80:	9480004c 	andi	r18,r18,1
    2a84:	9000421e 	bne	r18,zero,2b90 <___vfprintf_internal_r+0x20c0>
    2a88:	1805883a 	mov	r2,r3
    2a8c:	18007016 	blt	r3,zero,2c50 <___vfprintf_internal_r+0x2180>
    2a90:	d8c03217 	ldw	r3,200(sp)
    2a94:	d8c02e15 	stw	r3,184(sp)
    2a98:	003e0206 	br	22a4 <__alt_mem_ARM_A9_HPS_axi_sdram+0xc00022a4>
    2a9c:	df0022c4 	addi	fp,sp,139
    2aa0:	dc002915 	stw	r16,164(sp)
    2aa4:	4027883a 	mov	r19,r8
    2aa8:	e021883a 	mov	r16,fp
    2aac:	b009883a 	mov	r4,r22
    2ab0:	01400284 	movi	r5,10
    2ab4:	000aa800 	call	aa80 <__modsi3>
    2ab8:	10800c04 	addi	r2,r2,48
    2abc:	843fffc4 	addi	r16,r16,-1
    2ac0:	b009883a 	mov	r4,r22
    2ac4:	01400284 	movi	r5,10
    2ac8:	80800005 	stb	r2,0(r16)
    2acc:	000a9fc0 	call	a9fc <__divsi3>
    2ad0:	102d883a 	mov	r22,r2
    2ad4:	00800244 	movi	r2,9
    2ad8:	15bff416 	blt	r2,r22,2aac <__alt_mem_ARM_A9_HPS_axi_sdram+0xc0002aac>
    2adc:	9811883a 	mov	r8,r19
    2ae0:	b0800c04 	addi	r2,r22,48
    2ae4:	8027883a 	mov	r19,r16
    2ae8:	997fffc4 	addi	r5,r19,-1
    2aec:	98bfffc5 	stb	r2,-1(r19)
    2af0:	dc002917 	ldw	r16,164(sp)
    2af4:	2f006a2e 	bgeu	r5,fp,2ca0 <___vfprintf_internal_r+0x21d0>
    2af8:	d9c02384 	addi	r7,sp,142
    2afc:	3ccfc83a 	sub	r7,r7,r19
    2b00:	d9002344 	addi	r4,sp,141
    2b04:	e1cf883a 	add	r7,fp,r7
    2b08:	00000106 	br	2b10 <___vfprintf_internal_r+0x2040>
    2b0c:	28800003 	ldbu	r2,0(r5)
    2b10:	20800005 	stb	r2,0(r4)
    2b14:	21000044 	addi	r4,r4,1
    2b18:	29400044 	addi	r5,r5,1
    2b1c:	393ffb1e 	bne	r7,r4,2b0c <__alt_mem_ARM_A9_HPS_axi_sdram+0xc0002b0c>
    2b20:	d8802304 	addi	r2,sp,140
    2b24:	14c5c83a 	sub	r2,r2,r19
    2b28:	d8c02344 	addi	r3,sp,141
    2b2c:	1885883a 	add	r2,r3,r2
    2b30:	003f7006 	br	28f4 <__alt_mem_ARM_A9_HPS_axi_sdram+0xc00028f4>
    2b34:	0005883a 	mov	r2,zero
    2b38:	003f0f06 	br	2778 <__alt_mem_ARM_A9_HPS_axi_sdram+0xc0002778>
    2b3c:	d8c03217 	ldw	r3,200(sp)
    2b40:	18c00044 	addi	r3,r3,1
    2b44:	d8c02e15 	stw	r3,184(sp)
    2b48:	1805883a 	mov	r2,r3
    2b4c:	183fb20e 	bge	r3,zero,2a18 <__alt_mem_ARM_A9_HPS_axi_sdram+0xc0002a18>
    2b50:	0005883a 	mov	r2,zero
    2b54:	003fb006 	br	2a18 <__alt_mem_ARM_A9_HPS_axi_sdram+0xc0002a18>
    2b58:	d9003617 	ldw	r4,216(sp)
    2b5c:	000d883a 	mov	r6,zero
    2b60:	000f883a 	mov	r7,zero
    2b64:	980b883a 	mov	r5,r19
    2b68:	d8c03c15 	stw	r3,240(sp)
    2b6c:	da003d15 	stw	r8,244(sp)
    2b70:	000bd440 	call	bd44 <__eqdf2>
    2b74:	d8c03c17 	ldw	r3,240(sp)
    2b78:	da003d17 	ldw	r8,244(sp)
    2b7c:	103f9826 	beq	r2,zero,29e0 <__alt_mem_ARM_A9_HPS_axi_sdram+0xc00029e0>
    2b80:	00800044 	movi	r2,1
    2b84:	10c7c83a 	sub	r3,r2,r3
    2b88:	d8c02615 	stw	r3,152(sp)
    2b8c:	003f9506 	br	29e4 <__alt_mem_ARM_A9_HPS_axi_sdram+0xc00029e4>
    2b90:	d9002917 	ldw	r4,164(sp)
    2b94:	d8c03217 	ldw	r3,200(sp)
    2b98:	20800044 	addi	r2,r4,1
    2b9c:	1885883a 	add	r2,r3,r2
    2ba0:	d8802e15 	stw	r2,184(sp)
    2ba4:	103dbf0e 	bge	r2,zero,22a4 <__alt_mem_ARM_A9_HPS_axi_sdram+0xc00022a4>
    2ba8:	0005883a 	mov	r2,zero
    2bac:	003dbd06 	br	22a4 <__alt_mem_ARM_A9_HPS_axi_sdram+0xc00022a4>
    2bb0:	2000211e 	bne	r4,zero,2c38 <___vfprintf_internal_r+0x2168>
    2bb4:	9480004c 	andi	r18,r18,1
    2bb8:	90001f1e 	bne	r18,zero,2c38 <___vfprintf_internal_r+0x2168>
    2bbc:	00800044 	movi	r2,1
    2bc0:	d8802e15 	stw	r2,184(sp)
    2bc4:	003db706 	br	22a4 <__alt_mem_ARM_A9_HPS_axi_sdram+0xc00022a4>
    2bc8:	00800b44 	movi	r2,45
    2bcc:	05adc83a 	sub	r22,zero,r22
    2bd0:	d8802305 	stb	r2,140(sp)
    2bd4:	003f3f06 	br	28d4 <__alt_mem_ARM_A9_HPS_axi_sdram+0xc00028d4>
    2bd8:	0005883a 	mov	r2,zero
    2bdc:	003f5206 	br	2928 <__alt_mem_ARM_A9_HPS_axi_sdram+0xc0002928>
    2be0:	90a4703a 	and	r18,r18,r2
    2be4:	903f4e26 	beq	r18,zero,2920 <__alt_mem_ARM_A9_HPS_axi_sdram+0xc0002920>
    2be8:	003f4a06 	br	2914 <__alt_mem_ARM_A9_HPS_axi_sdram+0xc0002914>
    2bec:	00800084 	movi	r2,2
    2bf0:	10c5c83a 	sub	r2,r2,r3
    2bf4:	003f8406 	br	2a08 <__alt_mem_ARM_A9_HPS_axi_sdram+0xc0002a08>
    2bf8:	d8802d17 	ldw	r2,180(sp)
    2bfc:	d9002d17 	ldw	r4,180(sp)
    2c00:	ac400043 	ldbu	r17,1(r21)
    2c04:	10800017 	ldw	r2,0(r2)
    2c08:	582b883a 	mov	r21,r11
    2c0c:	d8802915 	stw	r2,164(sp)
    2c10:	20800104 	addi	r2,r4,4
    2c14:	d9002917 	ldw	r4,164(sp)
    2c18:	d8802d15 	stw	r2,180(sp)
    2c1c:	203e7a0e 	bge	r4,zero,2608 <__alt_mem_ARM_A9_HPS_axi_sdram+0xc0002608>
    2c20:	8c403fcc 	andi	r17,r17,255
    2c24:	00bfffc4 	movi	r2,-1
    2c28:	8c40201c 	xori	r17,r17,128
    2c2c:	d8802915 	stw	r2,164(sp)
    2c30:	8c7fe004 	addi	r17,r17,-128
    2c34:	00380706 	br	c54 <__alt_mem_ARM_A9_HPS_axi_sdram+0xc0000c54>
    2c38:	d8c02917 	ldw	r3,164(sp)
    2c3c:	18c00084 	addi	r3,r3,2
    2c40:	d8c02e15 	stw	r3,184(sp)
    2c44:	1805883a 	mov	r2,r3
    2c48:	183d960e 	bge	r3,zero,22a4 <__alt_mem_ARM_A9_HPS_axi_sdram+0xc00022a4>
    2c4c:	003fd606 	br	2ba8 <__alt_mem_ARM_A9_HPS_axi_sdram+0xc0002ba8>
    2c50:	0005883a 	mov	r2,zero
    2c54:	003f8e06 	br	2a90 <__alt_mem_ARM_A9_HPS_axi_sdram+0xc0002a90>
    2c58:	9080004c 	andi	r2,r18,1
    2c5c:	103f811e 	bne	r2,zero,2a64 <__alt_mem_ARM_A9_HPS_axi_sdram+0xc0002a64>
    2c60:	d8802117 	ldw	r2,132(sp)
    2c64:	1405c83a 	sub	r2,r2,r16
    2c68:	d8803315 	stw	r2,204(sp)
    2c6c:	b47ef326 	beq	r22,r17,283c <__alt_mem_ARM_A9_HPS_axi_sdram+0xc000283c>
    2c70:	dd802617 	ldw	r22,152(sp)
    2c74:	003f1106 	br	28bc <__alt_mem_ARM_A9_HPS_axi_sdram+0xc00028bc>
    2c78:	d9c02785 	stb	r7,158(sp)
    2c7c:	00390406 	br	1090 <__alt_mem_ARM_A9_HPS_axi_sdram+0xc0001090>
    2c80:	d9c02785 	stb	r7,158(sp)
    2c84:	0038d306 	br	fd4 <__alt_mem_ARM_A9_HPS_axi_sdram+0xc0000fd4>
    2c88:	d9c02785 	stb	r7,158(sp)
    2c8c:	003a6106 	br	1614 <__alt_mem_ARM_A9_HPS_axi_sdram+0xc0001614>
    2c90:	d9c02785 	stb	r7,158(sp)
    2c94:	003af806 	br	1878 <__alt_mem_ARM_A9_HPS_axi_sdram+0xc0001878>
    2c98:	0005883a 	mov	r2,zero
    2c9c:	003d7e06 	br	2298 <__alt_mem_ARM_A9_HPS_axi_sdram+0xc0002298>
    2ca0:	d8802344 	addi	r2,sp,141
    2ca4:	003f1306 	br	28f4 <__alt_mem_ARM_A9_HPS_axi_sdram+0xc00028f4>
    2ca8:	d9c02785 	stb	r7,158(sp)
    2cac:	00392306 	br	113c <__alt_mem_ARM_A9_HPS_axi_sdram+0xc000113c>
    2cb0:	d9c02785 	stb	r7,158(sp)
    2cb4:	003aa906 	br	175c <__alt_mem_ARM_A9_HPS_axi_sdram+0xc000175c>
    2cb8:	d9c02785 	stb	r7,158(sp)
    2cbc:	003a3d06 	br	15b4 <__alt_mem_ARM_A9_HPS_axi_sdram+0xc00015b4>
    2cc0:	d9c02785 	stb	r7,158(sp)
    2cc4:	003aca06 	br	17f0 <__alt_mem_ARM_A9_HPS_axi_sdram+0xc00017f0>

00002cc8 <__vfprintf_internal>:
    2cc8:	00800074 	movhi	r2,1
    2ccc:	108ab804 	addi	r2,r2,10976
    2cd0:	300f883a 	mov	r7,r6
    2cd4:	280d883a 	mov	r6,r5
    2cd8:	200b883a 	mov	r5,r4
    2cdc:	11000017 	ldw	r4,0(r2)
    2ce0:	0000ad01 	jmpi	ad0 <___vfprintf_internal_r>

00002ce4 <__sbprintf>:
    2ce4:	2880030b 	ldhu	r2,12(r5)
    2ce8:	2ac01917 	ldw	r11,100(r5)
    2cec:	2a80038b 	ldhu	r10,14(r5)
    2cf0:	2a400717 	ldw	r9,28(r5)
    2cf4:	2a000917 	ldw	r8,36(r5)
    2cf8:	defee204 	addi	sp,sp,-1144
    2cfc:	00c10004 	movi	r3,1024
    2d00:	dc011a15 	stw	r16,1128(sp)
    2d04:	10bfff4c 	andi	r2,r2,65533
    2d08:	2821883a 	mov	r16,r5
    2d0c:	d8cb883a 	add	r5,sp,r3
    2d10:	dc811c15 	stw	r18,1136(sp)
    2d14:	dc411b15 	stw	r17,1132(sp)
    2d18:	dfc11d15 	stw	ra,1140(sp)
    2d1c:	2025883a 	mov	r18,r4
    2d20:	d881030d 	sth	r2,1036(sp)
    2d24:	dac11915 	stw	r11,1124(sp)
    2d28:	da81038d 	sth	r10,1038(sp)
    2d2c:	da410715 	stw	r9,1052(sp)
    2d30:	da010915 	stw	r8,1060(sp)
    2d34:	dec10015 	stw	sp,1024(sp)
    2d38:	dec10415 	stw	sp,1040(sp)
    2d3c:	d8c10215 	stw	r3,1032(sp)
    2d40:	d8c10515 	stw	r3,1044(sp)
    2d44:	d8010615 	stw	zero,1048(sp)
    2d48:	0000ad00 	call	ad0 <___vfprintf_internal_r>
    2d4c:	1023883a 	mov	r17,r2
    2d50:	10000416 	blt	r2,zero,2d64 <__sbprintf+0x80>
    2d54:	d9410004 	addi	r5,sp,1024
    2d58:	9009883a 	mov	r4,r18
    2d5c:	00049980 	call	4998 <_fflush_r>
    2d60:	10000d1e 	bne	r2,zero,2d98 <__sbprintf+0xb4>
    2d64:	d881030b 	ldhu	r2,1036(sp)
    2d68:	1080100c 	andi	r2,r2,64
    2d6c:	10000326 	beq	r2,zero,2d7c <__sbprintf+0x98>
    2d70:	8080030b 	ldhu	r2,12(r16)
    2d74:	10801014 	ori	r2,r2,64
    2d78:	8080030d 	sth	r2,12(r16)
    2d7c:	8805883a 	mov	r2,r17
    2d80:	dfc11d17 	ldw	ra,1140(sp)
    2d84:	dc811c17 	ldw	r18,1136(sp)
    2d88:	dc411b17 	ldw	r17,1132(sp)
    2d8c:	dc011a17 	ldw	r16,1128(sp)
    2d90:	dec11e04 	addi	sp,sp,1144
    2d94:	f800283a 	ret
    2d98:	047fffc4 	movi	r17,-1
    2d9c:	003ff106 	br	2d64 <__alt_mem_ARM_A9_HPS_axi_sdram+0xc0002d64>

00002da0 <__swsetup_r>:
    2da0:	00800074 	movhi	r2,1
    2da4:	defffd04 	addi	sp,sp,-12
    2da8:	108ab804 	addi	r2,r2,10976
    2dac:	dc400115 	stw	r17,4(sp)
    2db0:	2023883a 	mov	r17,r4
    2db4:	11000017 	ldw	r4,0(r2)
    2db8:	dc000015 	stw	r16,0(sp)
    2dbc:	dfc00215 	stw	ra,8(sp)
    2dc0:	2821883a 	mov	r16,r5
    2dc4:	20000226 	beq	r4,zero,2dd0 <__swsetup_r+0x30>
    2dc8:	20800e17 	ldw	r2,56(r4)
    2dcc:	10003126 	beq	r2,zero,2e94 <__swsetup_r+0xf4>
    2dd0:	8080030b 	ldhu	r2,12(r16)
    2dd4:	10c0020c 	andi	r3,r2,8
    2dd8:	1009883a 	mov	r4,r2
    2ddc:	18000f26 	beq	r3,zero,2e1c <__swsetup_r+0x7c>
    2de0:	80c00417 	ldw	r3,16(r16)
    2de4:	18001526 	beq	r3,zero,2e3c <__swsetup_r+0x9c>
    2de8:	1100004c 	andi	r4,r2,1
    2dec:	20001c1e 	bne	r4,zero,2e60 <__swsetup_r+0xc0>
    2df0:	1080008c 	andi	r2,r2,2
    2df4:	1000291e 	bne	r2,zero,2e9c <__swsetup_r+0xfc>
    2df8:	80800517 	ldw	r2,20(r16)
    2dfc:	80800215 	stw	r2,8(r16)
    2e00:	18001c26 	beq	r3,zero,2e74 <__swsetup_r+0xd4>
    2e04:	0005883a 	mov	r2,zero
    2e08:	dfc00217 	ldw	ra,8(sp)
    2e0c:	dc400117 	ldw	r17,4(sp)
    2e10:	dc000017 	ldw	r16,0(sp)
    2e14:	dec00304 	addi	sp,sp,12
    2e18:	f800283a 	ret
    2e1c:	2080040c 	andi	r2,r4,16
    2e20:	10002e26 	beq	r2,zero,2edc <__swsetup_r+0x13c>
    2e24:	2080010c 	andi	r2,r4,4
    2e28:	10001e1e 	bne	r2,zero,2ea4 <__swsetup_r+0x104>
    2e2c:	80c00417 	ldw	r3,16(r16)
    2e30:	20800214 	ori	r2,r4,8
    2e34:	8080030d 	sth	r2,12(r16)
    2e38:	183feb1e 	bne	r3,zero,2de8 <__alt_mem_ARM_A9_HPS_axi_sdram+0xc0002de8>
    2e3c:	1100a00c 	andi	r4,r2,640
    2e40:	01408004 	movi	r5,512
    2e44:	217fe826 	beq	r4,r5,2de8 <__alt_mem_ARM_A9_HPS_axi_sdram+0xc0002de8>
    2e48:	800b883a 	mov	r5,r16
    2e4c:	8809883a 	mov	r4,r17
    2e50:	00059180 	call	5918 <__smakebuf_r>
    2e54:	8080030b 	ldhu	r2,12(r16)
    2e58:	80c00417 	ldw	r3,16(r16)
    2e5c:	003fe206 	br	2de8 <__alt_mem_ARM_A9_HPS_axi_sdram+0xc0002de8>
    2e60:	80800517 	ldw	r2,20(r16)
    2e64:	80000215 	stw	zero,8(r16)
    2e68:	0085c83a 	sub	r2,zero,r2
    2e6c:	80800615 	stw	r2,24(r16)
    2e70:	183fe41e 	bne	r3,zero,2e04 <__alt_mem_ARM_A9_HPS_axi_sdram+0xc0002e04>
    2e74:	80c0030b 	ldhu	r3,12(r16)
    2e78:	0005883a 	mov	r2,zero
    2e7c:	1900200c 	andi	r4,r3,128
    2e80:	203fe126 	beq	r4,zero,2e08 <__alt_mem_ARM_A9_HPS_axi_sdram+0xc0002e08>
    2e84:	18c01014 	ori	r3,r3,64
    2e88:	80c0030d 	sth	r3,12(r16)
    2e8c:	00bfffc4 	movi	r2,-1
    2e90:	003fdd06 	br	2e08 <__alt_mem_ARM_A9_HPS_axi_sdram+0xc0002e08>
    2e94:	0004d740 	call	4d74 <__sinit>
    2e98:	003fcd06 	br	2dd0 <__alt_mem_ARM_A9_HPS_axi_sdram+0xc0002dd0>
    2e9c:	0005883a 	mov	r2,zero
    2ea0:	003fd606 	br	2dfc <__alt_mem_ARM_A9_HPS_axi_sdram+0xc0002dfc>
    2ea4:	81400c17 	ldw	r5,48(r16)
    2ea8:	28000626 	beq	r5,zero,2ec4 <__swsetup_r+0x124>
    2eac:	80801004 	addi	r2,r16,64
    2eb0:	28800326 	beq	r5,r2,2ec0 <__swsetup_r+0x120>
    2eb4:	8809883a 	mov	r4,r17
    2eb8:	0004ee80 	call	4ee8 <_free_r>
    2ebc:	8100030b 	ldhu	r4,12(r16)
    2ec0:	80000c15 	stw	zero,48(r16)
    2ec4:	80c00417 	ldw	r3,16(r16)
    2ec8:	00bff6c4 	movi	r2,-37
    2ecc:	1108703a 	and	r4,r2,r4
    2ed0:	80000115 	stw	zero,4(r16)
    2ed4:	80c00015 	stw	r3,0(r16)
    2ed8:	003fd506 	br	2e30 <__alt_mem_ARM_A9_HPS_axi_sdram+0xc0002e30>
    2edc:	00800244 	movi	r2,9
    2ee0:	88800015 	stw	r2,0(r17)
    2ee4:	20801014 	ori	r2,r4,64
    2ee8:	8080030d 	sth	r2,12(r16)
    2eec:	00bfffc4 	movi	r2,-1
    2ef0:	003fc506 	br	2e08 <__alt_mem_ARM_A9_HPS_axi_sdram+0xc0002e08>

00002ef4 <quorem>:
    2ef4:	defff704 	addi	sp,sp,-36
    2ef8:	dc800215 	stw	r18,8(sp)
    2efc:	20800417 	ldw	r2,16(r4)
    2f00:	2c800417 	ldw	r18,16(r5)
    2f04:	dfc00815 	stw	ra,32(sp)
    2f08:	ddc00715 	stw	r23,28(sp)
    2f0c:	dd800615 	stw	r22,24(sp)
    2f10:	dd400515 	stw	r21,20(sp)
    2f14:	dd000415 	stw	r20,16(sp)
    2f18:	dcc00315 	stw	r19,12(sp)
    2f1c:	dc400115 	stw	r17,4(sp)
    2f20:	dc000015 	stw	r16,0(sp)
    2f24:	14807116 	blt	r2,r18,30ec <quorem+0x1f8>
    2f28:	94bfffc4 	addi	r18,r18,-1
    2f2c:	94ad883a 	add	r22,r18,r18
    2f30:	b5ad883a 	add	r22,r22,r22
    2f34:	2c400504 	addi	r17,r5,20
    2f38:	8da9883a 	add	r20,r17,r22
    2f3c:	25400504 	addi	r21,r4,20
    2f40:	282f883a 	mov	r23,r5
    2f44:	adad883a 	add	r22,r21,r22
    2f48:	a1400017 	ldw	r5,0(r20)
    2f4c:	2021883a 	mov	r16,r4
    2f50:	b1000017 	ldw	r4,0(r22)
    2f54:	29400044 	addi	r5,r5,1
    2f58:	000aaf40 	call	aaf4 <__udivsi3>
    2f5c:	1027883a 	mov	r19,r2
    2f60:	10002c26 	beq	r2,zero,3014 <quorem+0x120>
    2f64:	a813883a 	mov	r9,r21
    2f68:	880b883a 	mov	r5,r17
    2f6c:	0009883a 	mov	r4,zero
    2f70:	000d883a 	mov	r6,zero
    2f74:	2a000017 	ldw	r8,0(r5)
    2f78:	49c00017 	ldw	r7,0(r9)
    2f7c:	29400104 	addi	r5,r5,4
    2f80:	40bfffcc 	andi	r2,r8,65535
    2f84:	14c5383a 	mul	r2,r2,r19
    2f88:	4010d43a 	srli	r8,r8,16
    2f8c:	38ffffcc 	andi	r3,r7,65535
    2f90:	1105883a 	add	r2,r2,r4
    2f94:	1008d43a 	srli	r4,r2,16
    2f98:	44d1383a 	mul	r8,r8,r19
    2f9c:	198d883a 	add	r6,r3,r6
    2fa0:	10ffffcc 	andi	r3,r2,65535
    2fa4:	30c7c83a 	sub	r3,r6,r3
    2fa8:	380ed43a 	srli	r7,r7,16
    2fac:	4105883a 	add	r2,r8,r4
    2fb0:	180dd43a 	srai	r6,r3,16
    2fb4:	113fffcc 	andi	r4,r2,65535
    2fb8:	390fc83a 	sub	r7,r7,r4
    2fbc:	398d883a 	add	r6,r7,r6
    2fc0:	300e943a 	slli	r7,r6,16
    2fc4:	18ffffcc 	andi	r3,r3,65535
    2fc8:	1008d43a 	srli	r4,r2,16
    2fcc:	38ceb03a 	or	r7,r7,r3
    2fd0:	49c00015 	stw	r7,0(r9)
    2fd4:	300dd43a 	srai	r6,r6,16
    2fd8:	4a400104 	addi	r9,r9,4
    2fdc:	a17fe52e 	bgeu	r20,r5,2f74 <__alt_mem_ARM_A9_HPS_axi_sdram+0xc0002f74>
    2fe0:	b0800017 	ldw	r2,0(r22)
    2fe4:	10000b1e 	bne	r2,zero,3014 <quorem+0x120>
    2fe8:	b0bfff04 	addi	r2,r22,-4
    2fec:	a880082e 	bgeu	r21,r2,3010 <quorem+0x11c>
    2ff0:	b0ffff17 	ldw	r3,-4(r22)
    2ff4:	18000326 	beq	r3,zero,3004 <quorem+0x110>
    2ff8:	00000506 	br	3010 <quorem+0x11c>
    2ffc:	10c00017 	ldw	r3,0(r2)
    3000:	1800031e 	bne	r3,zero,3010 <quorem+0x11c>
    3004:	10bfff04 	addi	r2,r2,-4
    3008:	94bfffc4 	addi	r18,r18,-1
    300c:	a8bffb36 	bltu	r21,r2,2ffc <__alt_mem_ARM_A9_HPS_axi_sdram+0xc0002ffc>
    3010:	84800415 	stw	r18,16(r16)
    3014:	b80b883a 	mov	r5,r23
    3018:	8009883a 	mov	r4,r16
    301c:	00070580 	call	7058 <__mcmp>
    3020:	10002616 	blt	r2,zero,30bc <quorem+0x1c8>
    3024:	9cc00044 	addi	r19,r19,1
    3028:	a805883a 	mov	r2,r21
    302c:	000b883a 	mov	r5,zero
    3030:	11000017 	ldw	r4,0(r2)
    3034:	89800017 	ldw	r6,0(r17)
    3038:	10800104 	addi	r2,r2,4
    303c:	20ffffcc 	andi	r3,r4,65535
    3040:	194b883a 	add	r5,r3,r5
    3044:	30ffffcc 	andi	r3,r6,65535
    3048:	28c7c83a 	sub	r3,r5,r3
    304c:	300cd43a 	srli	r6,r6,16
    3050:	2008d43a 	srli	r4,r4,16
    3054:	180bd43a 	srai	r5,r3,16
    3058:	18ffffcc 	andi	r3,r3,65535
    305c:	2189c83a 	sub	r4,r4,r6
    3060:	2149883a 	add	r4,r4,r5
    3064:	200c943a 	slli	r6,r4,16
    3068:	8c400104 	addi	r17,r17,4
    306c:	200bd43a 	srai	r5,r4,16
    3070:	30c6b03a 	or	r3,r6,r3
    3074:	10ffff15 	stw	r3,-4(r2)
    3078:	a47fed2e 	bgeu	r20,r17,3030 <__alt_mem_ARM_A9_HPS_axi_sdram+0xc0003030>
    307c:	9485883a 	add	r2,r18,r18
    3080:	1085883a 	add	r2,r2,r2
    3084:	a887883a 	add	r3,r21,r2
    3088:	18800017 	ldw	r2,0(r3)
    308c:	10000b1e 	bne	r2,zero,30bc <quorem+0x1c8>
    3090:	18bfff04 	addi	r2,r3,-4
    3094:	a880082e 	bgeu	r21,r2,30b8 <quorem+0x1c4>
    3098:	18ffff17 	ldw	r3,-4(r3)
    309c:	18000326 	beq	r3,zero,30ac <quorem+0x1b8>
    30a0:	00000506 	br	30b8 <quorem+0x1c4>
    30a4:	10c00017 	ldw	r3,0(r2)
    30a8:	1800031e 	bne	r3,zero,30b8 <quorem+0x1c4>
    30ac:	10bfff04 	addi	r2,r2,-4
    30b0:	94bfffc4 	addi	r18,r18,-1
    30b4:	a8bffb36 	bltu	r21,r2,30a4 <__alt_mem_ARM_A9_HPS_axi_sdram+0xc00030a4>
    30b8:	84800415 	stw	r18,16(r16)
    30bc:	9805883a 	mov	r2,r19
    30c0:	dfc00817 	ldw	ra,32(sp)
    30c4:	ddc00717 	ldw	r23,28(sp)
    30c8:	dd800617 	ldw	r22,24(sp)
    30cc:	dd400517 	ldw	r21,20(sp)
    30d0:	dd000417 	ldw	r20,16(sp)
    30d4:	dcc00317 	ldw	r19,12(sp)
    30d8:	dc800217 	ldw	r18,8(sp)
    30dc:	dc400117 	ldw	r17,4(sp)
    30e0:	dc000017 	ldw	r16,0(sp)
    30e4:	dec00904 	addi	sp,sp,36
    30e8:	f800283a 	ret
    30ec:	0005883a 	mov	r2,zero
    30f0:	003ff306 	br	30c0 <__alt_mem_ARM_A9_HPS_axi_sdram+0xc00030c0>

000030f4 <_dtoa_r>:
    30f4:	20801017 	ldw	r2,64(r4)
    30f8:	deffde04 	addi	sp,sp,-136
    30fc:	df002015 	stw	fp,128(sp)
    3100:	dcc01b15 	stw	r19,108(sp)
    3104:	dc801a15 	stw	r18,104(sp)
    3108:	dc401915 	stw	r17,100(sp)
    310c:	dc001815 	stw	r16,96(sp)
    3110:	dfc02115 	stw	ra,132(sp)
    3114:	ddc01f15 	stw	r23,124(sp)
    3118:	dd801e15 	stw	r22,120(sp)
    311c:	dd401d15 	stw	r21,116(sp)
    3120:	dd001c15 	stw	r20,112(sp)
    3124:	d9c00315 	stw	r7,12(sp)
    3128:	2039883a 	mov	fp,r4
    312c:	3023883a 	mov	r17,r6
    3130:	2825883a 	mov	r18,r5
    3134:	dc002417 	ldw	r16,144(sp)
    3138:	3027883a 	mov	r19,r6
    313c:	10000826 	beq	r2,zero,3160 <_dtoa_r+0x6c>
    3140:	21801117 	ldw	r6,68(r4)
    3144:	00c00044 	movi	r3,1
    3148:	100b883a 	mov	r5,r2
    314c:	1986983a 	sll	r3,r3,r6
    3150:	11800115 	stw	r6,4(r2)
    3154:	10c00215 	stw	r3,8(r2)
    3158:	00068380 	call	6838 <_Bfree>
    315c:	e0001015 	stw	zero,64(fp)
    3160:	88002e16 	blt	r17,zero,321c <_dtoa_r+0x128>
    3164:	80000015 	stw	zero,0(r16)
    3168:	889ffc2c 	andhi	r2,r17,32752
    316c:	00dffc34 	movhi	r3,32752
    3170:	10c01c26 	beq	r2,r3,31e4 <_dtoa_r+0xf0>
    3174:	000d883a 	mov	r6,zero
    3178:	000f883a 	mov	r7,zero
    317c:	9009883a 	mov	r4,r18
    3180:	980b883a 	mov	r5,r19
    3184:	000bd440 	call	bd44 <__eqdf2>
    3188:	10002b1e 	bne	r2,zero,3238 <_dtoa_r+0x144>
    318c:	d9c02317 	ldw	r7,140(sp)
    3190:	00800044 	movi	r2,1
    3194:	38800015 	stw	r2,0(r7)
    3198:	d8802517 	ldw	r2,148(sp)
    319c:	10019e26 	beq	r2,zero,3818 <_dtoa_r+0x724>
    31a0:	d8c02517 	ldw	r3,148(sp)
    31a4:	00800074 	movhi	r2,1
    31a8:	10829844 	addi	r2,r2,2657
    31ac:	18800015 	stw	r2,0(r3)
    31b0:	10bfffc4 	addi	r2,r2,-1
    31b4:	dfc02117 	ldw	ra,132(sp)
    31b8:	df002017 	ldw	fp,128(sp)
    31bc:	ddc01f17 	ldw	r23,124(sp)
    31c0:	dd801e17 	ldw	r22,120(sp)
    31c4:	dd401d17 	ldw	r21,116(sp)
    31c8:	dd001c17 	ldw	r20,112(sp)
    31cc:	dcc01b17 	ldw	r19,108(sp)
    31d0:	dc801a17 	ldw	r18,104(sp)
    31d4:	dc401917 	ldw	r17,100(sp)
    31d8:	dc001817 	ldw	r16,96(sp)
    31dc:	dec02204 	addi	sp,sp,136
    31e0:	f800283a 	ret
    31e4:	d8c02317 	ldw	r3,140(sp)
    31e8:	0089c3c4 	movi	r2,9999
    31ec:	18800015 	stw	r2,0(r3)
    31f0:	90017726 	beq	r18,zero,37d0 <_dtoa_r+0x6dc>
    31f4:	00800074 	movhi	r2,1
    31f8:	1082a404 	addi	r2,r2,2704
    31fc:	d9002517 	ldw	r4,148(sp)
    3200:	203fec26 	beq	r4,zero,31b4 <__alt_mem_ARM_A9_HPS_axi_sdram+0xc00031b4>
    3204:	10c000c7 	ldb	r3,3(r2)
    3208:	1801781e 	bne	r3,zero,37ec <_dtoa_r+0x6f8>
    320c:	10c000c4 	addi	r3,r2,3
    3210:	d9802517 	ldw	r6,148(sp)
    3214:	30c00015 	stw	r3,0(r6)
    3218:	003fe606 	br	31b4 <__alt_mem_ARM_A9_HPS_axi_sdram+0xc00031b4>
    321c:	04e00034 	movhi	r19,32768
    3220:	9cffffc4 	addi	r19,r19,-1
    3224:	00800044 	movi	r2,1
    3228:	8ce6703a 	and	r19,r17,r19
    322c:	80800015 	stw	r2,0(r16)
    3230:	9823883a 	mov	r17,r19
    3234:	003fcc06 	br	3168 <__alt_mem_ARM_A9_HPS_axi_sdram+0xc0003168>
    3238:	d8800204 	addi	r2,sp,8
    323c:	d8800015 	stw	r2,0(sp)
    3240:	d9c00104 	addi	r7,sp,4
    3244:	900b883a 	mov	r5,r18
    3248:	980d883a 	mov	r6,r19
    324c:	e009883a 	mov	r4,fp
    3250:	8820d53a 	srli	r16,r17,20
    3254:	00074240 	call	7424 <__d2b>
    3258:	d8800915 	stw	r2,36(sp)
    325c:	8001651e 	bne	r16,zero,37f4 <_dtoa_r+0x700>
    3260:	dd800217 	ldw	r22,8(sp)
    3264:	dc000117 	ldw	r16,4(sp)
    3268:	00800804 	movi	r2,32
    326c:	b421883a 	add	r16,r22,r16
    3270:	80c10c84 	addi	r3,r16,1074
    3274:	10c2d10e 	bge	r2,r3,3dbc <_dtoa_r+0xcc8>
    3278:	00801004 	movi	r2,64
    327c:	81010484 	addi	r4,r16,1042
    3280:	10c7c83a 	sub	r3,r2,r3
    3284:	9108d83a 	srl	r4,r18,r4
    3288:	88e2983a 	sll	r17,r17,r3
    328c:	2448b03a 	or	r4,r4,r17
    3290:	000d10c0 	call	d10c <__floatunsidf>
    3294:	017f8434 	movhi	r5,65040
    3298:	01800044 	movi	r6,1
    329c:	1009883a 	mov	r4,r2
    32a0:	194b883a 	add	r5,r3,r5
    32a4:	843fffc4 	addi	r16,r16,-1
    32a8:	d9801115 	stw	r6,68(sp)
    32ac:	000d883a 	mov	r6,zero
    32b0:	01cffe34 	movhi	r7,16376
    32b4:	000c6b40 	call	c6b4 <__subdf3>
    32b8:	0198dbf4 	movhi	r6,25455
    32bc:	01cff4f4 	movhi	r7,16339
    32c0:	3190d844 	addi	r6,r6,17249
    32c4:	39e1e9c4 	addi	r7,r7,-30809
    32c8:	1009883a 	mov	r4,r2
    32cc:	180b883a 	mov	r5,r3
    32d0:	000bf9c0 	call	bf9c <__muldf3>
    32d4:	01a2d874 	movhi	r6,35681
    32d8:	01cff1f4 	movhi	r7,16327
    32dc:	31b22cc4 	addi	r6,r6,-14157
    32e0:	39e28a04 	addi	r7,r7,-30168
    32e4:	180b883a 	mov	r5,r3
    32e8:	1009883a 	mov	r4,r2
    32ec:	000abb00 	call	abb0 <__adddf3>
    32f0:	8009883a 	mov	r4,r16
    32f4:	1029883a 	mov	r20,r2
    32f8:	1823883a 	mov	r17,r3
    32fc:	000d0300 	call	d030 <__floatsidf>
    3300:	019427f4 	movhi	r6,20639
    3304:	01cff4f4 	movhi	r7,16339
    3308:	319e7ec4 	addi	r6,r6,31227
    330c:	39d104c4 	addi	r7,r7,17427
    3310:	1009883a 	mov	r4,r2
    3314:	180b883a 	mov	r5,r3
    3318:	000bf9c0 	call	bf9c <__muldf3>
    331c:	100d883a 	mov	r6,r2
    3320:	180f883a 	mov	r7,r3
    3324:	a009883a 	mov	r4,r20
    3328:	880b883a 	mov	r5,r17
    332c:	000abb00 	call	abb0 <__adddf3>
    3330:	1009883a 	mov	r4,r2
    3334:	180b883a 	mov	r5,r3
    3338:	1029883a 	mov	r20,r2
    333c:	1823883a 	mov	r17,r3
    3340:	000cfb00 	call	cfb0 <__fixdfsi>
    3344:	000d883a 	mov	r6,zero
    3348:	000f883a 	mov	r7,zero
    334c:	a009883a 	mov	r4,r20
    3350:	880b883a 	mov	r5,r17
    3354:	d8800515 	stw	r2,20(sp)
    3358:	000bea80 	call	bea8 <__ledf2>
    335c:	10028716 	blt	r2,zero,3d7c <_dtoa_r+0xc88>
    3360:	d8c00517 	ldw	r3,20(sp)
    3364:	00800584 	movi	r2,22
    3368:	10c27536 	bltu	r2,r3,3d40 <_dtoa_r+0xc4c>
    336c:	180490fa 	slli	r2,r3,3
    3370:	00c00074 	movhi	r3,1
    3374:	18c2c004 	addi	r3,r3,2816
    3378:	1885883a 	add	r2,r3,r2
    337c:	11000017 	ldw	r4,0(r2)
    3380:	11400117 	ldw	r5,4(r2)
    3384:	900d883a 	mov	r6,r18
    3388:	980f883a 	mov	r7,r19
    338c:	000bdcc0 	call	bdcc <__gedf2>
    3390:	00828d0e 	bge	zero,r2,3dc8 <_dtoa_r+0xcd4>
    3394:	d9000517 	ldw	r4,20(sp)
    3398:	d8000e15 	stw	zero,56(sp)
    339c:	213fffc4 	addi	r4,r4,-1
    33a0:	d9000515 	stw	r4,20(sp)
    33a4:	b42dc83a 	sub	r22,r22,r16
    33a8:	b5bfffc4 	addi	r22,r22,-1
    33ac:	b0026f16 	blt	r22,zero,3d6c <_dtoa_r+0xc78>
    33b0:	d8000815 	stw	zero,32(sp)
    33b4:	d9c00517 	ldw	r7,20(sp)
    33b8:	38026416 	blt	r7,zero,3d4c <_dtoa_r+0xc58>
    33bc:	b1ed883a 	add	r22,r22,r7
    33c0:	d9c00d15 	stw	r7,52(sp)
    33c4:	d8000a15 	stw	zero,40(sp)
    33c8:	d9800317 	ldw	r6,12(sp)
    33cc:	00800244 	movi	r2,9
    33d0:	11811436 	bltu	r2,r6,3824 <_dtoa_r+0x730>
    33d4:	00800144 	movi	r2,5
    33d8:	1184e10e 	bge	r2,r6,4760 <_dtoa_r+0x166c>
    33dc:	31bfff04 	addi	r6,r6,-4
    33e0:	d9800315 	stw	r6,12(sp)
    33e4:	0023883a 	mov	r17,zero
    33e8:	d9800317 	ldw	r6,12(sp)
    33ec:	008000c4 	movi	r2,3
    33f0:	30836726 	beq	r6,r2,4190 <_dtoa_r+0x109c>
    33f4:	1183410e 	bge	r2,r6,40fc <_dtoa_r+0x1008>
    33f8:	d9c00317 	ldw	r7,12(sp)
    33fc:	00800104 	movi	r2,4
    3400:	38827c26 	beq	r7,r2,3df4 <_dtoa_r+0xd00>
    3404:	00800144 	movi	r2,5
    3408:	3884c41e 	bne	r7,r2,471c <_dtoa_r+0x1628>
    340c:	00800044 	movi	r2,1
    3410:	d8800b15 	stw	r2,44(sp)
    3414:	d8c00517 	ldw	r3,20(sp)
    3418:	d9002217 	ldw	r4,136(sp)
    341c:	1907883a 	add	r3,r3,r4
    3420:	19800044 	addi	r6,r3,1
    3424:	d8c00c15 	stw	r3,48(sp)
    3428:	d9800615 	stw	r6,24(sp)
    342c:	0183a40e 	bge	zero,r6,42c0 <_dtoa_r+0x11cc>
    3430:	d9800617 	ldw	r6,24(sp)
    3434:	3021883a 	mov	r16,r6
    3438:	e0001115 	stw	zero,68(fp)
    343c:	008005c4 	movi	r2,23
    3440:	1184c92e 	bgeu	r2,r6,4768 <_dtoa_r+0x1674>
    3444:	00c00044 	movi	r3,1
    3448:	00800104 	movi	r2,4
    344c:	1085883a 	add	r2,r2,r2
    3450:	11000504 	addi	r4,r2,20
    3454:	180b883a 	mov	r5,r3
    3458:	18c00044 	addi	r3,r3,1
    345c:	313ffb2e 	bgeu	r6,r4,344c <__alt_mem_ARM_A9_HPS_axi_sdram+0xc000344c>
    3460:	e1401115 	stw	r5,68(fp)
    3464:	e009883a 	mov	r4,fp
    3468:	00067900 	call	6790 <_Balloc>
    346c:	d8800715 	stw	r2,28(sp)
    3470:	e0801015 	stw	r2,64(fp)
    3474:	00800384 	movi	r2,14
    3478:	1400f736 	bltu	r2,r16,3858 <_dtoa_r+0x764>
    347c:	8800f626 	beq	r17,zero,3858 <_dtoa_r+0x764>
    3480:	d9c00517 	ldw	r7,20(sp)
    3484:	01c39a0e 	bge	zero,r7,42f0 <_dtoa_r+0x11fc>
    3488:	388003cc 	andi	r2,r7,15
    348c:	100490fa 	slli	r2,r2,3
    3490:	382bd13a 	srai	r21,r7,4
    3494:	00c00074 	movhi	r3,1
    3498:	18c2c004 	addi	r3,r3,2816
    349c:	1885883a 	add	r2,r3,r2
    34a0:	a8c0040c 	andi	r3,r21,16
    34a4:	12400017 	ldw	r9,0(r2)
    34a8:	12000117 	ldw	r8,4(r2)
    34ac:	18037926 	beq	r3,zero,4294 <_dtoa_r+0x11a0>
    34b0:	00800074 	movhi	r2,1
    34b4:	1082b604 	addi	r2,r2,2776
    34b8:	11800817 	ldw	r6,32(r2)
    34bc:	11c00917 	ldw	r7,36(r2)
    34c0:	9009883a 	mov	r4,r18
    34c4:	980b883a 	mov	r5,r19
    34c8:	da001715 	stw	r8,92(sp)
    34cc:	da401615 	stw	r9,88(sp)
    34d0:	000b45c0 	call	b45c <__divdf3>
    34d4:	da001717 	ldw	r8,92(sp)
    34d8:	da401617 	ldw	r9,88(sp)
    34dc:	ad4003cc 	andi	r21,r21,15
    34e0:	040000c4 	movi	r16,3
    34e4:	1023883a 	mov	r17,r2
    34e8:	1829883a 	mov	r20,r3
    34ec:	a8001126 	beq	r21,zero,3534 <_dtoa_r+0x440>
    34f0:	05c00074 	movhi	r23,1
    34f4:	bdc2b604 	addi	r23,r23,2776
    34f8:	4805883a 	mov	r2,r9
    34fc:	4007883a 	mov	r3,r8
    3500:	a980004c 	andi	r6,r21,1
    3504:	1009883a 	mov	r4,r2
    3508:	a82bd07a 	srai	r21,r21,1
    350c:	180b883a 	mov	r5,r3
    3510:	30000426 	beq	r6,zero,3524 <_dtoa_r+0x430>
    3514:	b9800017 	ldw	r6,0(r23)
    3518:	b9c00117 	ldw	r7,4(r23)
    351c:	84000044 	addi	r16,r16,1
    3520:	000bf9c0 	call	bf9c <__muldf3>
    3524:	bdc00204 	addi	r23,r23,8
    3528:	a83ff51e 	bne	r21,zero,3500 <__alt_mem_ARM_A9_HPS_axi_sdram+0xc0003500>
    352c:	1013883a 	mov	r9,r2
    3530:	1811883a 	mov	r8,r3
    3534:	480d883a 	mov	r6,r9
    3538:	400f883a 	mov	r7,r8
    353c:	8809883a 	mov	r4,r17
    3540:	a00b883a 	mov	r5,r20
    3544:	000b45c0 	call	b45c <__divdf3>
    3548:	d8800f15 	stw	r2,60(sp)
    354c:	d8c01015 	stw	r3,64(sp)
    3550:	d8c00e17 	ldw	r3,56(sp)
    3554:	18000626 	beq	r3,zero,3570 <_dtoa_r+0x47c>
    3558:	d9000f17 	ldw	r4,60(sp)
    355c:	d9401017 	ldw	r5,64(sp)
    3560:	000d883a 	mov	r6,zero
    3564:	01cffc34 	movhi	r7,16368
    3568:	000bea80 	call	bea8 <__ledf2>
    356c:	10040b16 	blt	r2,zero,459c <_dtoa_r+0x14a8>
    3570:	8009883a 	mov	r4,r16
    3574:	000d0300 	call	d030 <__floatsidf>
    3578:	d9800f17 	ldw	r6,60(sp)
    357c:	d9c01017 	ldw	r7,64(sp)
    3580:	1009883a 	mov	r4,r2
    3584:	180b883a 	mov	r5,r3
    3588:	000bf9c0 	call	bf9c <__muldf3>
    358c:	000d883a 	mov	r6,zero
    3590:	01d00734 	movhi	r7,16412
    3594:	1009883a 	mov	r4,r2
    3598:	180b883a 	mov	r5,r3
    359c:	000abb00 	call	abb0 <__adddf3>
    35a0:	1021883a 	mov	r16,r2
    35a4:	d8800617 	ldw	r2,24(sp)
    35a8:	047f3034 	movhi	r17,64704
    35ac:	1c63883a 	add	r17,r3,r17
    35b0:	10031826 	beq	r2,zero,4214 <_dtoa_r+0x1120>
    35b4:	d8c00517 	ldw	r3,20(sp)
    35b8:	db000617 	ldw	r12,24(sp)
    35bc:	d8c01315 	stw	r3,76(sp)
    35c0:	d9000b17 	ldw	r4,44(sp)
    35c4:	20038f26 	beq	r4,zero,4404 <_dtoa_r+0x1310>
    35c8:	60bfffc4 	addi	r2,r12,-1
    35cc:	100490fa 	slli	r2,r2,3
    35d0:	00c00074 	movhi	r3,1
    35d4:	18c2c004 	addi	r3,r3,2816
    35d8:	1885883a 	add	r2,r3,r2
    35dc:	11800017 	ldw	r6,0(r2)
    35e0:	11c00117 	ldw	r7,4(r2)
    35e4:	d8800717 	ldw	r2,28(sp)
    35e8:	0009883a 	mov	r4,zero
    35ec:	014ff834 	movhi	r5,16352
    35f0:	db001615 	stw	r12,88(sp)
    35f4:	15c00044 	addi	r23,r2,1
    35f8:	000b45c0 	call	b45c <__divdf3>
    35fc:	800d883a 	mov	r6,r16
    3600:	880f883a 	mov	r7,r17
    3604:	1009883a 	mov	r4,r2
    3608:	180b883a 	mov	r5,r3
    360c:	000c6b40 	call	c6b4 <__subdf3>
    3610:	d9401017 	ldw	r5,64(sp)
    3614:	d9000f17 	ldw	r4,60(sp)
    3618:	102b883a 	mov	r21,r2
    361c:	d8c01215 	stw	r3,72(sp)
    3620:	000cfb00 	call	cfb0 <__fixdfsi>
    3624:	1009883a 	mov	r4,r2
    3628:	1029883a 	mov	r20,r2
    362c:	000d0300 	call	d030 <__floatsidf>
    3630:	d9000f17 	ldw	r4,60(sp)
    3634:	d9401017 	ldw	r5,64(sp)
    3638:	100d883a 	mov	r6,r2
    363c:	180f883a 	mov	r7,r3
    3640:	000c6b40 	call	c6b4 <__subdf3>
    3644:	1823883a 	mov	r17,r3
    3648:	d8c00717 	ldw	r3,28(sp)
    364c:	d9401217 	ldw	r5,72(sp)
    3650:	a2000c04 	addi	r8,r20,48
    3654:	1021883a 	mov	r16,r2
    3658:	1a000005 	stb	r8,0(r3)
    365c:	800d883a 	mov	r6,r16
    3660:	880f883a 	mov	r7,r17
    3664:	a809883a 	mov	r4,r21
    3668:	4029883a 	mov	r20,r8
    366c:	000bdcc0 	call	bdcc <__gedf2>
    3670:	00841d16 	blt	zero,r2,46e8 <_dtoa_r+0x15f4>
    3674:	800d883a 	mov	r6,r16
    3678:	880f883a 	mov	r7,r17
    367c:	0009883a 	mov	r4,zero
    3680:	014ffc34 	movhi	r5,16368
    3684:	000c6b40 	call	c6b4 <__subdf3>
    3688:	d9401217 	ldw	r5,72(sp)
    368c:	100d883a 	mov	r6,r2
    3690:	180f883a 	mov	r7,r3
    3694:	a809883a 	mov	r4,r21
    3698:	000bdcc0 	call	bdcc <__gedf2>
    369c:	db001617 	ldw	r12,88(sp)
    36a0:	00840e16 	blt	zero,r2,46dc <_dtoa_r+0x15e8>
    36a4:	00800044 	movi	r2,1
    36a8:	13006b0e 	bge	r2,r12,3858 <_dtoa_r+0x764>
    36ac:	d9000717 	ldw	r4,28(sp)
    36b0:	dd800f15 	stw	r22,60(sp)
    36b4:	dcc01015 	stw	r19,64(sp)
    36b8:	2319883a 	add	r12,r4,r12
    36bc:	dcc01217 	ldw	r19,72(sp)
    36c0:	602d883a 	mov	r22,r12
    36c4:	dc801215 	stw	r18,72(sp)
    36c8:	b825883a 	mov	r18,r23
    36cc:	00000906 	br	36f4 <_dtoa_r+0x600>
    36d0:	000c6b40 	call	c6b4 <__subdf3>
    36d4:	a80d883a 	mov	r6,r21
    36d8:	980f883a 	mov	r7,r19
    36dc:	1009883a 	mov	r4,r2
    36e0:	180b883a 	mov	r5,r3
    36e4:	000bea80 	call	bea8 <__ledf2>
    36e8:	1003e816 	blt	r2,zero,468c <_dtoa_r+0x1598>
    36ec:	b825883a 	mov	r18,r23
    36f0:	bd83e926 	beq	r23,r22,4698 <_dtoa_r+0x15a4>
    36f4:	a809883a 	mov	r4,r21
    36f8:	980b883a 	mov	r5,r19
    36fc:	000d883a 	mov	r6,zero
    3700:	01d00934 	movhi	r7,16420
    3704:	000bf9c0 	call	bf9c <__muldf3>
    3708:	000d883a 	mov	r6,zero
    370c:	01d00934 	movhi	r7,16420
    3710:	8009883a 	mov	r4,r16
    3714:	880b883a 	mov	r5,r17
    3718:	102b883a 	mov	r21,r2
    371c:	1827883a 	mov	r19,r3
    3720:	000bf9c0 	call	bf9c <__muldf3>
    3724:	180b883a 	mov	r5,r3
    3728:	1009883a 	mov	r4,r2
    372c:	1821883a 	mov	r16,r3
    3730:	1023883a 	mov	r17,r2
    3734:	000cfb00 	call	cfb0 <__fixdfsi>
    3738:	1009883a 	mov	r4,r2
    373c:	1029883a 	mov	r20,r2
    3740:	000d0300 	call	d030 <__floatsidf>
    3744:	8809883a 	mov	r4,r17
    3748:	800b883a 	mov	r5,r16
    374c:	100d883a 	mov	r6,r2
    3750:	180f883a 	mov	r7,r3
    3754:	000c6b40 	call	c6b4 <__subdf3>
    3758:	a5000c04 	addi	r20,r20,48
    375c:	a80d883a 	mov	r6,r21
    3760:	980f883a 	mov	r7,r19
    3764:	1009883a 	mov	r4,r2
    3768:	180b883a 	mov	r5,r3
    376c:	95000005 	stb	r20,0(r18)
    3770:	1021883a 	mov	r16,r2
    3774:	1823883a 	mov	r17,r3
    3778:	000bea80 	call	bea8 <__ledf2>
    377c:	bdc00044 	addi	r23,r23,1
    3780:	800d883a 	mov	r6,r16
    3784:	880f883a 	mov	r7,r17
    3788:	0009883a 	mov	r4,zero
    378c:	014ffc34 	movhi	r5,16368
    3790:	103fcf0e 	bge	r2,zero,36d0 <__alt_mem_ARM_A9_HPS_axi_sdram+0xc00036d0>
    3794:	d8c01317 	ldw	r3,76(sp)
    3798:	d8c00515 	stw	r3,20(sp)
    379c:	d9400917 	ldw	r5,36(sp)
    37a0:	e009883a 	mov	r4,fp
    37a4:	00068380 	call	6838 <_Bfree>
    37a8:	d9000517 	ldw	r4,20(sp)
    37ac:	d9802317 	ldw	r6,140(sp)
    37b0:	d9c02517 	ldw	r7,148(sp)
    37b4:	b8000005 	stb	zero,0(r23)
    37b8:	20800044 	addi	r2,r4,1
    37bc:	30800015 	stw	r2,0(r6)
    37c0:	3802aa26 	beq	r7,zero,426c <_dtoa_r+0x1178>
    37c4:	3dc00015 	stw	r23,0(r7)
    37c8:	d8800717 	ldw	r2,28(sp)
    37cc:	003e7906 	br	31b4 <__alt_mem_ARM_A9_HPS_axi_sdram+0xc00031b4>
    37d0:	00800434 	movhi	r2,16
    37d4:	10bfffc4 	addi	r2,r2,-1
    37d8:	88a2703a 	and	r17,r17,r2
    37dc:	883e851e 	bne	r17,zero,31f4 <__alt_mem_ARM_A9_HPS_axi_sdram+0xc00031f4>
    37e0:	00800074 	movhi	r2,1
    37e4:	1082a104 	addi	r2,r2,2692
    37e8:	003e8406 	br	31fc <__alt_mem_ARM_A9_HPS_axi_sdram+0xc00031fc>
    37ec:	10c00204 	addi	r3,r2,8
    37f0:	003e8706 	br	3210 <__alt_mem_ARM_A9_HPS_axi_sdram+0xc0003210>
    37f4:	01400434 	movhi	r5,16
    37f8:	297fffc4 	addi	r5,r5,-1
    37fc:	994a703a 	and	r5,r19,r5
    3800:	9009883a 	mov	r4,r18
    3804:	843f0044 	addi	r16,r16,-1023
    3808:	294ffc34 	orhi	r5,r5,16368
    380c:	dd800217 	ldw	r22,8(sp)
    3810:	d8001115 	stw	zero,68(sp)
    3814:	003ea506 	br	32ac <__alt_mem_ARM_A9_HPS_axi_sdram+0xc00032ac>
    3818:	00800074 	movhi	r2,1
    381c:	10829804 	addi	r2,r2,2656
    3820:	003e6406 	br	31b4 <__alt_mem_ARM_A9_HPS_axi_sdram+0xc00031b4>
    3824:	e0001115 	stw	zero,68(fp)
    3828:	000b883a 	mov	r5,zero
    382c:	e009883a 	mov	r4,fp
    3830:	00067900 	call	6790 <_Balloc>
    3834:	01bfffc4 	movi	r6,-1
    3838:	01c00044 	movi	r7,1
    383c:	d8800715 	stw	r2,28(sp)
    3840:	d9800c15 	stw	r6,48(sp)
    3844:	e0801015 	stw	r2,64(fp)
    3848:	d8000315 	stw	zero,12(sp)
    384c:	d9c00b15 	stw	r7,44(sp)
    3850:	d9800615 	stw	r6,24(sp)
    3854:	d8002215 	stw	zero,136(sp)
    3858:	d8800117 	ldw	r2,4(sp)
    385c:	10008916 	blt	r2,zero,3a84 <_dtoa_r+0x990>
    3860:	d9000517 	ldw	r4,20(sp)
    3864:	00c00384 	movi	r3,14
    3868:	19008616 	blt	r3,r4,3a84 <_dtoa_r+0x990>
    386c:	200490fa 	slli	r2,r4,3
    3870:	00c00074 	movhi	r3,1
    3874:	d9802217 	ldw	r6,136(sp)
    3878:	18c2c004 	addi	r3,r3,2816
    387c:	1885883a 	add	r2,r3,r2
    3880:	14000017 	ldw	r16,0(r2)
    3884:	14400117 	ldw	r17,4(r2)
    3888:	30016316 	blt	r6,zero,3e18 <_dtoa_r+0xd24>
    388c:	800d883a 	mov	r6,r16
    3890:	880f883a 	mov	r7,r17
    3894:	9009883a 	mov	r4,r18
    3898:	980b883a 	mov	r5,r19
    389c:	000b45c0 	call	b45c <__divdf3>
    38a0:	180b883a 	mov	r5,r3
    38a4:	1009883a 	mov	r4,r2
    38a8:	000cfb00 	call	cfb0 <__fixdfsi>
    38ac:	1009883a 	mov	r4,r2
    38b0:	102b883a 	mov	r21,r2
    38b4:	000d0300 	call	d030 <__floatsidf>
    38b8:	800d883a 	mov	r6,r16
    38bc:	880f883a 	mov	r7,r17
    38c0:	1009883a 	mov	r4,r2
    38c4:	180b883a 	mov	r5,r3
    38c8:	000bf9c0 	call	bf9c <__muldf3>
    38cc:	100d883a 	mov	r6,r2
    38d0:	180f883a 	mov	r7,r3
    38d4:	9009883a 	mov	r4,r18
    38d8:	980b883a 	mov	r5,r19
    38dc:	000c6b40 	call	c6b4 <__subdf3>
    38e0:	d9c00717 	ldw	r7,28(sp)
    38e4:	1009883a 	mov	r4,r2
    38e8:	a8800c04 	addi	r2,r21,48
    38ec:	38800005 	stb	r2,0(r7)
    38f0:	3dc00044 	addi	r23,r7,1
    38f4:	d9c00617 	ldw	r7,24(sp)
    38f8:	01800044 	movi	r6,1
    38fc:	180b883a 	mov	r5,r3
    3900:	2005883a 	mov	r2,r4
    3904:	39803826 	beq	r7,r6,39e8 <_dtoa_r+0x8f4>
    3908:	000d883a 	mov	r6,zero
    390c:	01d00934 	movhi	r7,16420
    3910:	000bf9c0 	call	bf9c <__muldf3>
    3914:	000d883a 	mov	r6,zero
    3918:	000f883a 	mov	r7,zero
    391c:	1009883a 	mov	r4,r2
    3920:	180b883a 	mov	r5,r3
    3924:	1025883a 	mov	r18,r2
    3928:	1827883a 	mov	r19,r3
    392c:	000bd440 	call	bd44 <__eqdf2>
    3930:	103f9a26 	beq	r2,zero,379c <__alt_mem_ARM_A9_HPS_axi_sdram+0xc000379c>
    3934:	d9c00617 	ldw	r7,24(sp)
    3938:	d8c00717 	ldw	r3,28(sp)
    393c:	b829883a 	mov	r20,r23
    3940:	38bfffc4 	addi	r2,r7,-1
    3944:	18ad883a 	add	r22,r3,r2
    3948:	00000a06 	br	3974 <_dtoa_r+0x880>
    394c:	000bf9c0 	call	bf9c <__muldf3>
    3950:	000d883a 	mov	r6,zero
    3954:	000f883a 	mov	r7,zero
    3958:	1009883a 	mov	r4,r2
    395c:	180b883a 	mov	r5,r3
    3960:	1025883a 	mov	r18,r2
    3964:	1827883a 	mov	r19,r3
    3968:	b829883a 	mov	r20,r23
    396c:	000bd440 	call	bd44 <__eqdf2>
    3970:	103f8a26 	beq	r2,zero,379c <__alt_mem_ARM_A9_HPS_axi_sdram+0xc000379c>
    3974:	800d883a 	mov	r6,r16
    3978:	880f883a 	mov	r7,r17
    397c:	9009883a 	mov	r4,r18
    3980:	980b883a 	mov	r5,r19
    3984:	000b45c0 	call	b45c <__divdf3>
    3988:	180b883a 	mov	r5,r3
    398c:	1009883a 	mov	r4,r2
    3990:	000cfb00 	call	cfb0 <__fixdfsi>
    3994:	1009883a 	mov	r4,r2
    3998:	102b883a 	mov	r21,r2
    399c:	000d0300 	call	d030 <__floatsidf>
    39a0:	800d883a 	mov	r6,r16
    39a4:	880f883a 	mov	r7,r17
    39a8:	1009883a 	mov	r4,r2
    39ac:	180b883a 	mov	r5,r3
    39b0:	000bf9c0 	call	bf9c <__muldf3>
    39b4:	100d883a 	mov	r6,r2
    39b8:	180f883a 	mov	r7,r3
    39bc:	9009883a 	mov	r4,r18
    39c0:	980b883a 	mov	r5,r19
    39c4:	000c6b40 	call	c6b4 <__subdf3>
    39c8:	aa000c04 	addi	r8,r21,48
    39cc:	a2000005 	stb	r8,0(r20)
    39d0:	000d883a 	mov	r6,zero
    39d4:	01d00934 	movhi	r7,16420
    39d8:	1009883a 	mov	r4,r2
    39dc:	180b883a 	mov	r5,r3
    39e0:	a5c00044 	addi	r23,r20,1
    39e4:	b53fd91e 	bne	r22,r20,394c <__alt_mem_ARM_A9_HPS_axi_sdram+0xc000394c>
    39e8:	100d883a 	mov	r6,r2
    39ec:	180f883a 	mov	r7,r3
    39f0:	1009883a 	mov	r4,r2
    39f4:	180b883a 	mov	r5,r3
    39f8:	000abb00 	call	abb0 <__adddf3>
    39fc:	100d883a 	mov	r6,r2
    3a00:	180f883a 	mov	r7,r3
    3a04:	8009883a 	mov	r4,r16
    3a08:	880b883a 	mov	r5,r17
    3a0c:	1027883a 	mov	r19,r2
    3a10:	1825883a 	mov	r18,r3
    3a14:	000bea80 	call	bea8 <__ledf2>
    3a18:	10000816 	blt	r2,zero,3a3c <_dtoa_r+0x948>
    3a1c:	980d883a 	mov	r6,r19
    3a20:	900f883a 	mov	r7,r18
    3a24:	8009883a 	mov	r4,r16
    3a28:	880b883a 	mov	r5,r17
    3a2c:	000bd440 	call	bd44 <__eqdf2>
    3a30:	103f5a1e 	bne	r2,zero,379c <__alt_mem_ARM_A9_HPS_axi_sdram+0xc000379c>
    3a34:	ad40004c 	andi	r21,r21,1
    3a38:	a83f5826 	beq	r21,zero,379c <__alt_mem_ARM_A9_HPS_axi_sdram+0xc000379c>
    3a3c:	bd3fffc3 	ldbu	r20,-1(r23)
    3a40:	b8bfffc4 	addi	r2,r23,-1
    3a44:	1007883a 	mov	r3,r2
    3a48:	01400e44 	movi	r5,57
    3a4c:	d9800717 	ldw	r6,28(sp)
    3a50:	00000506 	br	3a68 <_dtoa_r+0x974>
    3a54:	18ffffc4 	addi	r3,r3,-1
    3a58:	11824726 	beq	r2,r6,4378 <_dtoa_r+0x1284>
    3a5c:	1d000003 	ldbu	r20,0(r3)
    3a60:	102f883a 	mov	r23,r2
    3a64:	10bfffc4 	addi	r2,r2,-1
    3a68:	a1003fcc 	andi	r4,r20,255
    3a6c:	2100201c 	xori	r4,r4,128
    3a70:	213fe004 	addi	r4,r4,-128
    3a74:	217ff726 	beq	r4,r5,3a54 <__alt_mem_ARM_A9_HPS_axi_sdram+0xc0003a54>
    3a78:	a2000044 	addi	r8,r20,1
    3a7c:	12000005 	stb	r8,0(r2)
    3a80:	003f4606 	br	379c <__alt_mem_ARM_A9_HPS_axi_sdram+0xc000379c>
    3a84:	d9000b17 	ldw	r4,44(sp)
    3a88:	2000c826 	beq	r4,zero,3dac <_dtoa_r+0xcb8>
    3a8c:	d9800317 	ldw	r6,12(sp)
    3a90:	00c00044 	movi	r3,1
    3a94:	1980f90e 	bge	r3,r6,3e7c <_dtoa_r+0xd88>
    3a98:	d8800617 	ldw	r2,24(sp)
    3a9c:	d8c00a17 	ldw	r3,40(sp)
    3aa0:	157fffc4 	addi	r21,r2,-1
    3aa4:	1d41f316 	blt	r3,r21,4274 <_dtoa_r+0x1180>
    3aa8:	1d6bc83a 	sub	r21,r3,r21
    3aac:	d9c00617 	ldw	r7,24(sp)
    3ab0:	3802aa16 	blt	r7,zero,455c <_dtoa_r+0x1468>
    3ab4:	dd000817 	ldw	r20,32(sp)
    3ab8:	d8800617 	ldw	r2,24(sp)
    3abc:	d8c00817 	ldw	r3,32(sp)
    3ac0:	01400044 	movi	r5,1
    3ac4:	e009883a 	mov	r4,fp
    3ac8:	1887883a 	add	r3,r3,r2
    3acc:	d8c00815 	stw	r3,32(sp)
    3ad0:	b0ad883a 	add	r22,r22,r2
    3ad4:	0006b9c0 	call	6b9c <__i2b>
    3ad8:	1023883a 	mov	r17,r2
    3adc:	a0000826 	beq	r20,zero,3b00 <_dtoa_r+0xa0c>
    3ae0:	0580070e 	bge	zero,r22,3b00 <_dtoa_r+0xa0c>
    3ae4:	a005883a 	mov	r2,r20
    3ae8:	b500b916 	blt	r22,r20,3dd0 <_dtoa_r+0xcdc>
    3aec:	d9000817 	ldw	r4,32(sp)
    3af0:	a0a9c83a 	sub	r20,r20,r2
    3af4:	b0adc83a 	sub	r22,r22,r2
    3af8:	2089c83a 	sub	r4,r4,r2
    3afc:	d9000815 	stw	r4,32(sp)
    3b00:	d9800a17 	ldw	r6,40(sp)
    3b04:	0181810e 	bge	zero,r6,410c <_dtoa_r+0x1018>
    3b08:	d9c00b17 	ldw	r7,44(sp)
    3b0c:	3800b326 	beq	r7,zero,3ddc <_dtoa_r+0xce8>
    3b10:	a800b226 	beq	r21,zero,3ddc <_dtoa_r+0xce8>
    3b14:	880b883a 	mov	r5,r17
    3b18:	a80d883a 	mov	r6,r21
    3b1c:	e009883a 	mov	r4,fp
    3b20:	0006dd00 	call	6dd0 <__pow5mult>
    3b24:	d9800917 	ldw	r6,36(sp)
    3b28:	100b883a 	mov	r5,r2
    3b2c:	e009883a 	mov	r4,fp
    3b30:	1023883a 	mov	r17,r2
    3b34:	0006bd80 	call	6bd8 <__multiply>
    3b38:	1021883a 	mov	r16,r2
    3b3c:	d8800a17 	ldw	r2,40(sp)
    3b40:	d9400917 	ldw	r5,36(sp)
    3b44:	e009883a 	mov	r4,fp
    3b48:	1545c83a 	sub	r2,r2,r21
    3b4c:	d8800a15 	stw	r2,40(sp)
    3b50:	00068380 	call	6838 <_Bfree>
    3b54:	d8c00a17 	ldw	r3,40(sp)
    3b58:	18009f1e 	bne	r3,zero,3dd8 <_dtoa_r+0xce4>
    3b5c:	05c00044 	movi	r23,1
    3b60:	e009883a 	mov	r4,fp
    3b64:	b80b883a 	mov	r5,r23
    3b68:	0006b9c0 	call	6b9c <__i2b>
    3b6c:	d9000d17 	ldw	r4,52(sp)
    3b70:	102b883a 	mov	r21,r2
    3b74:	2000ce26 	beq	r4,zero,3eb0 <_dtoa_r+0xdbc>
    3b78:	200d883a 	mov	r6,r4
    3b7c:	100b883a 	mov	r5,r2
    3b80:	e009883a 	mov	r4,fp
    3b84:	0006dd00 	call	6dd0 <__pow5mult>
    3b88:	d9800317 	ldw	r6,12(sp)
    3b8c:	102b883a 	mov	r21,r2
    3b90:	b981810e 	bge	r23,r6,4198 <_dtoa_r+0x10a4>
    3b94:	0027883a 	mov	r19,zero
    3b98:	a8800417 	ldw	r2,16(r21)
    3b9c:	05c00804 	movi	r23,32
    3ba0:	10800104 	addi	r2,r2,4
    3ba4:	1085883a 	add	r2,r2,r2
    3ba8:	1085883a 	add	r2,r2,r2
    3bac:	a885883a 	add	r2,r21,r2
    3bb0:	11000017 	ldw	r4,0(r2)
    3bb4:	0006a840 	call	6a84 <__hi0bits>
    3bb8:	b885c83a 	sub	r2,r23,r2
    3bbc:	1585883a 	add	r2,r2,r22
    3bc0:	108007cc 	andi	r2,r2,31
    3bc4:	1000b326 	beq	r2,zero,3e94 <_dtoa_r+0xda0>
    3bc8:	00c00804 	movi	r3,32
    3bcc:	1887c83a 	sub	r3,r3,r2
    3bd0:	01000104 	movi	r4,4
    3bd4:	20c2cd0e 	bge	r4,r3,470c <_dtoa_r+0x1618>
    3bd8:	00c00704 	movi	r3,28
    3bdc:	1885c83a 	sub	r2,r3,r2
    3be0:	d8c00817 	ldw	r3,32(sp)
    3be4:	a0a9883a 	add	r20,r20,r2
    3be8:	b0ad883a 	add	r22,r22,r2
    3bec:	1887883a 	add	r3,r3,r2
    3bf0:	d8c00815 	stw	r3,32(sp)
    3bf4:	d9800817 	ldw	r6,32(sp)
    3bf8:	0180040e 	bge	zero,r6,3c0c <_dtoa_r+0xb18>
    3bfc:	800b883a 	mov	r5,r16
    3c00:	e009883a 	mov	r4,fp
    3c04:	0006f100 	call	6f10 <__lshift>
    3c08:	1021883a 	mov	r16,r2
    3c0c:	0580050e 	bge	zero,r22,3c24 <_dtoa_r+0xb30>
    3c10:	a80b883a 	mov	r5,r21
    3c14:	b00d883a 	mov	r6,r22
    3c18:	e009883a 	mov	r4,fp
    3c1c:	0006f100 	call	6f10 <__lshift>
    3c20:	102b883a 	mov	r21,r2
    3c24:	d9c00e17 	ldw	r7,56(sp)
    3c28:	3801211e 	bne	r7,zero,40b0 <_dtoa_r+0xfbc>
    3c2c:	d9800617 	ldw	r6,24(sp)
    3c30:	0181380e 	bge	zero,r6,4114 <_dtoa_r+0x1020>
    3c34:	d8c00b17 	ldw	r3,44(sp)
    3c38:	1800ab1e 	bne	r3,zero,3ee8 <_dtoa_r+0xdf4>
    3c3c:	dc800717 	ldw	r18,28(sp)
    3c40:	dcc00617 	ldw	r19,24(sp)
    3c44:	9029883a 	mov	r20,r18
    3c48:	00000206 	br	3c54 <_dtoa_r+0xb60>
    3c4c:	00068600 	call	6860 <__multadd>
    3c50:	1021883a 	mov	r16,r2
    3c54:	a80b883a 	mov	r5,r21
    3c58:	8009883a 	mov	r4,r16
    3c5c:	0002ef40 	call	2ef4 <quorem>
    3c60:	10800c04 	addi	r2,r2,48
    3c64:	90800005 	stb	r2,0(r18)
    3c68:	94800044 	addi	r18,r18,1
    3c6c:	9507c83a 	sub	r3,r18,r20
    3c70:	000f883a 	mov	r7,zero
    3c74:	01800284 	movi	r6,10
    3c78:	800b883a 	mov	r5,r16
    3c7c:	e009883a 	mov	r4,fp
    3c80:	1cfff216 	blt	r3,r19,3c4c <__alt_mem_ARM_A9_HPS_axi_sdram+0xc0003c4c>
    3c84:	1011883a 	mov	r8,r2
    3c88:	d8800617 	ldw	r2,24(sp)
    3c8c:	0082370e 	bge	zero,r2,456c <_dtoa_r+0x1478>
    3c90:	d9000717 	ldw	r4,28(sp)
    3c94:	0025883a 	mov	r18,zero
    3c98:	20af883a 	add	r23,r4,r2
    3c9c:	01800044 	movi	r6,1
    3ca0:	800b883a 	mov	r5,r16
    3ca4:	e009883a 	mov	r4,fp
    3ca8:	da001715 	stw	r8,92(sp)
    3cac:	0006f100 	call	6f10 <__lshift>
    3cb0:	a80b883a 	mov	r5,r21
    3cb4:	1009883a 	mov	r4,r2
    3cb8:	d8800915 	stw	r2,36(sp)
    3cbc:	00070580 	call	7058 <__mcmp>
    3cc0:	da001717 	ldw	r8,92(sp)
    3cc4:	0081800e 	bge	zero,r2,42c8 <_dtoa_r+0x11d4>
    3cc8:	b93fffc3 	ldbu	r4,-1(r23)
    3ccc:	b8bfffc4 	addi	r2,r23,-1
    3cd0:	1007883a 	mov	r3,r2
    3cd4:	01800e44 	movi	r6,57
    3cd8:	d9c00717 	ldw	r7,28(sp)
    3cdc:	00000506 	br	3cf4 <_dtoa_r+0xc00>
    3ce0:	18ffffc4 	addi	r3,r3,-1
    3ce4:	11c12326 	beq	r2,r7,4174 <_dtoa_r+0x1080>
    3ce8:	19000003 	ldbu	r4,0(r3)
    3cec:	102f883a 	mov	r23,r2
    3cf0:	10bfffc4 	addi	r2,r2,-1
    3cf4:	21403fcc 	andi	r5,r4,255
    3cf8:	2940201c 	xori	r5,r5,128
    3cfc:	297fe004 	addi	r5,r5,-128
    3d00:	29bff726 	beq	r5,r6,3ce0 <__alt_mem_ARM_A9_HPS_axi_sdram+0xc0003ce0>
    3d04:	21000044 	addi	r4,r4,1
    3d08:	11000005 	stb	r4,0(r2)
    3d0c:	a80b883a 	mov	r5,r21
    3d10:	e009883a 	mov	r4,fp
    3d14:	00068380 	call	6838 <_Bfree>
    3d18:	883ea026 	beq	r17,zero,379c <__alt_mem_ARM_A9_HPS_axi_sdram+0xc000379c>
    3d1c:	90000426 	beq	r18,zero,3d30 <_dtoa_r+0xc3c>
    3d20:	94400326 	beq	r18,r17,3d30 <_dtoa_r+0xc3c>
    3d24:	900b883a 	mov	r5,r18
    3d28:	e009883a 	mov	r4,fp
    3d2c:	00068380 	call	6838 <_Bfree>
    3d30:	880b883a 	mov	r5,r17
    3d34:	e009883a 	mov	r4,fp
    3d38:	00068380 	call	6838 <_Bfree>
    3d3c:	003e9706 	br	379c <__alt_mem_ARM_A9_HPS_axi_sdram+0xc000379c>
    3d40:	01800044 	movi	r6,1
    3d44:	d9800e15 	stw	r6,56(sp)
    3d48:	003d9606 	br	33a4 <__alt_mem_ARM_A9_HPS_axi_sdram+0xc00033a4>
    3d4c:	d8800817 	ldw	r2,32(sp)
    3d50:	d8c00517 	ldw	r3,20(sp)
    3d54:	d8000d15 	stw	zero,52(sp)
    3d58:	10c5c83a 	sub	r2,r2,r3
    3d5c:	00c9c83a 	sub	r4,zero,r3
    3d60:	d8800815 	stw	r2,32(sp)
    3d64:	d9000a15 	stw	r4,40(sp)
    3d68:	003d9706 	br	33c8 <__alt_mem_ARM_A9_HPS_axi_sdram+0xc00033c8>
    3d6c:	05adc83a 	sub	r22,zero,r22
    3d70:	dd800815 	stw	r22,32(sp)
    3d74:	002d883a 	mov	r22,zero
    3d78:	003d8e06 	br	33b4 <__alt_mem_ARM_A9_HPS_axi_sdram+0xc00033b4>
    3d7c:	d9000517 	ldw	r4,20(sp)
    3d80:	000d0300 	call	d030 <__floatsidf>
    3d84:	100d883a 	mov	r6,r2
    3d88:	180f883a 	mov	r7,r3
    3d8c:	a009883a 	mov	r4,r20
    3d90:	880b883a 	mov	r5,r17
    3d94:	000bd440 	call	bd44 <__eqdf2>
    3d98:	103d7126 	beq	r2,zero,3360 <__alt_mem_ARM_A9_HPS_axi_sdram+0xc0003360>
    3d9c:	d9c00517 	ldw	r7,20(sp)
    3da0:	39ffffc4 	addi	r7,r7,-1
    3da4:	d9c00515 	stw	r7,20(sp)
    3da8:	003d6d06 	br	3360 <__alt_mem_ARM_A9_HPS_axi_sdram+0xc0003360>
    3dac:	dd400a17 	ldw	r21,40(sp)
    3db0:	dd000817 	ldw	r20,32(sp)
    3db4:	0023883a 	mov	r17,zero
    3db8:	003f4806 	br	3adc <__alt_mem_ARM_A9_HPS_axi_sdram+0xc0003adc>
    3dbc:	10e3c83a 	sub	r17,r2,r3
    3dc0:	9448983a 	sll	r4,r18,r17
    3dc4:	003d3206 	br	3290 <__alt_mem_ARM_A9_HPS_axi_sdram+0xc0003290>
    3dc8:	d8000e15 	stw	zero,56(sp)
    3dcc:	003d7506 	br	33a4 <__alt_mem_ARM_A9_HPS_axi_sdram+0xc00033a4>
    3dd0:	b005883a 	mov	r2,r22
    3dd4:	003f4506 	br	3aec <__alt_mem_ARM_A9_HPS_axi_sdram+0xc0003aec>
    3dd8:	dc000915 	stw	r16,36(sp)
    3ddc:	d9800a17 	ldw	r6,40(sp)
    3de0:	d9400917 	ldw	r5,36(sp)
    3de4:	e009883a 	mov	r4,fp
    3de8:	0006dd00 	call	6dd0 <__pow5mult>
    3dec:	1021883a 	mov	r16,r2
    3df0:	003f5a06 	br	3b5c <__alt_mem_ARM_A9_HPS_axi_sdram+0xc0003b5c>
    3df4:	01c00044 	movi	r7,1
    3df8:	d9c00b15 	stw	r7,44(sp)
    3dfc:	d8802217 	ldw	r2,136(sp)
    3e00:	0081280e 	bge	zero,r2,42a4 <_dtoa_r+0x11b0>
    3e04:	100d883a 	mov	r6,r2
    3e08:	1021883a 	mov	r16,r2
    3e0c:	d8800c15 	stw	r2,48(sp)
    3e10:	d8800615 	stw	r2,24(sp)
    3e14:	003d8806 	br	3438 <__alt_mem_ARM_A9_HPS_axi_sdram+0xc0003438>
    3e18:	d8800617 	ldw	r2,24(sp)
    3e1c:	00be9b16 	blt	zero,r2,388c <__alt_mem_ARM_A9_HPS_axi_sdram+0xc000388c>
    3e20:	10010f1e 	bne	r2,zero,4260 <_dtoa_r+0x116c>
    3e24:	880b883a 	mov	r5,r17
    3e28:	000d883a 	mov	r6,zero
    3e2c:	01d00534 	movhi	r7,16404
    3e30:	8009883a 	mov	r4,r16
    3e34:	000bf9c0 	call	bf9c <__muldf3>
    3e38:	900d883a 	mov	r6,r18
    3e3c:	980f883a 	mov	r7,r19
    3e40:	1009883a 	mov	r4,r2
    3e44:	180b883a 	mov	r5,r3
    3e48:	000bdcc0 	call	bdcc <__gedf2>
    3e4c:	002b883a 	mov	r21,zero
    3e50:	0023883a 	mov	r17,zero
    3e54:	1000bf16 	blt	r2,zero,4154 <_dtoa_r+0x1060>
    3e58:	d9802217 	ldw	r6,136(sp)
    3e5c:	ddc00717 	ldw	r23,28(sp)
    3e60:	018c303a 	nor	r6,zero,r6
    3e64:	d9800515 	stw	r6,20(sp)
    3e68:	a80b883a 	mov	r5,r21
    3e6c:	e009883a 	mov	r4,fp
    3e70:	00068380 	call	6838 <_Bfree>
    3e74:	883e4926 	beq	r17,zero,379c <__alt_mem_ARM_A9_HPS_axi_sdram+0xc000379c>
    3e78:	003fad06 	br	3d30 <__alt_mem_ARM_A9_HPS_axi_sdram+0xc0003d30>
    3e7c:	d9c01117 	ldw	r7,68(sp)
    3e80:	3801bc26 	beq	r7,zero,4574 <_dtoa_r+0x1480>
    3e84:	10810cc4 	addi	r2,r2,1075
    3e88:	dd400a17 	ldw	r21,40(sp)
    3e8c:	dd000817 	ldw	r20,32(sp)
    3e90:	003f0a06 	br	3abc <__alt_mem_ARM_A9_HPS_axi_sdram+0xc0003abc>
    3e94:	00800704 	movi	r2,28
    3e98:	d9000817 	ldw	r4,32(sp)
    3e9c:	a0a9883a 	add	r20,r20,r2
    3ea0:	b0ad883a 	add	r22,r22,r2
    3ea4:	2089883a 	add	r4,r4,r2
    3ea8:	d9000815 	stw	r4,32(sp)
    3eac:	003f5106 	br	3bf4 <__alt_mem_ARM_A9_HPS_axi_sdram+0xc0003bf4>
    3eb0:	d8c00317 	ldw	r3,12(sp)
    3eb4:	b8c1fc0e 	bge	r23,r3,46a8 <_dtoa_r+0x15b4>
    3eb8:	0027883a 	mov	r19,zero
    3ebc:	b805883a 	mov	r2,r23
    3ec0:	003f3e06 	br	3bbc <__alt_mem_ARM_A9_HPS_axi_sdram+0xc0003bbc>
    3ec4:	880b883a 	mov	r5,r17
    3ec8:	e009883a 	mov	r4,fp
    3ecc:	000f883a 	mov	r7,zero
    3ed0:	01800284 	movi	r6,10
    3ed4:	00068600 	call	6860 <__multadd>
    3ed8:	d9000c17 	ldw	r4,48(sp)
    3edc:	1023883a 	mov	r17,r2
    3ee0:	0102040e 	bge	zero,r4,46f4 <_dtoa_r+0x1600>
    3ee4:	d9000615 	stw	r4,24(sp)
    3ee8:	0500050e 	bge	zero,r20,3f00 <_dtoa_r+0xe0c>
    3eec:	880b883a 	mov	r5,r17
    3ef0:	a00d883a 	mov	r6,r20
    3ef4:	e009883a 	mov	r4,fp
    3ef8:	0006f100 	call	6f10 <__lshift>
    3efc:	1023883a 	mov	r17,r2
    3f00:	9801241e 	bne	r19,zero,4394 <_dtoa_r+0x12a0>
    3f04:	8829883a 	mov	r20,r17
    3f08:	d9000617 	ldw	r4,24(sp)
    3f0c:	dcc00717 	ldw	r19,28(sp)
    3f10:	9480004c 	andi	r18,r18,1
    3f14:	20bfffc4 	addi	r2,r4,-1
    3f18:	9885883a 	add	r2,r19,r2
    3f1c:	d8800415 	stw	r2,16(sp)
    3f20:	dc800615 	stw	r18,24(sp)
    3f24:	a80b883a 	mov	r5,r21
    3f28:	8009883a 	mov	r4,r16
    3f2c:	0002ef40 	call	2ef4 <quorem>
    3f30:	880b883a 	mov	r5,r17
    3f34:	8009883a 	mov	r4,r16
    3f38:	102f883a 	mov	r23,r2
    3f3c:	00070580 	call	7058 <__mcmp>
    3f40:	a80b883a 	mov	r5,r21
    3f44:	a00d883a 	mov	r6,r20
    3f48:	e009883a 	mov	r4,fp
    3f4c:	102d883a 	mov	r22,r2
    3f50:	00070b80 	call	70b8 <__mdiff>
    3f54:	1007883a 	mov	r3,r2
    3f58:	10800317 	ldw	r2,12(r2)
    3f5c:	bc800c04 	addi	r18,r23,48
    3f60:	180b883a 	mov	r5,r3
    3f64:	10004e1e 	bne	r2,zero,40a0 <_dtoa_r+0xfac>
    3f68:	8009883a 	mov	r4,r16
    3f6c:	d8c01615 	stw	r3,88(sp)
    3f70:	00070580 	call	7058 <__mcmp>
    3f74:	d8c01617 	ldw	r3,88(sp)
    3f78:	e009883a 	mov	r4,fp
    3f7c:	d8801615 	stw	r2,88(sp)
    3f80:	180b883a 	mov	r5,r3
    3f84:	00068380 	call	6838 <_Bfree>
    3f88:	d8801617 	ldw	r2,88(sp)
    3f8c:	1000041e 	bne	r2,zero,3fa0 <_dtoa_r+0xeac>
    3f90:	d9800317 	ldw	r6,12(sp)
    3f94:	3000021e 	bne	r6,zero,3fa0 <_dtoa_r+0xeac>
    3f98:	d8c00617 	ldw	r3,24(sp)
    3f9c:	18003726 	beq	r3,zero,407c <_dtoa_r+0xf88>
    3fa0:	b0002016 	blt	r22,zero,4024 <_dtoa_r+0xf30>
    3fa4:	b000041e 	bne	r22,zero,3fb8 <_dtoa_r+0xec4>
    3fa8:	d9000317 	ldw	r4,12(sp)
    3fac:	2000021e 	bne	r4,zero,3fb8 <_dtoa_r+0xec4>
    3fb0:	d8c00617 	ldw	r3,24(sp)
    3fb4:	18001b26 	beq	r3,zero,4024 <_dtoa_r+0xf30>
    3fb8:	00810716 	blt	zero,r2,43d8 <_dtoa_r+0x12e4>
    3fbc:	d8c00417 	ldw	r3,16(sp)
    3fc0:	9d800044 	addi	r22,r19,1
    3fc4:	9c800005 	stb	r18,0(r19)
    3fc8:	b02f883a 	mov	r23,r22
    3fcc:	98c10626 	beq	r19,r3,43e8 <_dtoa_r+0x12f4>
    3fd0:	800b883a 	mov	r5,r16
    3fd4:	000f883a 	mov	r7,zero
    3fd8:	01800284 	movi	r6,10
    3fdc:	e009883a 	mov	r4,fp
    3fe0:	00068600 	call	6860 <__multadd>
    3fe4:	1021883a 	mov	r16,r2
    3fe8:	000f883a 	mov	r7,zero
    3fec:	01800284 	movi	r6,10
    3ff0:	880b883a 	mov	r5,r17
    3ff4:	e009883a 	mov	r4,fp
    3ff8:	8d002526 	beq	r17,r20,4090 <_dtoa_r+0xf9c>
    3ffc:	00068600 	call	6860 <__multadd>
    4000:	a00b883a 	mov	r5,r20
    4004:	000f883a 	mov	r7,zero
    4008:	01800284 	movi	r6,10
    400c:	e009883a 	mov	r4,fp
    4010:	1023883a 	mov	r17,r2
    4014:	00068600 	call	6860 <__multadd>
    4018:	1029883a 	mov	r20,r2
    401c:	b027883a 	mov	r19,r22
    4020:	003fc006 	br	3f24 <__alt_mem_ARM_A9_HPS_axi_sdram+0xc0003f24>
    4024:	9011883a 	mov	r8,r18
    4028:	00800e0e 	bge	zero,r2,4064 <_dtoa_r+0xf70>
    402c:	800b883a 	mov	r5,r16
    4030:	01800044 	movi	r6,1
    4034:	e009883a 	mov	r4,fp
    4038:	da001715 	stw	r8,92(sp)
    403c:	0006f100 	call	6f10 <__lshift>
    4040:	a80b883a 	mov	r5,r21
    4044:	1009883a 	mov	r4,r2
    4048:	1021883a 	mov	r16,r2
    404c:	00070580 	call	7058 <__mcmp>
    4050:	da001717 	ldw	r8,92(sp)
    4054:	0081960e 	bge	zero,r2,46b0 <_dtoa_r+0x15bc>
    4058:	00800e44 	movi	r2,57
    405c:	40817026 	beq	r8,r2,4620 <_dtoa_r+0x152c>
    4060:	ba000c44 	addi	r8,r23,49
    4064:	8825883a 	mov	r18,r17
    4068:	9dc00044 	addi	r23,r19,1
    406c:	9a000005 	stb	r8,0(r19)
    4070:	a023883a 	mov	r17,r20
    4074:	dc000915 	stw	r16,36(sp)
    4078:	003f2406 	br	3d0c <__alt_mem_ARM_A9_HPS_axi_sdram+0xc0003d0c>
    407c:	00800e44 	movi	r2,57
    4080:	9011883a 	mov	r8,r18
    4084:	90816626 	beq	r18,r2,4620 <_dtoa_r+0x152c>
    4088:	05bff516 	blt	zero,r22,4060 <__alt_mem_ARM_A9_HPS_axi_sdram+0xc0004060>
    408c:	003ff506 	br	4064 <__alt_mem_ARM_A9_HPS_axi_sdram+0xc0004064>
    4090:	00068600 	call	6860 <__multadd>
    4094:	1023883a 	mov	r17,r2
    4098:	1029883a 	mov	r20,r2
    409c:	003fdf06 	br	401c <__alt_mem_ARM_A9_HPS_axi_sdram+0xc000401c>
    40a0:	e009883a 	mov	r4,fp
    40a4:	00068380 	call	6838 <_Bfree>
    40a8:	00800044 	movi	r2,1
    40ac:	003fbc06 	br	3fa0 <__alt_mem_ARM_A9_HPS_axi_sdram+0xc0003fa0>
    40b0:	a80b883a 	mov	r5,r21
    40b4:	8009883a 	mov	r4,r16
    40b8:	00070580 	call	7058 <__mcmp>
    40bc:	103edb0e 	bge	r2,zero,3c2c <__alt_mem_ARM_A9_HPS_axi_sdram+0xc0003c2c>
    40c0:	800b883a 	mov	r5,r16
    40c4:	000f883a 	mov	r7,zero
    40c8:	01800284 	movi	r6,10
    40cc:	e009883a 	mov	r4,fp
    40d0:	00068600 	call	6860 <__multadd>
    40d4:	1021883a 	mov	r16,r2
    40d8:	d8800517 	ldw	r2,20(sp)
    40dc:	d8c00b17 	ldw	r3,44(sp)
    40e0:	10bfffc4 	addi	r2,r2,-1
    40e4:	d8800515 	stw	r2,20(sp)
    40e8:	183f761e 	bne	r3,zero,3ec4 <__alt_mem_ARM_A9_HPS_axi_sdram+0xc0003ec4>
    40ec:	d9000c17 	ldw	r4,48(sp)
    40f0:	0101730e 	bge	zero,r4,46c0 <_dtoa_r+0x15cc>
    40f4:	d9000615 	stw	r4,24(sp)
    40f8:	003ed006 	br	3c3c <__alt_mem_ARM_A9_HPS_axi_sdram+0xc0003c3c>
    40fc:	00800084 	movi	r2,2
    4100:	3081861e 	bne	r6,r2,471c <_dtoa_r+0x1628>
    4104:	d8000b15 	stw	zero,44(sp)
    4108:	003f3c06 	br	3dfc <__alt_mem_ARM_A9_HPS_axi_sdram+0xc0003dfc>
    410c:	dc000917 	ldw	r16,36(sp)
    4110:	003e9206 	br	3b5c <__alt_mem_ARM_A9_HPS_axi_sdram+0xc0003b5c>
    4114:	d9c00317 	ldw	r7,12(sp)
    4118:	00800084 	movi	r2,2
    411c:	11fec50e 	bge	r2,r7,3c34 <__alt_mem_ARM_A9_HPS_axi_sdram+0xc0003c34>
    4120:	d9000617 	ldw	r4,24(sp)
    4124:	20013c1e 	bne	r4,zero,4618 <_dtoa_r+0x1524>
    4128:	a80b883a 	mov	r5,r21
    412c:	000f883a 	mov	r7,zero
    4130:	01800144 	movi	r6,5
    4134:	e009883a 	mov	r4,fp
    4138:	00068600 	call	6860 <__multadd>
    413c:	100b883a 	mov	r5,r2
    4140:	8009883a 	mov	r4,r16
    4144:	102b883a 	mov	r21,r2
    4148:	00070580 	call	7058 <__mcmp>
    414c:	dc000915 	stw	r16,36(sp)
    4150:	00bf410e 	bge	zero,r2,3e58 <__alt_mem_ARM_A9_HPS_axi_sdram+0xc0003e58>
    4154:	d9c00717 	ldw	r7,28(sp)
    4158:	00800c44 	movi	r2,49
    415c:	38800005 	stb	r2,0(r7)
    4160:	d8800517 	ldw	r2,20(sp)
    4164:	3dc00044 	addi	r23,r7,1
    4168:	10800044 	addi	r2,r2,1
    416c:	d8800515 	stw	r2,20(sp)
    4170:	003f3d06 	br	3e68 <__alt_mem_ARM_A9_HPS_axi_sdram+0xc0003e68>
    4174:	d9800517 	ldw	r6,20(sp)
    4178:	d9c00717 	ldw	r7,28(sp)
    417c:	00800c44 	movi	r2,49
    4180:	31800044 	addi	r6,r6,1
    4184:	d9800515 	stw	r6,20(sp)
    4188:	38800005 	stb	r2,0(r7)
    418c:	003edf06 	br	3d0c <__alt_mem_ARM_A9_HPS_axi_sdram+0xc0003d0c>
    4190:	d8000b15 	stw	zero,44(sp)
    4194:	003c9f06 	br	3414 <__alt_mem_ARM_A9_HPS_axi_sdram+0xc0003414>
    4198:	903e7e1e 	bne	r18,zero,3b94 <__alt_mem_ARM_A9_HPS_axi_sdram+0xc0003b94>
    419c:	00800434 	movhi	r2,16
    41a0:	10bfffc4 	addi	r2,r2,-1
    41a4:	9884703a 	and	r2,r19,r2
    41a8:	1000ea1e 	bne	r2,zero,4554 <_dtoa_r+0x1460>
    41ac:	9cdffc2c 	andhi	r19,r19,32752
    41b0:	9800e826 	beq	r19,zero,4554 <_dtoa_r+0x1460>
    41b4:	d9c00817 	ldw	r7,32(sp)
    41b8:	b5800044 	addi	r22,r22,1
    41bc:	04c00044 	movi	r19,1
    41c0:	39c00044 	addi	r7,r7,1
    41c4:	d9c00815 	stw	r7,32(sp)
    41c8:	d8800d17 	ldw	r2,52(sp)
    41cc:	103e721e 	bne	r2,zero,3b98 <__alt_mem_ARM_A9_HPS_axi_sdram+0xc0003b98>
    41d0:	00800044 	movi	r2,1
    41d4:	003e7906 	br	3bbc <__alt_mem_ARM_A9_HPS_axi_sdram+0xc0003bbc>
    41d8:	8009883a 	mov	r4,r16
    41dc:	000d0300 	call	d030 <__floatsidf>
    41e0:	d9800f17 	ldw	r6,60(sp)
    41e4:	d9c01017 	ldw	r7,64(sp)
    41e8:	1009883a 	mov	r4,r2
    41ec:	180b883a 	mov	r5,r3
    41f0:	000bf9c0 	call	bf9c <__muldf3>
    41f4:	000d883a 	mov	r6,zero
    41f8:	01d00734 	movhi	r7,16412
    41fc:	1009883a 	mov	r4,r2
    4200:	180b883a 	mov	r5,r3
    4204:	000abb00 	call	abb0 <__adddf3>
    4208:	047f3034 	movhi	r17,64704
    420c:	1021883a 	mov	r16,r2
    4210:	1c63883a 	add	r17,r3,r17
    4214:	d9000f17 	ldw	r4,60(sp)
    4218:	d9401017 	ldw	r5,64(sp)
    421c:	000d883a 	mov	r6,zero
    4220:	01d00534 	movhi	r7,16404
    4224:	000c6b40 	call	c6b4 <__subdf3>
    4228:	800d883a 	mov	r6,r16
    422c:	880f883a 	mov	r7,r17
    4230:	1009883a 	mov	r4,r2
    4234:	180b883a 	mov	r5,r3
    4238:	102b883a 	mov	r21,r2
    423c:	1829883a 	mov	r20,r3
    4240:	000bdcc0 	call	bdcc <__gedf2>
    4244:	00806c16 	blt	zero,r2,43f8 <_dtoa_r+0x1304>
    4248:	89e0003c 	xorhi	r7,r17,32768
    424c:	800d883a 	mov	r6,r16
    4250:	a809883a 	mov	r4,r21
    4254:	a00b883a 	mov	r5,r20
    4258:	000bea80 	call	bea8 <__ledf2>
    425c:	103d7e0e 	bge	r2,zero,3858 <__alt_mem_ARM_A9_HPS_axi_sdram+0xc0003858>
    4260:	002b883a 	mov	r21,zero
    4264:	0023883a 	mov	r17,zero
    4268:	003efb06 	br	3e58 <__alt_mem_ARM_A9_HPS_axi_sdram+0xc0003e58>
    426c:	d8800717 	ldw	r2,28(sp)
    4270:	003bd006 	br	31b4 <__alt_mem_ARM_A9_HPS_axi_sdram+0xc00031b4>
    4274:	d9000a17 	ldw	r4,40(sp)
    4278:	d9800d17 	ldw	r6,52(sp)
    427c:	dd400a15 	stw	r21,40(sp)
    4280:	a905c83a 	sub	r2,r21,r4
    4284:	308d883a 	add	r6,r6,r2
    4288:	d9800d15 	stw	r6,52(sp)
    428c:	002b883a 	mov	r21,zero
    4290:	003e0606 	br	3aac <__alt_mem_ARM_A9_HPS_axi_sdram+0xc0003aac>
    4294:	9023883a 	mov	r17,r18
    4298:	9829883a 	mov	r20,r19
    429c:	04000084 	movi	r16,2
    42a0:	003c9206 	br	34ec <__alt_mem_ARM_A9_HPS_axi_sdram+0xc00034ec>
    42a4:	04000044 	movi	r16,1
    42a8:	dc000c15 	stw	r16,48(sp)
    42ac:	dc000615 	stw	r16,24(sp)
    42b0:	dc002215 	stw	r16,136(sp)
    42b4:	e0001115 	stw	zero,68(fp)
    42b8:	000b883a 	mov	r5,zero
    42bc:	003c6906 	br	3464 <__alt_mem_ARM_A9_HPS_axi_sdram+0xc0003464>
    42c0:	3021883a 	mov	r16,r6
    42c4:	003ffb06 	br	42b4 <__alt_mem_ARM_A9_HPS_axi_sdram+0xc00042b4>
    42c8:	1000021e 	bne	r2,zero,42d4 <_dtoa_r+0x11e0>
    42cc:	4200004c 	andi	r8,r8,1
    42d0:	403e7d1e 	bne	r8,zero,3cc8 <__alt_mem_ARM_A9_HPS_axi_sdram+0xc0003cc8>
    42d4:	01000c04 	movi	r4,48
    42d8:	00000106 	br	42e0 <_dtoa_r+0x11ec>
    42dc:	102f883a 	mov	r23,r2
    42e0:	b8bfffc4 	addi	r2,r23,-1
    42e4:	10c00007 	ldb	r3,0(r2)
    42e8:	193ffc26 	beq	r3,r4,42dc <__alt_mem_ARM_A9_HPS_axi_sdram+0xc00042dc>
    42ec:	003e8706 	br	3d0c <__alt_mem_ARM_A9_HPS_axi_sdram+0xc0003d0c>
    42f0:	d8800517 	ldw	r2,20(sp)
    42f4:	00a3c83a 	sub	r17,zero,r2
    42f8:	8800a426 	beq	r17,zero,458c <_dtoa_r+0x1498>
    42fc:	888003cc 	andi	r2,r17,15
    4300:	100490fa 	slli	r2,r2,3
    4304:	00c00074 	movhi	r3,1
    4308:	18c2c004 	addi	r3,r3,2816
    430c:	1885883a 	add	r2,r3,r2
    4310:	11800017 	ldw	r6,0(r2)
    4314:	11c00117 	ldw	r7,4(r2)
    4318:	9009883a 	mov	r4,r18
    431c:	980b883a 	mov	r5,r19
    4320:	8823d13a 	srai	r17,r17,4
    4324:	000bf9c0 	call	bf9c <__muldf3>
    4328:	d8800f15 	stw	r2,60(sp)
    432c:	d8c01015 	stw	r3,64(sp)
    4330:	8800e826 	beq	r17,zero,46d4 <_dtoa_r+0x15e0>
    4334:	05000074 	movhi	r20,1
    4338:	a502b604 	addi	r20,r20,2776
    433c:	04000084 	movi	r16,2
    4340:	8980004c 	andi	r6,r17,1
    4344:	1009883a 	mov	r4,r2
    4348:	8823d07a 	srai	r17,r17,1
    434c:	180b883a 	mov	r5,r3
    4350:	30000426 	beq	r6,zero,4364 <_dtoa_r+0x1270>
    4354:	a1800017 	ldw	r6,0(r20)
    4358:	a1c00117 	ldw	r7,4(r20)
    435c:	84000044 	addi	r16,r16,1
    4360:	000bf9c0 	call	bf9c <__muldf3>
    4364:	a5000204 	addi	r20,r20,8
    4368:	883ff51e 	bne	r17,zero,4340 <__alt_mem_ARM_A9_HPS_axi_sdram+0xc0004340>
    436c:	d8800f15 	stw	r2,60(sp)
    4370:	d8c01015 	stw	r3,64(sp)
    4374:	003c7606 	br	3550 <__alt_mem_ARM_A9_HPS_axi_sdram+0xc0003550>
    4378:	00c00c04 	movi	r3,48
    437c:	10c00005 	stb	r3,0(r2)
    4380:	d8c00517 	ldw	r3,20(sp)
    4384:	bd3fffc3 	ldbu	r20,-1(r23)
    4388:	18c00044 	addi	r3,r3,1
    438c:	d8c00515 	stw	r3,20(sp)
    4390:	003db906 	br	3a78 <__alt_mem_ARM_A9_HPS_axi_sdram+0xc0003a78>
    4394:	89400117 	ldw	r5,4(r17)
    4398:	e009883a 	mov	r4,fp
    439c:	00067900 	call	6790 <_Balloc>
    43a0:	89800417 	ldw	r6,16(r17)
    43a4:	89400304 	addi	r5,r17,12
    43a8:	11000304 	addi	r4,r2,12
    43ac:	31800084 	addi	r6,r6,2
    43b0:	318d883a 	add	r6,r6,r6
    43b4:	318d883a 	add	r6,r6,r6
    43b8:	1027883a 	mov	r19,r2
    43bc:	00063c40 	call	63c4 <memcpy>
    43c0:	01800044 	movi	r6,1
    43c4:	980b883a 	mov	r5,r19
    43c8:	e009883a 	mov	r4,fp
    43cc:	0006f100 	call	6f10 <__lshift>
    43d0:	1029883a 	mov	r20,r2
    43d4:	003ecc06 	br	3f08 <__alt_mem_ARM_A9_HPS_axi_sdram+0xc0003f08>
    43d8:	00800e44 	movi	r2,57
    43dc:	90809026 	beq	r18,r2,4620 <_dtoa_r+0x152c>
    43e0:	92000044 	addi	r8,r18,1
    43e4:	003f1f06 	br	4064 <__alt_mem_ARM_A9_HPS_axi_sdram+0xc0004064>
    43e8:	9011883a 	mov	r8,r18
    43ec:	8825883a 	mov	r18,r17
    43f0:	a023883a 	mov	r17,r20
    43f4:	003e2906 	br	3c9c <__alt_mem_ARM_A9_HPS_axi_sdram+0xc0003c9c>
    43f8:	002b883a 	mov	r21,zero
    43fc:	0023883a 	mov	r17,zero
    4400:	003f5406 	br	4154 <__alt_mem_ARM_A9_HPS_axi_sdram+0xc0004154>
    4404:	61bfffc4 	addi	r6,r12,-1
    4408:	300490fa 	slli	r2,r6,3
    440c:	00c00074 	movhi	r3,1
    4410:	18c2c004 	addi	r3,r3,2816
    4414:	1885883a 	add	r2,r3,r2
    4418:	11000017 	ldw	r4,0(r2)
    441c:	11400117 	ldw	r5,4(r2)
    4420:	d8800717 	ldw	r2,28(sp)
    4424:	880f883a 	mov	r7,r17
    4428:	d9801215 	stw	r6,72(sp)
    442c:	800d883a 	mov	r6,r16
    4430:	db001615 	stw	r12,88(sp)
    4434:	15c00044 	addi	r23,r2,1
    4438:	000bf9c0 	call	bf9c <__muldf3>
    443c:	d9401017 	ldw	r5,64(sp)
    4440:	d9000f17 	ldw	r4,60(sp)
    4444:	d8c01515 	stw	r3,84(sp)
    4448:	d8801415 	stw	r2,80(sp)
    444c:	000cfb00 	call	cfb0 <__fixdfsi>
    4450:	1009883a 	mov	r4,r2
    4454:	1021883a 	mov	r16,r2
    4458:	000d0300 	call	d030 <__floatsidf>
    445c:	d9000f17 	ldw	r4,60(sp)
    4460:	d9401017 	ldw	r5,64(sp)
    4464:	100d883a 	mov	r6,r2
    4468:	180f883a 	mov	r7,r3
    446c:	000c6b40 	call	c6b4 <__subdf3>
    4470:	1829883a 	mov	r20,r3
    4474:	d8c00717 	ldw	r3,28(sp)
    4478:	84000c04 	addi	r16,r16,48
    447c:	1023883a 	mov	r17,r2
    4480:	1c000005 	stb	r16,0(r3)
    4484:	db001617 	ldw	r12,88(sp)
    4488:	00800044 	movi	r2,1
    448c:	60802226 	beq	r12,r2,4518 <_dtoa_r+0x1424>
    4490:	d9c00717 	ldw	r7,28(sp)
    4494:	8805883a 	mov	r2,r17
    4498:	b82b883a 	mov	r21,r23
    449c:	3b19883a 	add	r12,r7,r12
    44a0:	6023883a 	mov	r17,r12
    44a4:	a007883a 	mov	r3,r20
    44a8:	dc800f15 	stw	r18,60(sp)
    44ac:	000d883a 	mov	r6,zero
    44b0:	01d00934 	movhi	r7,16420
    44b4:	1009883a 	mov	r4,r2
    44b8:	180b883a 	mov	r5,r3
    44bc:	000bf9c0 	call	bf9c <__muldf3>
    44c0:	180b883a 	mov	r5,r3
    44c4:	1009883a 	mov	r4,r2
    44c8:	1829883a 	mov	r20,r3
    44cc:	1025883a 	mov	r18,r2
    44d0:	000cfb00 	call	cfb0 <__fixdfsi>
    44d4:	1009883a 	mov	r4,r2
    44d8:	1021883a 	mov	r16,r2
    44dc:	000d0300 	call	d030 <__floatsidf>
    44e0:	100d883a 	mov	r6,r2
    44e4:	180f883a 	mov	r7,r3
    44e8:	9009883a 	mov	r4,r18
    44ec:	a00b883a 	mov	r5,r20
    44f0:	84000c04 	addi	r16,r16,48
    44f4:	000c6b40 	call	c6b4 <__subdf3>
    44f8:	ad400044 	addi	r21,r21,1
    44fc:	ac3fffc5 	stb	r16,-1(r21)
    4500:	ac7fea1e 	bne	r21,r17,44ac <__alt_mem_ARM_A9_HPS_axi_sdram+0xc00044ac>
    4504:	1023883a 	mov	r17,r2
    4508:	d8801217 	ldw	r2,72(sp)
    450c:	dc800f17 	ldw	r18,60(sp)
    4510:	1829883a 	mov	r20,r3
    4514:	b8af883a 	add	r23,r23,r2
    4518:	d9001417 	ldw	r4,80(sp)
    451c:	d9401517 	ldw	r5,84(sp)
    4520:	000d883a 	mov	r6,zero
    4524:	01cff834 	movhi	r7,16352
    4528:	000abb00 	call	abb0 <__adddf3>
    452c:	880d883a 	mov	r6,r17
    4530:	a00f883a 	mov	r7,r20
    4534:	1009883a 	mov	r4,r2
    4538:	180b883a 	mov	r5,r3
    453c:	000bea80 	call	bea8 <__ledf2>
    4540:	10003e0e 	bge	r2,zero,463c <_dtoa_r+0x1548>
    4544:	d9001317 	ldw	r4,76(sp)
    4548:	bd3fffc3 	ldbu	r20,-1(r23)
    454c:	d9000515 	stw	r4,20(sp)
    4550:	003d3b06 	br	3a40 <__alt_mem_ARM_A9_HPS_axi_sdram+0xc0003a40>
    4554:	0027883a 	mov	r19,zero
    4558:	003f1b06 	br	41c8 <__alt_mem_ARM_A9_HPS_axi_sdram+0xc00041c8>
    455c:	d8800817 	ldw	r2,32(sp)
    4560:	11e9c83a 	sub	r20,r2,r7
    4564:	0005883a 	mov	r2,zero
    4568:	003d5406 	br	3abc <__alt_mem_ARM_A9_HPS_axi_sdram+0xc0003abc>
    456c:	00800044 	movi	r2,1
    4570:	003dc706 	br	3c90 <__alt_mem_ARM_A9_HPS_axi_sdram+0xc0003c90>
    4574:	d8c00217 	ldw	r3,8(sp)
    4578:	00800d84 	movi	r2,54
    457c:	dd400a17 	ldw	r21,40(sp)
    4580:	10c5c83a 	sub	r2,r2,r3
    4584:	dd000817 	ldw	r20,32(sp)
    4588:	003d4c06 	br	3abc <__alt_mem_ARM_A9_HPS_axi_sdram+0xc0003abc>
    458c:	dc800f15 	stw	r18,60(sp)
    4590:	dcc01015 	stw	r19,64(sp)
    4594:	04000084 	movi	r16,2
    4598:	003bed06 	br	3550 <__alt_mem_ARM_A9_HPS_axi_sdram+0xc0003550>
    459c:	d9000617 	ldw	r4,24(sp)
    45a0:	203f0d26 	beq	r4,zero,41d8 <__alt_mem_ARM_A9_HPS_axi_sdram+0xc00041d8>
    45a4:	d9800c17 	ldw	r6,48(sp)
    45a8:	01bcab0e 	bge	zero,r6,3858 <__alt_mem_ARM_A9_HPS_axi_sdram+0xc0003858>
    45ac:	d9401017 	ldw	r5,64(sp)
    45b0:	d9000f17 	ldw	r4,60(sp)
    45b4:	000d883a 	mov	r6,zero
    45b8:	01d00934 	movhi	r7,16420
    45bc:	000bf9c0 	call	bf9c <__muldf3>
    45c0:	81000044 	addi	r4,r16,1
    45c4:	d8800f15 	stw	r2,60(sp)
    45c8:	d8c01015 	stw	r3,64(sp)
    45cc:	000d0300 	call	d030 <__floatsidf>
    45d0:	d9800f17 	ldw	r6,60(sp)
    45d4:	d9c01017 	ldw	r7,64(sp)
    45d8:	1009883a 	mov	r4,r2
    45dc:	180b883a 	mov	r5,r3
    45e0:	000bf9c0 	call	bf9c <__muldf3>
    45e4:	01d00734 	movhi	r7,16412
    45e8:	000d883a 	mov	r6,zero
    45ec:	1009883a 	mov	r4,r2
    45f0:	180b883a 	mov	r5,r3
    45f4:	000abb00 	call	abb0 <__adddf3>
    45f8:	d9c00517 	ldw	r7,20(sp)
    45fc:	047f3034 	movhi	r17,64704
    4600:	1021883a 	mov	r16,r2
    4604:	39ffffc4 	addi	r7,r7,-1
    4608:	d9c01315 	stw	r7,76(sp)
    460c:	1c63883a 	add	r17,r3,r17
    4610:	db000c17 	ldw	r12,48(sp)
    4614:	003bea06 	br	35c0 <__alt_mem_ARM_A9_HPS_axi_sdram+0xc00035c0>
    4618:	dc000915 	stw	r16,36(sp)
    461c:	003e0e06 	br	3e58 <__alt_mem_ARM_A9_HPS_axi_sdram+0xc0003e58>
    4620:	01000e44 	movi	r4,57
    4624:	8825883a 	mov	r18,r17
    4628:	9dc00044 	addi	r23,r19,1
    462c:	99000005 	stb	r4,0(r19)
    4630:	a023883a 	mov	r17,r20
    4634:	dc000915 	stw	r16,36(sp)
    4638:	003da406 	br	3ccc <__alt_mem_ARM_A9_HPS_axi_sdram+0xc0003ccc>
    463c:	d9801417 	ldw	r6,80(sp)
    4640:	d9c01517 	ldw	r7,84(sp)
    4644:	0009883a 	mov	r4,zero
    4648:	014ff834 	movhi	r5,16352
    464c:	000c6b40 	call	c6b4 <__subdf3>
    4650:	880d883a 	mov	r6,r17
    4654:	a00f883a 	mov	r7,r20
    4658:	1009883a 	mov	r4,r2
    465c:	180b883a 	mov	r5,r3
    4660:	000bdcc0 	call	bdcc <__gedf2>
    4664:	00bc7c0e 	bge	zero,r2,3858 <__alt_mem_ARM_A9_HPS_axi_sdram+0xc0003858>
    4668:	01000c04 	movi	r4,48
    466c:	00000106 	br	4674 <_dtoa_r+0x1580>
    4670:	102f883a 	mov	r23,r2
    4674:	b8bfffc4 	addi	r2,r23,-1
    4678:	10c00007 	ldb	r3,0(r2)
    467c:	193ffc26 	beq	r3,r4,4670 <__alt_mem_ARM_A9_HPS_axi_sdram+0xc0004670>
    4680:	d9801317 	ldw	r6,76(sp)
    4684:	d9800515 	stw	r6,20(sp)
    4688:	003c4406 	br	379c <__alt_mem_ARM_A9_HPS_axi_sdram+0xc000379c>
    468c:	d9801317 	ldw	r6,76(sp)
    4690:	d9800515 	stw	r6,20(sp)
    4694:	003cea06 	br	3a40 <__alt_mem_ARM_A9_HPS_axi_sdram+0xc0003a40>
    4698:	dd800f17 	ldw	r22,60(sp)
    469c:	dcc01017 	ldw	r19,64(sp)
    46a0:	dc801217 	ldw	r18,72(sp)
    46a4:	003c6c06 	br	3858 <__alt_mem_ARM_A9_HPS_axi_sdram+0xc0003858>
    46a8:	903e031e 	bne	r18,zero,3eb8 <__alt_mem_ARM_A9_HPS_axi_sdram+0xc0003eb8>
    46ac:	003ebb06 	br	419c <__alt_mem_ARM_A9_HPS_axi_sdram+0xc000419c>
    46b0:	103e6c1e 	bne	r2,zero,4064 <__alt_mem_ARM_A9_HPS_axi_sdram+0xc0004064>
    46b4:	4080004c 	andi	r2,r8,1
    46b8:	103e6a26 	beq	r2,zero,4064 <__alt_mem_ARM_A9_HPS_axi_sdram+0xc0004064>
    46bc:	003e6606 	br	4058 <__alt_mem_ARM_A9_HPS_axi_sdram+0xc0004058>
    46c0:	d8c00317 	ldw	r3,12(sp)
    46c4:	00800084 	movi	r2,2
    46c8:	10c02916 	blt	r2,r3,4770 <_dtoa_r+0x167c>
    46cc:	d9000c17 	ldw	r4,48(sp)
    46d0:	003e8806 	br	40f4 <__alt_mem_ARM_A9_HPS_axi_sdram+0xc00040f4>
    46d4:	04000084 	movi	r16,2
    46d8:	003b9d06 	br	3550 <__alt_mem_ARM_A9_HPS_axi_sdram+0xc0003550>
    46dc:	d9001317 	ldw	r4,76(sp)
    46e0:	d9000515 	stw	r4,20(sp)
    46e4:	003cd606 	br	3a40 <__alt_mem_ARM_A9_HPS_axi_sdram+0xc0003a40>
    46e8:	d8801317 	ldw	r2,76(sp)
    46ec:	d8800515 	stw	r2,20(sp)
    46f0:	003c2a06 	br	379c <__alt_mem_ARM_A9_HPS_axi_sdram+0xc000379c>
    46f4:	d9800317 	ldw	r6,12(sp)
    46f8:	00800084 	movi	r2,2
    46fc:	11801516 	blt	r2,r6,4754 <_dtoa_r+0x1660>
    4700:	d9c00c17 	ldw	r7,48(sp)
    4704:	d9c00615 	stw	r7,24(sp)
    4708:	003df706 	br	3ee8 <__alt_mem_ARM_A9_HPS_axi_sdram+0xc0003ee8>
    470c:	193d3926 	beq	r3,r4,3bf4 <__alt_mem_ARM_A9_HPS_axi_sdram+0xc0003bf4>
    4710:	00c00f04 	movi	r3,60
    4714:	1885c83a 	sub	r2,r3,r2
    4718:	003ddf06 	br	3e98 <__alt_mem_ARM_A9_HPS_axi_sdram+0xc0003e98>
    471c:	e009883a 	mov	r4,fp
    4720:	e0001115 	stw	zero,68(fp)
    4724:	000b883a 	mov	r5,zero
    4728:	00067900 	call	6790 <_Balloc>
    472c:	d8800715 	stw	r2,28(sp)
    4730:	d8c00717 	ldw	r3,28(sp)
    4734:	00bfffc4 	movi	r2,-1
    4738:	01000044 	movi	r4,1
    473c:	d8800c15 	stw	r2,48(sp)
    4740:	e0c01015 	stw	r3,64(fp)
    4744:	d9000b15 	stw	r4,44(sp)
    4748:	d8800615 	stw	r2,24(sp)
    474c:	d8002215 	stw	zero,136(sp)
    4750:	003c4106 	br	3858 <__alt_mem_ARM_A9_HPS_axi_sdram+0xc0003858>
    4754:	d8c00c17 	ldw	r3,48(sp)
    4758:	d8c00615 	stw	r3,24(sp)
    475c:	003e7006 	br	4120 <__alt_mem_ARM_A9_HPS_axi_sdram+0xc0004120>
    4760:	04400044 	movi	r17,1
    4764:	003b2006 	br	33e8 <__alt_mem_ARM_A9_HPS_axi_sdram+0xc00033e8>
    4768:	000b883a 	mov	r5,zero
    476c:	003b3d06 	br	3464 <__alt_mem_ARM_A9_HPS_axi_sdram+0xc0003464>
    4770:	d8800c17 	ldw	r2,48(sp)
    4774:	d8800615 	stw	r2,24(sp)
    4778:	003e6906 	br	4120 <__alt_mem_ARM_A9_HPS_axi_sdram+0xc0004120>

0000477c <__sflush_r>:
    477c:	2880030b 	ldhu	r2,12(r5)
    4780:	defffb04 	addi	sp,sp,-20
    4784:	dcc00315 	stw	r19,12(sp)
    4788:	dc400115 	stw	r17,4(sp)
    478c:	dfc00415 	stw	ra,16(sp)
    4790:	dc800215 	stw	r18,8(sp)
    4794:	dc000015 	stw	r16,0(sp)
    4798:	10c0020c 	andi	r3,r2,8
    479c:	2823883a 	mov	r17,r5
    47a0:	2027883a 	mov	r19,r4
    47a4:	1800311e 	bne	r3,zero,486c <__sflush_r+0xf0>
    47a8:	28c00117 	ldw	r3,4(r5)
    47ac:	10820014 	ori	r2,r2,2048
    47b0:	2880030d 	sth	r2,12(r5)
    47b4:	00c04b0e 	bge	zero,r3,48e4 <__sflush_r+0x168>
    47b8:	8a000a17 	ldw	r8,40(r17)
    47bc:	40002326 	beq	r8,zero,484c <__sflush_r+0xd0>
    47c0:	9c000017 	ldw	r16,0(r19)
    47c4:	10c4000c 	andi	r3,r2,4096
    47c8:	98000015 	stw	zero,0(r19)
    47cc:	18004826 	beq	r3,zero,48f0 <__sflush_r+0x174>
    47d0:	89801417 	ldw	r6,80(r17)
    47d4:	10c0010c 	andi	r3,r2,4
    47d8:	18000626 	beq	r3,zero,47f4 <__sflush_r+0x78>
    47dc:	88c00117 	ldw	r3,4(r17)
    47e0:	88800c17 	ldw	r2,48(r17)
    47e4:	30cdc83a 	sub	r6,r6,r3
    47e8:	10000226 	beq	r2,zero,47f4 <__sflush_r+0x78>
    47ec:	88800f17 	ldw	r2,60(r17)
    47f0:	308dc83a 	sub	r6,r6,r2
    47f4:	89400717 	ldw	r5,28(r17)
    47f8:	000f883a 	mov	r7,zero
    47fc:	9809883a 	mov	r4,r19
    4800:	403ee83a 	callr	r8
    4804:	00ffffc4 	movi	r3,-1
    4808:	10c04426 	beq	r2,r3,491c <__sflush_r+0x1a0>
    480c:	88c0030b 	ldhu	r3,12(r17)
    4810:	89000417 	ldw	r4,16(r17)
    4814:	88000115 	stw	zero,4(r17)
    4818:	197dffcc 	andi	r5,r3,63487
    481c:	8940030d 	sth	r5,12(r17)
    4820:	89000015 	stw	r4,0(r17)
    4824:	18c4000c 	andi	r3,r3,4096
    4828:	18002c1e 	bne	r3,zero,48dc <__sflush_r+0x160>
    482c:	89400c17 	ldw	r5,48(r17)
    4830:	9c000015 	stw	r16,0(r19)
    4834:	28000526 	beq	r5,zero,484c <__sflush_r+0xd0>
    4838:	88801004 	addi	r2,r17,64
    483c:	28800226 	beq	r5,r2,4848 <__sflush_r+0xcc>
    4840:	9809883a 	mov	r4,r19
    4844:	0004ee80 	call	4ee8 <_free_r>
    4848:	88000c15 	stw	zero,48(r17)
    484c:	0005883a 	mov	r2,zero
    4850:	dfc00417 	ldw	ra,16(sp)
    4854:	dcc00317 	ldw	r19,12(sp)
    4858:	dc800217 	ldw	r18,8(sp)
    485c:	dc400117 	ldw	r17,4(sp)
    4860:	dc000017 	ldw	r16,0(sp)
    4864:	dec00504 	addi	sp,sp,20
    4868:	f800283a 	ret
    486c:	2c800417 	ldw	r18,16(r5)
    4870:	903ff626 	beq	r18,zero,484c <__alt_mem_ARM_A9_HPS_axi_sdram+0xc000484c>
    4874:	2c000017 	ldw	r16,0(r5)
    4878:	108000cc 	andi	r2,r2,3
    487c:	2c800015 	stw	r18,0(r5)
    4880:	84a1c83a 	sub	r16,r16,r18
    4884:	1000131e 	bne	r2,zero,48d4 <__sflush_r+0x158>
    4888:	28800517 	ldw	r2,20(r5)
    488c:	88800215 	stw	r2,8(r17)
    4890:	04000316 	blt	zero,r16,48a0 <__sflush_r+0x124>
    4894:	003fed06 	br	484c <__alt_mem_ARM_A9_HPS_axi_sdram+0xc000484c>
    4898:	90a5883a 	add	r18,r18,r2
    489c:	043feb0e 	bge	zero,r16,484c <__alt_mem_ARM_A9_HPS_axi_sdram+0xc000484c>
    48a0:	88800917 	ldw	r2,36(r17)
    48a4:	89400717 	ldw	r5,28(r17)
    48a8:	800f883a 	mov	r7,r16
    48ac:	900d883a 	mov	r6,r18
    48b0:	9809883a 	mov	r4,r19
    48b4:	103ee83a 	callr	r2
    48b8:	80a1c83a 	sub	r16,r16,r2
    48bc:	00bff616 	blt	zero,r2,4898 <__alt_mem_ARM_A9_HPS_axi_sdram+0xc0004898>
    48c0:	88c0030b 	ldhu	r3,12(r17)
    48c4:	00bfffc4 	movi	r2,-1
    48c8:	18c01014 	ori	r3,r3,64
    48cc:	88c0030d 	sth	r3,12(r17)
    48d0:	003fdf06 	br	4850 <__alt_mem_ARM_A9_HPS_axi_sdram+0xc0004850>
    48d4:	0005883a 	mov	r2,zero
    48d8:	003fec06 	br	488c <__alt_mem_ARM_A9_HPS_axi_sdram+0xc000488c>
    48dc:	88801415 	stw	r2,80(r17)
    48e0:	003fd206 	br	482c <__alt_mem_ARM_A9_HPS_axi_sdram+0xc000482c>
    48e4:	28c00f17 	ldw	r3,60(r5)
    48e8:	00ffb316 	blt	zero,r3,47b8 <__alt_mem_ARM_A9_HPS_axi_sdram+0xc00047b8>
    48ec:	003fd706 	br	484c <__alt_mem_ARM_A9_HPS_axi_sdram+0xc000484c>
    48f0:	89400717 	ldw	r5,28(r17)
    48f4:	000d883a 	mov	r6,zero
    48f8:	01c00044 	movi	r7,1
    48fc:	9809883a 	mov	r4,r19
    4900:	403ee83a 	callr	r8
    4904:	100d883a 	mov	r6,r2
    4908:	00bfffc4 	movi	r2,-1
    490c:	30801426 	beq	r6,r2,4960 <__sflush_r+0x1e4>
    4910:	8880030b 	ldhu	r2,12(r17)
    4914:	8a000a17 	ldw	r8,40(r17)
    4918:	003fae06 	br	47d4 <__alt_mem_ARM_A9_HPS_axi_sdram+0xc00047d4>
    491c:	98c00017 	ldw	r3,0(r19)
    4920:	183fba26 	beq	r3,zero,480c <__alt_mem_ARM_A9_HPS_axi_sdram+0xc000480c>
    4924:	01000744 	movi	r4,29
    4928:	19000626 	beq	r3,r4,4944 <__sflush_r+0x1c8>
    492c:	01000584 	movi	r4,22
    4930:	19000426 	beq	r3,r4,4944 <__sflush_r+0x1c8>
    4934:	88c0030b 	ldhu	r3,12(r17)
    4938:	18c01014 	ori	r3,r3,64
    493c:	88c0030d 	sth	r3,12(r17)
    4940:	003fc306 	br	4850 <__alt_mem_ARM_A9_HPS_axi_sdram+0xc0004850>
    4944:	8880030b 	ldhu	r2,12(r17)
    4948:	88c00417 	ldw	r3,16(r17)
    494c:	88000115 	stw	zero,4(r17)
    4950:	10bdffcc 	andi	r2,r2,63487
    4954:	8880030d 	sth	r2,12(r17)
    4958:	88c00015 	stw	r3,0(r17)
    495c:	003fb306 	br	482c <__alt_mem_ARM_A9_HPS_axi_sdram+0xc000482c>
    4960:	98800017 	ldw	r2,0(r19)
    4964:	103fea26 	beq	r2,zero,4910 <__alt_mem_ARM_A9_HPS_axi_sdram+0xc0004910>
    4968:	00c00744 	movi	r3,29
    496c:	10c00226 	beq	r2,r3,4978 <__sflush_r+0x1fc>
    4970:	00c00584 	movi	r3,22
    4974:	10c0031e 	bne	r2,r3,4984 <__sflush_r+0x208>
    4978:	9c000015 	stw	r16,0(r19)
    497c:	0005883a 	mov	r2,zero
    4980:	003fb306 	br	4850 <__alt_mem_ARM_A9_HPS_axi_sdram+0xc0004850>
    4984:	88c0030b 	ldhu	r3,12(r17)
    4988:	3005883a 	mov	r2,r6
    498c:	18c01014 	ori	r3,r3,64
    4990:	88c0030d 	sth	r3,12(r17)
    4994:	003fae06 	br	4850 <__alt_mem_ARM_A9_HPS_axi_sdram+0xc0004850>

00004998 <_fflush_r>:
    4998:	defffd04 	addi	sp,sp,-12
    499c:	dc000115 	stw	r16,4(sp)
    49a0:	dfc00215 	stw	ra,8(sp)
    49a4:	2021883a 	mov	r16,r4
    49a8:	20000226 	beq	r4,zero,49b4 <_fflush_r+0x1c>
    49ac:	20800e17 	ldw	r2,56(r4)
    49b0:	10000c26 	beq	r2,zero,49e4 <_fflush_r+0x4c>
    49b4:	2880030f 	ldh	r2,12(r5)
    49b8:	1000051e 	bne	r2,zero,49d0 <_fflush_r+0x38>
    49bc:	0005883a 	mov	r2,zero
    49c0:	dfc00217 	ldw	ra,8(sp)
    49c4:	dc000117 	ldw	r16,4(sp)
    49c8:	dec00304 	addi	sp,sp,12
    49cc:	f800283a 	ret
    49d0:	8009883a 	mov	r4,r16
    49d4:	dfc00217 	ldw	ra,8(sp)
    49d8:	dc000117 	ldw	r16,4(sp)
    49dc:	dec00304 	addi	sp,sp,12
    49e0:	000477c1 	jmpi	477c <__sflush_r>
    49e4:	d9400015 	stw	r5,0(sp)
    49e8:	0004d740 	call	4d74 <__sinit>
    49ec:	d9400017 	ldw	r5,0(sp)
    49f0:	003ff006 	br	49b4 <__alt_mem_ARM_A9_HPS_axi_sdram+0xc00049b4>

000049f4 <fflush>:
    49f4:	20000526 	beq	r4,zero,4a0c <fflush+0x18>
    49f8:	00800074 	movhi	r2,1
    49fc:	108ab804 	addi	r2,r2,10976
    4a00:	200b883a 	mov	r5,r4
    4a04:	11000017 	ldw	r4,0(r2)
    4a08:	00049981 	jmpi	4998 <_fflush_r>
    4a0c:	00800074 	movhi	r2,1
    4a10:	108ab704 	addi	r2,r2,10972
    4a14:	11000017 	ldw	r4,0(r2)
    4a18:	01400034 	movhi	r5,0
    4a1c:	29526604 	addi	r5,r5,18840
    4a20:	00057781 	jmpi	5778 <_fwalk_reent>

00004a24 <__fp_unlock>:
    4a24:	0005883a 	mov	r2,zero
    4a28:	f800283a 	ret

00004a2c <_cleanup_r>:
    4a2c:	01400074 	movhi	r5,1
    4a30:	2965e404 	addi	r5,r5,-26736
    4a34:	00057781 	jmpi	5778 <_fwalk_reent>

00004a38 <__sinit.part.1>:
    4a38:	defff704 	addi	sp,sp,-36
    4a3c:	00c00034 	movhi	r3,0
    4a40:	dfc00815 	stw	ra,32(sp)
    4a44:	ddc00715 	stw	r23,28(sp)
    4a48:	dd800615 	stw	r22,24(sp)
    4a4c:	dd400515 	stw	r21,20(sp)
    4a50:	dd000415 	stw	r20,16(sp)
    4a54:	dcc00315 	stw	r19,12(sp)
    4a58:	dc800215 	stw	r18,8(sp)
    4a5c:	dc400115 	stw	r17,4(sp)
    4a60:	dc000015 	stw	r16,0(sp)
    4a64:	18d28b04 	addi	r3,r3,18988
    4a68:	24000117 	ldw	r16,4(r4)
    4a6c:	20c00f15 	stw	r3,60(r4)
    4a70:	2080bb04 	addi	r2,r4,748
    4a74:	00c000c4 	movi	r3,3
    4a78:	20c0b915 	stw	r3,740(r4)
    4a7c:	2080ba15 	stw	r2,744(r4)
    4a80:	2000b815 	stw	zero,736(r4)
    4a84:	05c00204 	movi	r23,8
    4a88:	00800104 	movi	r2,4
    4a8c:	2025883a 	mov	r18,r4
    4a90:	b80d883a 	mov	r6,r23
    4a94:	81001704 	addi	r4,r16,92
    4a98:	000b883a 	mov	r5,zero
    4a9c:	80000015 	stw	zero,0(r16)
    4aa0:	80000115 	stw	zero,4(r16)
    4aa4:	80000215 	stw	zero,8(r16)
    4aa8:	8080030d 	sth	r2,12(r16)
    4aac:	80001915 	stw	zero,100(r16)
    4ab0:	8000038d 	sth	zero,14(r16)
    4ab4:	80000415 	stw	zero,16(r16)
    4ab8:	80000515 	stw	zero,20(r16)
    4abc:	80000615 	stw	zero,24(r16)
    4ac0:	00066680 	call	6668 <memset>
    4ac4:	05800034 	movhi	r22,0
    4ac8:	94400217 	ldw	r17,8(r18)
    4acc:	05400034 	movhi	r21,0
    4ad0:	05000034 	movhi	r20,0
    4ad4:	04c00034 	movhi	r19,0
    4ad8:	b59f6e04 	addi	r22,r22,32184
    4adc:	ad5f8504 	addi	r21,r21,32276
    4ae0:	a51fa404 	addi	r20,r20,32400
    4ae4:	9cdfbb04 	addi	r19,r19,32492
    4ae8:	85800815 	stw	r22,32(r16)
    4aec:	85400915 	stw	r21,36(r16)
    4af0:	85000a15 	stw	r20,40(r16)
    4af4:	84c00b15 	stw	r19,44(r16)
    4af8:	84000715 	stw	r16,28(r16)
    4afc:	00800284 	movi	r2,10
    4b00:	8880030d 	sth	r2,12(r17)
    4b04:	00800044 	movi	r2,1
    4b08:	b80d883a 	mov	r6,r23
    4b0c:	89001704 	addi	r4,r17,92
    4b10:	000b883a 	mov	r5,zero
    4b14:	88000015 	stw	zero,0(r17)
    4b18:	88000115 	stw	zero,4(r17)
    4b1c:	88000215 	stw	zero,8(r17)
    4b20:	88001915 	stw	zero,100(r17)
    4b24:	8880038d 	sth	r2,14(r17)
    4b28:	88000415 	stw	zero,16(r17)
    4b2c:	88000515 	stw	zero,20(r17)
    4b30:	88000615 	stw	zero,24(r17)
    4b34:	00066680 	call	6668 <memset>
    4b38:	94000317 	ldw	r16,12(r18)
    4b3c:	00800484 	movi	r2,18
    4b40:	8c400715 	stw	r17,28(r17)
    4b44:	8d800815 	stw	r22,32(r17)
    4b48:	8d400915 	stw	r21,36(r17)
    4b4c:	8d000a15 	stw	r20,40(r17)
    4b50:	8cc00b15 	stw	r19,44(r17)
    4b54:	8080030d 	sth	r2,12(r16)
    4b58:	00800084 	movi	r2,2
    4b5c:	80000015 	stw	zero,0(r16)
    4b60:	80000115 	stw	zero,4(r16)
    4b64:	80000215 	stw	zero,8(r16)
    4b68:	80001915 	stw	zero,100(r16)
    4b6c:	8080038d 	sth	r2,14(r16)
    4b70:	80000415 	stw	zero,16(r16)
    4b74:	80000515 	stw	zero,20(r16)
    4b78:	80000615 	stw	zero,24(r16)
    4b7c:	b80d883a 	mov	r6,r23
    4b80:	000b883a 	mov	r5,zero
    4b84:	81001704 	addi	r4,r16,92
    4b88:	00066680 	call	6668 <memset>
    4b8c:	00800044 	movi	r2,1
    4b90:	84000715 	stw	r16,28(r16)
    4b94:	85800815 	stw	r22,32(r16)
    4b98:	85400915 	stw	r21,36(r16)
    4b9c:	85000a15 	stw	r20,40(r16)
    4ba0:	84c00b15 	stw	r19,44(r16)
    4ba4:	90800e15 	stw	r2,56(r18)
    4ba8:	dfc00817 	ldw	ra,32(sp)
    4bac:	ddc00717 	ldw	r23,28(sp)
    4bb0:	dd800617 	ldw	r22,24(sp)
    4bb4:	dd400517 	ldw	r21,20(sp)
    4bb8:	dd000417 	ldw	r20,16(sp)
    4bbc:	dcc00317 	ldw	r19,12(sp)
    4bc0:	dc800217 	ldw	r18,8(sp)
    4bc4:	dc400117 	ldw	r17,4(sp)
    4bc8:	dc000017 	ldw	r16,0(sp)
    4bcc:	dec00904 	addi	sp,sp,36
    4bd0:	f800283a 	ret

00004bd4 <__fp_lock>:
    4bd4:	0005883a 	mov	r2,zero
    4bd8:	f800283a 	ret

00004bdc <__sfmoreglue>:
    4bdc:	defffc04 	addi	sp,sp,-16
    4be0:	dc400115 	stw	r17,4(sp)
    4be4:	2c7fffc4 	addi	r17,r5,-1
    4be8:	8c401a24 	muli	r17,r17,104
    4bec:	dc800215 	stw	r18,8(sp)
    4bf0:	2825883a 	mov	r18,r5
    4bf4:	89401d04 	addi	r5,r17,116
    4bf8:	dc000015 	stw	r16,0(sp)
    4bfc:	dfc00315 	stw	ra,12(sp)
    4c00:	0005ad40 	call	5ad4 <_malloc_r>
    4c04:	1021883a 	mov	r16,r2
    4c08:	10000726 	beq	r2,zero,4c28 <__sfmoreglue+0x4c>
    4c0c:	11000304 	addi	r4,r2,12
    4c10:	10000015 	stw	zero,0(r2)
    4c14:	14800115 	stw	r18,4(r2)
    4c18:	11000215 	stw	r4,8(r2)
    4c1c:	89801a04 	addi	r6,r17,104
    4c20:	000b883a 	mov	r5,zero
    4c24:	00066680 	call	6668 <memset>
    4c28:	8005883a 	mov	r2,r16
    4c2c:	dfc00317 	ldw	ra,12(sp)
    4c30:	dc800217 	ldw	r18,8(sp)
    4c34:	dc400117 	ldw	r17,4(sp)
    4c38:	dc000017 	ldw	r16,0(sp)
    4c3c:	dec00404 	addi	sp,sp,16
    4c40:	f800283a 	ret

00004c44 <__sfp>:
    4c44:	defffb04 	addi	sp,sp,-20
    4c48:	dc000015 	stw	r16,0(sp)
    4c4c:	04000074 	movhi	r16,1
    4c50:	840ab704 	addi	r16,r16,10972
    4c54:	dcc00315 	stw	r19,12(sp)
    4c58:	2027883a 	mov	r19,r4
    4c5c:	81000017 	ldw	r4,0(r16)
    4c60:	dfc00415 	stw	ra,16(sp)
    4c64:	dc800215 	stw	r18,8(sp)
    4c68:	20800e17 	ldw	r2,56(r4)
    4c6c:	dc400115 	stw	r17,4(sp)
    4c70:	1000021e 	bne	r2,zero,4c7c <__sfp+0x38>
    4c74:	0004a380 	call	4a38 <__sinit.part.1>
    4c78:	81000017 	ldw	r4,0(r16)
    4c7c:	2480b804 	addi	r18,r4,736
    4c80:	047fffc4 	movi	r17,-1
    4c84:	91000117 	ldw	r4,4(r18)
    4c88:	94000217 	ldw	r16,8(r18)
    4c8c:	213fffc4 	addi	r4,r4,-1
    4c90:	20000a16 	blt	r4,zero,4cbc <__sfp+0x78>
    4c94:	8080030f 	ldh	r2,12(r16)
    4c98:	10000c26 	beq	r2,zero,4ccc <__sfp+0x88>
    4c9c:	80c01d04 	addi	r3,r16,116
    4ca0:	00000206 	br	4cac <__sfp+0x68>
    4ca4:	18bfe60f 	ldh	r2,-104(r3)
    4ca8:	10000826 	beq	r2,zero,4ccc <__sfp+0x88>
    4cac:	213fffc4 	addi	r4,r4,-1
    4cb0:	1c3ffd04 	addi	r16,r3,-12
    4cb4:	18c01a04 	addi	r3,r3,104
    4cb8:	247ffa1e 	bne	r4,r17,4ca4 <__alt_mem_ARM_A9_HPS_axi_sdram+0xc0004ca4>
    4cbc:	90800017 	ldw	r2,0(r18)
    4cc0:	10001d26 	beq	r2,zero,4d38 <__sfp+0xf4>
    4cc4:	1025883a 	mov	r18,r2
    4cc8:	003fee06 	br	4c84 <__alt_mem_ARM_A9_HPS_axi_sdram+0xc0004c84>
    4ccc:	00bfffc4 	movi	r2,-1
    4cd0:	8080038d 	sth	r2,14(r16)
    4cd4:	00800044 	movi	r2,1
    4cd8:	8080030d 	sth	r2,12(r16)
    4cdc:	80001915 	stw	zero,100(r16)
    4ce0:	80000015 	stw	zero,0(r16)
    4ce4:	80000215 	stw	zero,8(r16)
    4ce8:	80000115 	stw	zero,4(r16)
    4cec:	80000415 	stw	zero,16(r16)
    4cf0:	80000515 	stw	zero,20(r16)
    4cf4:	80000615 	stw	zero,24(r16)
    4cf8:	01800204 	movi	r6,8
    4cfc:	000b883a 	mov	r5,zero
    4d00:	81001704 	addi	r4,r16,92
    4d04:	00066680 	call	6668 <memset>
    4d08:	8005883a 	mov	r2,r16
    4d0c:	80000c15 	stw	zero,48(r16)
    4d10:	80000d15 	stw	zero,52(r16)
    4d14:	80001115 	stw	zero,68(r16)
    4d18:	80001215 	stw	zero,72(r16)
    4d1c:	dfc00417 	ldw	ra,16(sp)
    4d20:	dcc00317 	ldw	r19,12(sp)
    4d24:	dc800217 	ldw	r18,8(sp)
    4d28:	dc400117 	ldw	r17,4(sp)
    4d2c:	dc000017 	ldw	r16,0(sp)
    4d30:	dec00504 	addi	sp,sp,20
    4d34:	f800283a 	ret
    4d38:	01400104 	movi	r5,4
    4d3c:	9809883a 	mov	r4,r19
    4d40:	0004bdc0 	call	4bdc <__sfmoreglue>
    4d44:	90800015 	stw	r2,0(r18)
    4d48:	103fde1e 	bne	r2,zero,4cc4 <__alt_mem_ARM_A9_HPS_axi_sdram+0xc0004cc4>
    4d4c:	00800304 	movi	r2,12
    4d50:	98800015 	stw	r2,0(r19)
    4d54:	0005883a 	mov	r2,zero
    4d58:	003ff006 	br	4d1c <__alt_mem_ARM_A9_HPS_axi_sdram+0xc0004d1c>

00004d5c <_cleanup>:
    4d5c:	00800074 	movhi	r2,1
    4d60:	108ab704 	addi	r2,r2,10972
    4d64:	11000017 	ldw	r4,0(r2)
    4d68:	01400074 	movhi	r5,1
    4d6c:	2965e404 	addi	r5,r5,-26736
    4d70:	00057781 	jmpi	5778 <_fwalk_reent>

00004d74 <__sinit>:
    4d74:	20800e17 	ldw	r2,56(r4)
    4d78:	10000126 	beq	r2,zero,4d80 <__sinit+0xc>
    4d7c:	f800283a 	ret
    4d80:	0004a381 	jmpi	4a38 <__sinit.part.1>

00004d84 <__sfp_lock_acquire>:
    4d84:	f800283a 	ret

00004d88 <__sfp_lock_release>:
    4d88:	f800283a 	ret

00004d8c <__sinit_lock_acquire>:
    4d8c:	f800283a 	ret

00004d90 <__sinit_lock_release>:
    4d90:	f800283a 	ret

00004d94 <__fp_lock_all>:
    4d94:	00800074 	movhi	r2,1
    4d98:	108ab804 	addi	r2,r2,10976
    4d9c:	11000017 	ldw	r4,0(r2)
    4da0:	01400034 	movhi	r5,0
    4da4:	2952f504 	addi	r5,r5,19412
    4da8:	00056b41 	jmpi	56b4 <_fwalk>

00004dac <__fp_unlock_all>:
    4dac:	00800074 	movhi	r2,1
    4db0:	108ab804 	addi	r2,r2,10976
    4db4:	11000017 	ldw	r4,0(r2)
    4db8:	01400034 	movhi	r5,0
    4dbc:	29528904 	addi	r5,r5,18980
    4dc0:	00056b41 	jmpi	56b4 <_fwalk>

00004dc4 <_malloc_trim_r>:
    4dc4:	defffb04 	addi	sp,sp,-20
    4dc8:	dcc00315 	stw	r19,12(sp)
    4dcc:	04c00074 	movhi	r19,1
    4dd0:	dc800215 	stw	r18,8(sp)
    4dd4:	dc400115 	stw	r17,4(sp)
    4dd8:	dc000015 	stw	r16,0(sp)
    4ddc:	dfc00415 	stw	ra,16(sp)
    4de0:	2821883a 	mov	r16,r5
    4de4:	9cc4a604 	addi	r19,r19,4760
    4de8:	2025883a 	mov	r18,r4
    4dec:	000d7940 	call	d794 <__malloc_lock>
    4df0:	98800217 	ldw	r2,8(r19)
    4df4:	14400117 	ldw	r17,4(r2)
    4df8:	00bfff04 	movi	r2,-4
    4dfc:	88a2703a 	and	r17,r17,r2
    4e00:	8c21c83a 	sub	r16,r17,r16
    4e04:	8403fbc4 	addi	r16,r16,4079
    4e08:	8020d33a 	srli	r16,r16,12
    4e0c:	0083ffc4 	movi	r2,4095
    4e10:	843fffc4 	addi	r16,r16,-1
    4e14:	8020933a 	slli	r16,r16,12
    4e18:	1400060e 	bge	r2,r16,4e34 <_malloc_trim_r+0x70>
    4e1c:	000b883a 	mov	r5,zero
    4e20:	9009883a 	mov	r4,r18
    4e24:	0007d640 	call	7d64 <_sbrk_r>
    4e28:	98c00217 	ldw	r3,8(r19)
    4e2c:	1c47883a 	add	r3,r3,r17
    4e30:	10c00a26 	beq	r2,r3,4e5c <_malloc_trim_r+0x98>
    4e34:	9009883a 	mov	r4,r18
    4e38:	000d7b80 	call	d7b8 <__malloc_unlock>
    4e3c:	0005883a 	mov	r2,zero
    4e40:	dfc00417 	ldw	ra,16(sp)
    4e44:	dcc00317 	ldw	r19,12(sp)
    4e48:	dc800217 	ldw	r18,8(sp)
    4e4c:	dc400117 	ldw	r17,4(sp)
    4e50:	dc000017 	ldw	r16,0(sp)
    4e54:	dec00504 	addi	sp,sp,20
    4e58:	f800283a 	ret
    4e5c:	040bc83a 	sub	r5,zero,r16
    4e60:	9009883a 	mov	r4,r18
    4e64:	0007d640 	call	7d64 <_sbrk_r>
    4e68:	00ffffc4 	movi	r3,-1
    4e6c:	10c00d26 	beq	r2,r3,4ea4 <_malloc_trim_r+0xe0>
    4e70:	00c00074 	movhi	r3,1
    4e74:	18d21d04 	addi	r3,r3,18548
    4e78:	18800017 	ldw	r2,0(r3)
    4e7c:	99000217 	ldw	r4,8(r19)
    4e80:	8c23c83a 	sub	r17,r17,r16
    4e84:	8c400054 	ori	r17,r17,1
    4e88:	1421c83a 	sub	r16,r2,r16
    4e8c:	24400115 	stw	r17,4(r4)
    4e90:	9009883a 	mov	r4,r18
    4e94:	1c000015 	stw	r16,0(r3)
    4e98:	000d7b80 	call	d7b8 <__malloc_unlock>
    4e9c:	00800044 	movi	r2,1
    4ea0:	003fe706 	br	4e40 <__alt_mem_ARM_A9_HPS_axi_sdram+0xc0004e40>
    4ea4:	000b883a 	mov	r5,zero
    4ea8:	9009883a 	mov	r4,r18
    4eac:	0007d640 	call	7d64 <_sbrk_r>
    4eb0:	99000217 	ldw	r4,8(r19)
    4eb4:	014003c4 	movi	r5,15
    4eb8:	1107c83a 	sub	r3,r2,r4
    4ebc:	28ffdd0e 	bge	r5,r3,4e34 <__alt_mem_ARM_A9_HPS_axi_sdram+0xc0004e34>
    4ec0:	01400074 	movhi	r5,1
    4ec4:	294aba04 	addi	r5,r5,10984
    4ec8:	29400017 	ldw	r5,0(r5)
    4ecc:	18c00054 	ori	r3,r3,1
    4ed0:	20c00115 	stw	r3,4(r4)
    4ed4:	00c00074 	movhi	r3,1
    4ed8:	1145c83a 	sub	r2,r2,r5
    4edc:	18d21d04 	addi	r3,r3,18548
    4ee0:	18800015 	stw	r2,0(r3)
    4ee4:	003fd306 	br	4e34 <__alt_mem_ARM_A9_HPS_axi_sdram+0xc0004e34>

00004ee8 <_free_r>:
    4ee8:	28004126 	beq	r5,zero,4ff0 <_free_r+0x108>
    4eec:	defffd04 	addi	sp,sp,-12
    4ef0:	dc400115 	stw	r17,4(sp)
    4ef4:	dc000015 	stw	r16,0(sp)
    4ef8:	2023883a 	mov	r17,r4
    4efc:	2821883a 	mov	r16,r5
    4f00:	dfc00215 	stw	ra,8(sp)
    4f04:	000d7940 	call	d794 <__malloc_lock>
    4f08:	81ffff17 	ldw	r7,-4(r16)
    4f0c:	00bfff84 	movi	r2,-2
    4f10:	01000074 	movhi	r4,1
    4f14:	81bffe04 	addi	r6,r16,-8
    4f18:	3884703a 	and	r2,r7,r2
    4f1c:	2104a604 	addi	r4,r4,4760
    4f20:	308b883a 	add	r5,r6,r2
    4f24:	2a400117 	ldw	r9,4(r5)
    4f28:	22000217 	ldw	r8,8(r4)
    4f2c:	00ffff04 	movi	r3,-4
    4f30:	48c6703a 	and	r3,r9,r3
    4f34:	2a005726 	beq	r5,r8,5094 <_free_r+0x1ac>
    4f38:	28c00115 	stw	r3,4(r5)
    4f3c:	39c0004c 	andi	r7,r7,1
    4f40:	3800091e 	bne	r7,zero,4f68 <_free_r+0x80>
    4f44:	823ffe17 	ldw	r8,-8(r16)
    4f48:	22400204 	addi	r9,r4,8
    4f4c:	320dc83a 	sub	r6,r6,r8
    4f50:	31c00217 	ldw	r7,8(r6)
    4f54:	1205883a 	add	r2,r2,r8
    4f58:	3a406526 	beq	r7,r9,50f0 <_free_r+0x208>
    4f5c:	32000317 	ldw	r8,12(r6)
    4f60:	3a000315 	stw	r8,12(r7)
    4f64:	41c00215 	stw	r7,8(r8)
    4f68:	28cf883a 	add	r7,r5,r3
    4f6c:	39c00117 	ldw	r7,4(r7)
    4f70:	39c0004c 	andi	r7,r7,1
    4f74:	38003a26 	beq	r7,zero,5060 <_free_r+0x178>
    4f78:	10c00054 	ori	r3,r2,1
    4f7c:	30c00115 	stw	r3,4(r6)
    4f80:	3087883a 	add	r3,r6,r2
    4f84:	18800015 	stw	r2,0(r3)
    4f88:	00c07fc4 	movi	r3,511
    4f8c:	18801936 	bltu	r3,r2,4ff4 <_free_r+0x10c>
    4f90:	1004d0fa 	srli	r2,r2,3
    4f94:	01c00044 	movi	r7,1
    4f98:	21400117 	ldw	r5,4(r4)
    4f9c:	10c00044 	addi	r3,r2,1
    4fa0:	18c7883a 	add	r3,r3,r3
    4fa4:	1005d0ba 	srai	r2,r2,2
    4fa8:	18c7883a 	add	r3,r3,r3
    4fac:	18c7883a 	add	r3,r3,r3
    4fb0:	1907883a 	add	r3,r3,r4
    4fb4:	3884983a 	sll	r2,r7,r2
    4fb8:	19c00017 	ldw	r7,0(r3)
    4fbc:	1a3ffe04 	addi	r8,r3,-8
    4fc0:	1144b03a 	or	r2,r2,r5
    4fc4:	32000315 	stw	r8,12(r6)
    4fc8:	31c00215 	stw	r7,8(r6)
    4fcc:	20800115 	stw	r2,4(r4)
    4fd0:	19800015 	stw	r6,0(r3)
    4fd4:	39800315 	stw	r6,12(r7)
    4fd8:	8809883a 	mov	r4,r17
    4fdc:	dfc00217 	ldw	ra,8(sp)
    4fe0:	dc400117 	ldw	r17,4(sp)
    4fe4:	dc000017 	ldw	r16,0(sp)
    4fe8:	dec00304 	addi	sp,sp,12
    4fec:	000d7b81 	jmpi	d7b8 <__malloc_unlock>
    4ff0:	f800283a 	ret
    4ff4:	100ad27a 	srli	r5,r2,9
    4ff8:	00c00104 	movi	r3,4
    4ffc:	19404a36 	bltu	r3,r5,5128 <_free_r+0x240>
    5000:	100ad1ba 	srli	r5,r2,6
    5004:	28c00e44 	addi	r3,r5,57
    5008:	18c7883a 	add	r3,r3,r3
    500c:	29400e04 	addi	r5,r5,56
    5010:	18c7883a 	add	r3,r3,r3
    5014:	18c7883a 	add	r3,r3,r3
    5018:	1909883a 	add	r4,r3,r4
    501c:	20c00017 	ldw	r3,0(r4)
    5020:	01c00074 	movhi	r7,1
    5024:	213ffe04 	addi	r4,r4,-8
    5028:	39c4a604 	addi	r7,r7,4760
    502c:	20c04426 	beq	r4,r3,5140 <_free_r+0x258>
    5030:	01ffff04 	movi	r7,-4
    5034:	19400117 	ldw	r5,4(r3)
    5038:	29ca703a 	and	r5,r5,r7
    503c:	1140022e 	bgeu	r2,r5,5048 <_free_r+0x160>
    5040:	18c00217 	ldw	r3,8(r3)
    5044:	20fffb1e 	bne	r4,r3,5034 <__alt_mem_ARM_A9_HPS_axi_sdram+0xc0005034>
    5048:	19000317 	ldw	r4,12(r3)
    504c:	31000315 	stw	r4,12(r6)
    5050:	30c00215 	stw	r3,8(r6)
    5054:	21800215 	stw	r6,8(r4)
    5058:	19800315 	stw	r6,12(r3)
    505c:	003fde06 	br	4fd8 <__alt_mem_ARM_A9_HPS_axi_sdram+0xc0004fd8>
    5060:	29c00217 	ldw	r7,8(r5)
    5064:	10c5883a 	add	r2,r2,r3
    5068:	00c00074 	movhi	r3,1
    506c:	18c4a804 	addi	r3,r3,4768
    5070:	38c03b26 	beq	r7,r3,5160 <_free_r+0x278>
    5074:	2a000317 	ldw	r8,12(r5)
    5078:	11400054 	ori	r5,r2,1
    507c:	3087883a 	add	r3,r6,r2
    5080:	3a000315 	stw	r8,12(r7)
    5084:	41c00215 	stw	r7,8(r8)
    5088:	31400115 	stw	r5,4(r6)
    508c:	18800015 	stw	r2,0(r3)
    5090:	003fbd06 	br	4f88 <__alt_mem_ARM_A9_HPS_axi_sdram+0xc0004f88>
    5094:	39c0004c 	andi	r7,r7,1
    5098:	10c5883a 	add	r2,r2,r3
    509c:	3800071e 	bne	r7,zero,50bc <_free_r+0x1d4>
    50a0:	81fffe17 	ldw	r7,-8(r16)
    50a4:	31cdc83a 	sub	r6,r6,r7
    50a8:	30c00317 	ldw	r3,12(r6)
    50ac:	31400217 	ldw	r5,8(r6)
    50b0:	11c5883a 	add	r2,r2,r7
    50b4:	28c00315 	stw	r3,12(r5)
    50b8:	19400215 	stw	r5,8(r3)
    50bc:	10c00054 	ori	r3,r2,1
    50c0:	30c00115 	stw	r3,4(r6)
    50c4:	00c00074 	movhi	r3,1
    50c8:	18cabb04 	addi	r3,r3,10988
    50cc:	18c00017 	ldw	r3,0(r3)
    50d0:	21800215 	stw	r6,8(r4)
    50d4:	10ffc036 	bltu	r2,r3,4fd8 <__alt_mem_ARM_A9_HPS_axi_sdram+0xc0004fd8>
    50d8:	00800074 	movhi	r2,1
    50dc:	10921404 	addi	r2,r2,18512
    50e0:	11400017 	ldw	r5,0(r2)
    50e4:	8809883a 	mov	r4,r17
    50e8:	0004dc40 	call	4dc4 <_malloc_trim_r>
    50ec:	003fba06 	br	4fd8 <__alt_mem_ARM_A9_HPS_axi_sdram+0xc0004fd8>
    50f0:	28c9883a 	add	r4,r5,r3
    50f4:	21000117 	ldw	r4,4(r4)
    50f8:	2100004c 	andi	r4,r4,1
    50fc:	2000391e 	bne	r4,zero,51e4 <_free_r+0x2fc>
    5100:	29c00217 	ldw	r7,8(r5)
    5104:	29000317 	ldw	r4,12(r5)
    5108:	1885883a 	add	r2,r3,r2
    510c:	10c00054 	ori	r3,r2,1
    5110:	39000315 	stw	r4,12(r7)
    5114:	21c00215 	stw	r7,8(r4)
    5118:	30c00115 	stw	r3,4(r6)
    511c:	308d883a 	add	r6,r6,r2
    5120:	30800015 	stw	r2,0(r6)
    5124:	003fac06 	br	4fd8 <__alt_mem_ARM_A9_HPS_axi_sdram+0xc0004fd8>
    5128:	00c00504 	movi	r3,20
    512c:	19401536 	bltu	r3,r5,5184 <_free_r+0x29c>
    5130:	28c01704 	addi	r3,r5,92
    5134:	18c7883a 	add	r3,r3,r3
    5138:	294016c4 	addi	r5,r5,91
    513c:	003fb406 	br	5010 <__alt_mem_ARM_A9_HPS_axi_sdram+0xc0005010>
    5140:	280bd0ba 	srai	r5,r5,2
    5144:	00c00044 	movi	r3,1
    5148:	38800117 	ldw	r2,4(r7)
    514c:	194a983a 	sll	r5,r3,r5
    5150:	2007883a 	mov	r3,r4
    5154:	2884b03a 	or	r2,r5,r2
    5158:	38800115 	stw	r2,4(r7)
    515c:	003fbb06 	br	504c <__alt_mem_ARM_A9_HPS_axi_sdram+0xc000504c>
    5160:	21800515 	stw	r6,20(r4)
    5164:	21800415 	stw	r6,16(r4)
    5168:	10c00054 	ori	r3,r2,1
    516c:	31c00315 	stw	r7,12(r6)
    5170:	31c00215 	stw	r7,8(r6)
    5174:	30c00115 	stw	r3,4(r6)
    5178:	308d883a 	add	r6,r6,r2
    517c:	30800015 	stw	r2,0(r6)
    5180:	003f9506 	br	4fd8 <__alt_mem_ARM_A9_HPS_axi_sdram+0xc0004fd8>
    5184:	00c01504 	movi	r3,84
    5188:	19400536 	bltu	r3,r5,51a0 <_free_r+0x2b8>
    518c:	100ad33a 	srli	r5,r2,12
    5190:	28c01bc4 	addi	r3,r5,111
    5194:	18c7883a 	add	r3,r3,r3
    5198:	29401b84 	addi	r5,r5,110
    519c:	003f9c06 	br	5010 <__alt_mem_ARM_A9_HPS_axi_sdram+0xc0005010>
    51a0:	00c05504 	movi	r3,340
    51a4:	19400536 	bltu	r3,r5,51bc <_free_r+0x2d4>
    51a8:	100ad3fa 	srli	r5,r2,15
    51ac:	28c01e04 	addi	r3,r5,120
    51b0:	18c7883a 	add	r3,r3,r3
    51b4:	29401dc4 	addi	r5,r5,119
    51b8:	003f9506 	br	5010 <__alt_mem_ARM_A9_HPS_axi_sdram+0xc0005010>
    51bc:	00c15504 	movi	r3,1364
    51c0:	19400536 	bltu	r3,r5,51d8 <_free_r+0x2f0>
    51c4:	100ad4ba 	srli	r5,r2,18
    51c8:	28c01f44 	addi	r3,r5,125
    51cc:	18c7883a 	add	r3,r3,r3
    51d0:	29401f04 	addi	r5,r5,124
    51d4:	003f8e06 	br	5010 <__alt_mem_ARM_A9_HPS_axi_sdram+0xc0005010>
    51d8:	00c03f84 	movi	r3,254
    51dc:	01401f84 	movi	r5,126
    51e0:	003f8b06 	br	5010 <__alt_mem_ARM_A9_HPS_axi_sdram+0xc0005010>
    51e4:	10c00054 	ori	r3,r2,1
    51e8:	30c00115 	stw	r3,4(r6)
    51ec:	308d883a 	add	r6,r6,r2
    51f0:	30800015 	stw	r2,0(r6)
    51f4:	003f7806 	br	4fd8 <__alt_mem_ARM_A9_HPS_axi_sdram+0xc0004fd8>

000051f8 <__sfvwrite_r>:
    51f8:	30800217 	ldw	r2,8(r6)
    51fc:	10006726 	beq	r2,zero,539c <__sfvwrite_r+0x1a4>
    5200:	28c0030b 	ldhu	r3,12(r5)
    5204:	defff404 	addi	sp,sp,-48
    5208:	dd400715 	stw	r21,28(sp)
    520c:	dd000615 	stw	r20,24(sp)
    5210:	dc000215 	stw	r16,8(sp)
    5214:	dfc00b15 	stw	ra,44(sp)
    5218:	df000a15 	stw	fp,40(sp)
    521c:	ddc00915 	stw	r23,36(sp)
    5220:	dd800815 	stw	r22,32(sp)
    5224:	dcc00515 	stw	r19,20(sp)
    5228:	dc800415 	stw	r18,16(sp)
    522c:	dc400315 	stw	r17,12(sp)
    5230:	1880020c 	andi	r2,r3,8
    5234:	2821883a 	mov	r16,r5
    5238:	202b883a 	mov	r21,r4
    523c:	3029883a 	mov	r20,r6
    5240:	10002726 	beq	r2,zero,52e0 <__sfvwrite_r+0xe8>
    5244:	28800417 	ldw	r2,16(r5)
    5248:	10002526 	beq	r2,zero,52e0 <__sfvwrite_r+0xe8>
    524c:	1880008c 	andi	r2,r3,2
    5250:	a4400017 	ldw	r17,0(r20)
    5254:	10002a26 	beq	r2,zero,5300 <__sfvwrite_r+0x108>
    5258:	05a00034 	movhi	r22,32768
    525c:	0027883a 	mov	r19,zero
    5260:	0025883a 	mov	r18,zero
    5264:	b5bf0004 	addi	r22,r22,-1024
    5268:	980d883a 	mov	r6,r19
    526c:	a809883a 	mov	r4,r21
    5270:	90004626 	beq	r18,zero,538c <__sfvwrite_r+0x194>
    5274:	900f883a 	mov	r7,r18
    5278:	b480022e 	bgeu	r22,r18,5284 <__sfvwrite_r+0x8c>
    527c:	01e00034 	movhi	r7,32768
    5280:	39ff0004 	addi	r7,r7,-1024
    5284:	80800917 	ldw	r2,36(r16)
    5288:	81400717 	ldw	r5,28(r16)
    528c:	103ee83a 	callr	r2
    5290:	0080570e 	bge	zero,r2,53f0 <__sfvwrite_r+0x1f8>
    5294:	a0c00217 	ldw	r3,8(r20)
    5298:	98a7883a 	add	r19,r19,r2
    529c:	90a5c83a 	sub	r18,r18,r2
    52a0:	1885c83a 	sub	r2,r3,r2
    52a4:	a0800215 	stw	r2,8(r20)
    52a8:	103fef1e 	bne	r2,zero,5268 <__alt_mem_ARM_A9_HPS_axi_sdram+0xc0005268>
    52ac:	0005883a 	mov	r2,zero
    52b0:	dfc00b17 	ldw	ra,44(sp)
    52b4:	df000a17 	ldw	fp,40(sp)
    52b8:	ddc00917 	ldw	r23,36(sp)
    52bc:	dd800817 	ldw	r22,32(sp)
    52c0:	dd400717 	ldw	r21,28(sp)
    52c4:	dd000617 	ldw	r20,24(sp)
    52c8:	dcc00517 	ldw	r19,20(sp)
    52cc:	dc800417 	ldw	r18,16(sp)
    52d0:	dc400317 	ldw	r17,12(sp)
    52d4:	dc000217 	ldw	r16,8(sp)
    52d8:	dec00c04 	addi	sp,sp,48
    52dc:	f800283a 	ret
    52e0:	800b883a 	mov	r5,r16
    52e4:	a809883a 	mov	r4,r21
    52e8:	0002da00 	call	2da0 <__swsetup_r>
    52ec:	1000eb1e 	bne	r2,zero,569c <__sfvwrite_r+0x4a4>
    52f0:	80c0030b 	ldhu	r3,12(r16)
    52f4:	a4400017 	ldw	r17,0(r20)
    52f8:	1880008c 	andi	r2,r3,2
    52fc:	103fd61e 	bne	r2,zero,5258 <__alt_mem_ARM_A9_HPS_axi_sdram+0xc0005258>
    5300:	1880004c 	andi	r2,r3,1
    5304:	10003f1e 	bne	r2,zero,5404 <__sfvwrite_r+0x20c>
    5308:	0039883a 	mov	fp,zero
    530c:	0025883a 	mov	r18,zero
    5310:	90001a26 	beq	r18,zero,537c <__sfvwrite_r+0x184>
    5314:	1880800c 	andi	r2,r3,512
    5318:	84c00217 	ldw	r19,8(r16)
    531c:	10002126 	beq	r2,zero,53a4 <__sfvwrite_r+0x1ac>
    5320:	982f883a 	mov	r23,r19
    5324:	94c09336 	bltu	r18,r19,5574 <__sfvwrite_r+0x37c>
    5328:	1881200c 	andi	r2,r3,1152
    532c:	10009e1e 	bne	r2,zero,55a8 <__sfvwrite_r+0x3b0>
    5330:	81000017 	ldw	r4,0(r16)
    5334:	b80d883a 	mov	r6,r23
    5338:	e00b883a 	mov	r5,fp
    533c:	000650c0 	call	650c <memmove>
    5340:	80c00217 	ldw	r3,8(r16)
    5344:	81000017 	ldw	r4,0(r16)
    5348:	9005883a 	mov	r2,r18
    534c:	1ce7c83a 	sub	r19,r3,r19
    5350:	25cf883a 	add	r7,r4,r23
    5354:	84c00215 	stw	r19,8(r16)
    5358:	81c00015 	stw	r7,0(r16)
    535c:	a0c00217 	ldw	r3,8(r20)
    5360:	e0b9883a 	add	fp,fp,r2
    5364:	90a5c83a 	sub	r18,r18,r2
    5368:	18a7c83a 	sub	r19,r3,r2
    536c:	a4c00215 	stw	r19,8(r20)
    5370:	983fce26 	beq	r19,zero,52ac <__alt_mem_ARM_A9_HPS_axi_sdram+0xc00052ac>
    5374:	80c0030b 	ldhu	r3,12(r16)
    5378:	903fe61e 	bne	r18,zero,5314 <__alt_mem_ARM_A9_HPS_axi_sdram+0xc0005314>
    537c:	8f000017 	ldw	fp,0(r17)
    5380:	8c800117 	ldw	r18,4(r17)
    5384:	8c400204 	addi	r17,r17,8
    5388:	003fe106 	br	5310 <__alt_mem_ARM_A9_HPS_axi_sdram+0xc0005310>
    538c:	8cc00017 	ldw	r19,0(r17)
    5390:	8c800117 	ldw	r18,4(r17)
    5394:	8c400204 	addi	r17,r17,8
    5398:	003fb306 	br	5268 <__alt_mem_ARM_A9_HPS_axi_sdram+0xc0005268>
    539c:	0005883a 	mov	r2,zero
    53a0:	f800283a 	ret
    53a4:	81000017 	ldw	r4,0(r16)
    53a8:	80800417 	ldw	r2,16(r16)
    53ac:	11005736 	bltu	r2,r4,550c <__sfvwrite_r+0x314>
    53b0:	85c00517 	ldw	r23,20(r16)
    53b4:	95c05536 	bltu	r18,r23,550c <__sfvwrite_r+0x314>
    53b8:	00a00034 	movhi	r2,32768
    53bc:	10bfffc4 	addi	r2,r2,-1
    53c0:	9009883a 	mov	r4,r18
    53c4:	1480012e 	bgeu	r2,r18,53cc <__sfvwrite_r+0x1d4>
    53c8:	1009883a 	mov	r4,r2
    53cc:	b80b883a 	mov	r5,r23
    53d0:	000a9fc0 	call	a9fc <__divsi3>
    53d4:	15cf383a 	mul	r7,r2,r23
    53d8:	81400717 	ldw	r5,28(r16)
    53dc:	80800917 	ldw	r2,36(r16)
    53e0:	e00d883a 	mov	r6,fp
    53e4:	a809883a 	mov	r4,r21
    53e8:	103ee83a 	callr	r2
    53ec:	00bfdb16 	blt	zero,r2,535c <__alt_mem_ARM_A9_HPS_axi_sdram+0xc000535c>
    53f0:	8080030b 	ldhu	r2,12(r16)
    53f4:	10801014 	ori	r2,r2,64
    53f8:	8080030d 	sth	r2,12(r16)
    53fc:	00bfffc4 	movi	r2,-1
    5400:	003fab06 	br	52b0 <__alt_mem_ARM_A9_HPS_axi_sdram+0xc00052b0>
    5404:	0027883a 	mov	r19,zero
    5408:	0011883a 	mov	r8,zero
    540c:	0039883a 	mov	fp,zero
    5410:	0025883a 	mov	r18,zero
    5414:	90001f26 	beq	r18,zero,5494 <__sfvwrite_r+0x29c>
    5418:	40005a26 	beq	r8,zero,5584 <__sfvwrite_r+0x38c>
    541c:	982d883a 	mov	r22,r19
    5420:	94c0012e 	bgeu	r18,r19,5428 <__sfvwrite_r+0x230>
    5424:	902d883a 	mov	r22,r18
    5428:	81000017 	ldw	r4,0(r16)
    542c:	80800417 	ldw	r2,16(r16)
    5430:	b02f883a 	mov	r23,r22
    5434:	81c00517 	ldw	r7,20(r16)
    5438:	1100032e 	bgeu	r2,r4,5448 <__sfvwrite_r+0x250>
    543c:	80c00217 	ldw	r3,8(r16)
    5440:	38c7883a 	add	r3,r7,r3
    5444:	1d801816 	blt	r3,r22,54a8 <__sfvwrite_r+0x2b0>
    5448:	b1c03e16 	blt	r22,r7,5544 <__sfvwrite_r+0x34c>
    544c:	80800917 	ldw	r2,36(r16)
    5450:	81400717 	ldw	r5,28(r16)
    5454:	e00d883a 	mov	r6,fp
    5458:	da000115 	stw	r8,4(sp)
    545c:	a809883a 	mov	r4,r21
    5460:	103ee83a 	callr	r2
    5464:	102f883a 	mov	r23,r2
    5468:	da000117 	ldw	r8,4(sp)
    546c:	00bfe00e 	bge	zero,r2,53f0 <__alt_mem_ARM_A9_HPS_axi_sdram+0xc00053f0>
    5470:	9de7c83a 	sub	r19,r19,r23
    5474:	98001f26 	beq	r19,zero,54f4 <__sfvwrite_r+0x2fc>
    5478:	a0800217 	ldw	r2,8(r20)
    547c:	e5f9883a 	add	fp,fp,r23
    5480:	95e5c83a 	sub	r18,r18,r23
    5484:	15efc83a 	sub	r23,r2,r23
    5488:	a5c00215 	stw	r23,8(r20)
    548c:	b83f8726 	beq	r23,zero,52ac <__alt_mem_ARM_A9_HPS_axi_sdram+0xc00052ac>
    5490:	903fe11e 	bne	r18,zero,5418 <__alt_mem_ARM_A9_HPS_axi_sdram+0xc0005418>
    5494:	8f000017 	ldw	fp,0(r17)
    5498:	8c800117 	ldw	r18,4(r17)
    549c:	0011883a 	mov	r8,zero
