
DEFAULT_SETTING.elf:     file format elf32-littlenios2
DEFAULT_SETTING.elf
architecture: nios2:r1, flags 0x00000112:
EXEC_P, HAS_SYMS, D_PAGED
start address 0x00000248

Program Header:
    LOAD off    0x00001000 vaddr 0x00000000 paddr 0x00000000 align 2**12
         filesz 0x00000020 memsz 0x00000020 flags r-x
    LOAD off    0x00001020 vaddr 0x00000020 paddr 0x00000020 align 2**12
         filesz 0x000167b8 memsz 0x000167b8 flags r-x
    LOAD off    0x000177d8 vaddr 0x000167d8 paddr 0x0001d13c align 2**12
         filesz 0x00006964 memsz 0x00006964 flags rw-
    LOAD off    0x0001eaa0 vaddr 0x00023aa0 paddr 0x00023aa0 align 2**12
         filesz 0x00000000 memsz 0x008213e0 flags rw-

Sections:
Idx Name          Size      VMA       LMA       File off  Algn
  0 .entry        00000020  00000000  00000000  00001000  2**5
                  CONTENTS, ALLOC, LOAD, READONLY, CODE
  1 .exceptions   00000228  00000020  00000020  00001020  2**2
                  CONTENTS, ALLOC, LOAD, READONLY, CODE
  2 .text         00012e40  00000248  00000248  00001248  2**2
                  CONTENTS, ALLOC, LOAD, READONLY, CODE
  3 .rodata       00003750  00013088  00013088  00014088  2**2
                  CONTENTS, ALLOC, LOAD, READONLY, DATA
  4 .rwdata       00006964  000167d8  0001d13c  000177d8  2**2
                  CONTENTS, ALLOC, LOAD, DATA, SMALL_DATA
  5 .bss          00821485  00023aa0  00023aa0  0001eaa0  2**2
                  ALLOC, SMALL_DATA
  6 .SDRAM        00000000  00844e80  00844e80  0001e13c  2**0
                  CONTENTS
  7 .Onchip_SRAM  00000000  08000000  08000000  0001e13c  2**0
                  CONTENTS
  8 .VGA_Subsystem_Char_Buf_Subsystem_Onchip_SRAM 00000000  09000000  09000000  0001e13c  2**0
                  CONTENTS
  9 .ARM_A9_HPS_axi_sdram 00000000  40000000  40000000  0001e13c  2**0
                  CONTENTS
 10 .comment      00000023  00000000  00000000  0001e13c  2**0
                  CONTENTS, READONLY
 11 .debug_aranges 00000ed8  00000000  00000000  0001e160  2**3
                  CONTENTS, READONLY, DEBUGGING
 12 .debug_info   00025368  00000000  00000000  0001f038  2**0
                  CONTENTS, READONLY, DEBUGGING
 13 .debug_abbrev 000093b4  00000000  00000000  000443a0  2**0
                  CONTENTS, READONLY, DEBUGGING
 14 .debug_line   0000c101  00000000  00000000  0004d754  2**0
                  CONTENTS, READONLY, DEBUGGING
 15 .debug_frame  000029cc  00000000  00000000  00059858  2**2
                  CONTENTS, READONLY, DEBUGGING
 16 .debug_str    0000438f  00000000  00000000  0005c224  2**0
                  CONTENTS, READONLY, DEBUGGING
 17 .debug_loc    00017868  00000000  00000000  000605b3  2**0
                  CONTENTS, READONLY, DEBUGGING
 18 .debug_alt_sim_info 00000020  00000000  00000000  00077e1c  2**2
                  CONTENTS, READONLY, DEBUGGING
 19 .debug_ranges 000018c0  00000000  00000000  00077e40  2**3
                  CONTENTS, READONLY, DEBUGGING
 20 .thread_model 00000003  00000000  00000000  0007d8cd  2**0
                  CONTENTS, READONLY
 21 .cpu          00000005  00000000  00000000  0007d8d0  2**0
                  CONTENTS, READONLY
 22 .qsys         00000001  00000000  00000000  0007d8d5  2**0
                  CONTENTS, READONLY
 23 .simulation_enabled 00000001  00000000  00000000  0007d8d6  2**0
                  CONTENTS, READONLY
 24 .sysid_hash   00000004  00000000  00000000  0007d8d7  2**0
                  CONTENTS, READONLY
 25 .sysid_base   00000004  00000000  00000000  0007d8db  2**0
                  CONTENTS, READONLY
 26 .sysid_time   00000004  00000000  00000000  0007d8df  2**0
                  CONTENTS, READONLY
 27 .stderr_dev   00000009  00000000  00000000  0007d8e3  2**0
                  CONTENTS, READONLY
 28 .stdin_dev    00000009  00000000  00000000  0007d8ec  2**0
                  CONTENTS, READONLY
 29 .stdout_dev   00000009  00000000  00000000  0007d8f5  2**0
                  CONTENTS, READONLY
 30 .sopc_system_name 0000000f  00000000  00000000  0007d8fe  2**0
                  CONTENTS, READONLY
 31 .quartus_project_dir 0000002b  00000000  00000000  0007d90d  2**0
                  CONTENTS, READONLY
 32 .sopcinfo     004881a6  00000000  00000000  0007d938  2**0
                  CONTENTS, READONLY
SYMBOL TABLE:
00000000 l    d  .entry	00000000 .entry
00000020 l    d  .exceptions	00000000 .exceptions
00000248 l    d  .text	00000000 .text
00013088 l    d  .rodata	00000000 .rodata
000167d8 l    d  .rwdata	00000000 .rwdata
00023aa0 l    d  .bss	00000000 .bss
00844e80 l    d  .SDRAM	00000000 .SDRAM
08000000 l    d  .Onchip_SRAM	00000000 .Onchip_SRAM
09000000 l    d  .VGA_Subsystem_Char_Buf_Subsystem_Onchip_SRAM	00000000 .VGA_Subsystem_Char_Buf_Subsystem_Onchip_SRAM
40000000 l    d  .ARM_A9_HPS_axi_sdram	00000000 .ARM_A9_HPS_axi_sdram
00000000 l    d  .comment	00000000 .comment
00000000 l    d  .debug_aranges	00000000 .debug_aranges
00000000 l    d  .debug_info	00000000 .debug_info
00000000 l    d  .debug_abbrev	00000000 .debug_abbrev
00000000 l    d  .debug_line	00000000 .debug_line
00000000 l    d  .debug_frame	00000000 .debug_frame
00000000 l    d  .debug_str	00000000 .debug_str
00000000 l    d  .debug_loc	00000000 .debug_loc
00000000 l    d  .debug_alt_sim_info	00000000 .debug_alt_sim_info
00000000 l    d  .debug_ranges	00000000 .debug_ranges
00000000 l    df *ABS*	00000000 C:/src/KAU_EMBEDED_19/Quartus/software/DEFAULT_SETTING_bsp//obj/HAL/src/crt0.o
00000280 l       .text	00000000 alt_after_alt_main
00000000 l    df *ABS*	00000000 alt_irq_handler.c
00000000 l    df *ABS*	00000000 alt_instruction_exception_entry.c
00000000 l    df *ABS*	00000000 main.c
00000000 l    df *ABS*	00000000 printf.c
00000000 l    df *ABS*	00000000 puts.c
00000000 l    df *ABS*	00000000 strlen.c
00000000 l    df *ABS*	00000000 vfprintf.c
0001643e l     O .rodata	00000010 zeroes.4404
00005390 l     F .text	000000bc __sbprintf
0001644e l     O .rodata	00000010 blanks.4403
00000000 l    df *ABS*	00000000 wsetup.c
00000000 l    df *ABS*	00000000 dtoa.c
000055a0 l     F .text	00000200 quorem
00000000 l    df *ABS*	00000000 fflush.c
00000000 l    df *ABS*	00000000 findfp.c
000070d0 l     F .text	00000008 __fp_unlock
000070e4 l     F .text	0000019c __sinit.part.1
00007280 l     F .text	00000008 __fp_lock
00000000 l    df *ABS*	00000000 mallocr.c
00000000 l    df *ABS*	00000000 fvwrite.c
00000000 l    df *ABS*	00000000 fwalk.c
00000000 l    df *ABS*	00000000 impure.c
0001b3f0 l     O .rwdata	00000424 impure_data
00000000 l    df *ABS*	00000000 locale.c
0001b834 l     O .rwdata	00000020 lc_ctype_charset
0001b814 l     O .rwdata	00000020 lc_message_charset
0001b854 l     O .rwdata	00000038 lconv
00000000 l    df *ABS*	00000000 makebuf.c
00000000 l    df *ABS*	00000000 mallocr.c
00000000 l    df *ABS*	00000000 memchr.c
00000000 l    df *ABS*	00000000 memcpy.c
00000000 l    df *ABS*	00000000 memmove.c
00000000 l    df *ABS*	00000000 memset.c
00000000 l    df *ABS*	00000000 mprec.c
00016480 l     O .rodata	0000000c p05.2768
00000000 l    df *ABS*	00000000 mallocr.c
00000000 l    df *ABS*	00000000 s_fpclassify.c
00000000 l    df *ABS*	00000000 sbrkr.c
00000000 l    df *ABS*	00000000 stdio.c
00000000 l    df *ABS*	00000000 strcmp.c
00000000 l    df *ABS*	00000000 vfprintf.c
0000a67c l     F .text	000000fc __sprint_r.part.0
000165b4 l     O .rodata	00000010 blanks.4348
000165a4 l     O .rodata	00000010 zeroes.4349
0000bc08 l     F .text	000000bc __sbprintf
00000000 l    df *ABS*	00000000 writer.c
00000000 l    df *ABS*	00000000 closer.c
00000000 l    df *ABS*	00000000 mallocr.c
00000000 l    df *ABS*	00000000 fclose.c
00000000 l    df *ABS*	00000000 fputwc.c
00000000 l    df *ABS*	00000000 fstatr.c
00000000 l    df *ABS*	00000000 int_errno.c
00000000 l    df *ABS*	00000000 isattyr.c
00000000 l    df *ABS*	00000000 lseekr.c
00000000 l    df *ABS*	00000000 readr.c
00000000 l    df *ABS*	00000000 wbuf.c
00000000 l    df *ABS*	00000000 wcrtomb.c
00000000 l    df *ABS*	00000000 wctomb_r.c
00000000 l    df *ABS*	00000000 libgcc2.c
00000000 l    df *ABS*	00000000 libgcc2.c
00000000 l    df *ABS*	00000000 lib2-divmod.c
00000000 l    df *ABS*	00000000 adddf3.c
00000000 l    df *ABS*	00000000 divdf3.c
00000000 l    df *ABS*	00000000 eqdf2.c
00000000 l    df *ABS*	00000000 gedf2.c
00000000 l    df *ABS*	00000000 ledf2.c
00000000 l    df *ABS*	00000000 muldf3.c
00000000 l    df *ABS*	00000000 subdf3.c
00000000 l    df *ABS*	00000000 fixdfsi.c
00000000 l    df *ABS*	00000000 floatsidf.c
00000000 l    df *ABS*	00000000 floatunsidf.c
00000000 l    df *ABS*	00000000 libgcc2.c
00000000 l    df *ABS*	00000000 libgcc2.c
00000000 l    df *ABS*	00000000 alt_close.c
0000f8c4 l     F .text	0000003c alt_get_errno
00000000 l    df *ABS*	00000000 alt_dev.c
0000f9d0 l     F .text	0000002c alt_dev_null_write
00000000 l    df *ABS*	00000000 alt_errno.c
00000000 l    df *ABS*	00000000 alt_fstat.c
0000f9fc l     F .text	0000003c alt_get_errno
00000000 l    df *ABS*	00000000 alt_irq_register.c
00000000 l    df *ABS*	00000000 alt_irq_vars.c
00000000 l    df *ABS*	00000000 alt_isatty.c
0000fc68 l     F .text	0000003c alt_get_errno
00000000 l    df *ABS*	00000000 alt_load.c
0000fd48 l     F .text	00000068 alt_load_section
00000000 l    df *ABS*	00000000 alt_lseek.c
0000fe34 l     F .text	0000003c alt_get_errno
00000000 l    df *ABS*	00000000 alt_main.c
00000000 l    df *ABS*	00000000 alt_malloc_lock.c
00000000 l    df *ABS*	00000000 alt_read.c
00010008 l     F .text	0000003c alt_get_errno
00000000 l    df *ABS*	00000000 alt_release_fd.c
00000000 l    df *ABS*	00000000 alt_sbrk.c
0001d130 l     O .rwdata	00000004 heap_end
00000000 l    df *ABS*	00000000 alt_write.c
00010254 l     F .text	0000003c alt_get_errno
00000000 l    df *ABS*	00000000 alt_sys_init.c
00010388 l     F .text	00000034 alt_dev_reg
0001be3c l     O .rwdata	00001060 JTAG_UART
0001ce9c l     O .rwdata	0000002c ADC
0001cec8 l     O .rwdata	00000030 AV_Config
0001cef8 l     O .rwdata	00000030 Audio_Subsystem_Audio
0001cf28 l     O .rwdata	0000002c IrDA
0001cf54 l     O .rwdata	00000038 PS2_Port
0001cf8c l     O .rwdata	00000038 PS2_Port_Dual
0001cfc4 l     O .rwdata	0000005c VGA_Subsystem_Char_Buf_Subsystem_Char_Buf_DMA
0001d020 l     O .rwdata	0000005c Video_In_Subsystem_Video_In_DMA
0001d07c l     O .rwdata	00000054 VGA_Subsystem_VGA_Pixel_DMA
00000000 l    df *ABS*	00000000 altera_avalon_jtag_uart_fd.c
00000000 l    df *ABS*	00000000 altera_avalon_jtag_uart_init.c
00010d9c l     F .text	00000210 altera_avalon_jtag_uart_irq
00010fac l     F .text	000000a0 altera_avalon_jtag_uart_timeout
00000000 l    df *ABS*	00000000 altera_avalon_jtag_uart_ioctl.c
00000000 l    df *ABS*	00000000 altera_avalon_jtag_uart_read.c
00000000 l    df *ABS*	00000000 altera_avalon_jtag_uart_write.c
00000000 l    df *ABS*	00000000 altera_avalon_timer_sc.c
000115e4 l     F .text	0000007c alt_avalon_timer_sc_irq
00000000 l    df *ABS*	00000000 altera_up_avalon_irda.c
00000000 l    df *ABS*	00000000 altera_up_avalon_ps2.c
00000000 l    df *ABS*	00000000 alt_alarm_start.c
00000000 l    df *ABS*	00000000 alt_dcache_flush_all.c
00000000 l    df *ABS*	00000000 alt_dev_llist_insert.c
0001225c l     F .text	0000003c alt_get_errno
00000000 l    df *ABS*	00000000 alt_do_ctors.c
00000000 l    df *ABS*	00000000 alt_do_dtors.c
00000000 l    df *ABS*	00000000 alt_find_dev.c
00000000 l    df *ABS*	00000000 alt_icache_flush_all.c
00000000 l    df *ABS*	00000000 alt_io_redirect.c
000124c0 l     F .text	000000c4 alt_open_fd
00000000 l    df *ABS*	00000000 alt_open.c
00012600 l     F .text	0000003c alt_get_errno
0001263c l     F .text	000000c4 alt_file_locked
00000000 l    df *ABS*	00000000 alt_tick.c
00000000 l    df *ABS*	00000000 altera_nios2_gen2_irq.c
00000000 l    df *ABS*	00000000 alt_find_file.c
00000000 l    df *ABS*	00000000 alt_get_fd.c
00000000 l    df *ABS*	00000000 alt_icache_flush.c
00000000 l    df *ABS*	00000000 atexit.c
00000000 l    df *ABS*	00000000 exit.c
00000000 l    df *ABS*	00000000 memcmp.c
00000000 l    df *ABS*	00000000 __atexit.c
00000000 l    df *ABS*	00000000 __call_atexit.c
00000000 l    df *ABS*	00000000 alt_exit.c
00023b0c g     O .bss	00000004 alt_instruction_exception_handler
00009cc0 g     F .text	00000074 _mprec_log10
00014e4e g     O .rodata	00000288 IMG_Num2_S
00009dac g     F .text	0000008c __any_on
0000c1a4 g     F .text	00000054 _isatty_r
0001648c g     O .rodata	00000028 __mprec_tinytens
0000ff44 g     F .text	0000007c alt_main
00003010 g     F .text	000000c0 _puts_r
00011cac g     F .text	00000060 alt_up_ps2_disable_read_interrupt
00844d80 g     O .bss	00000100 alt_irq
0000c1f8 g     F .text	00000060 _lseek_r
0001d13c g       *ABS*	00000000 __flash_rwdata_start
0000e3f0 g     F .text	00000088 .hidden __eqdf2
00023aa8 g     O .bss	00000004 small_sec
00844e80 g       *ABS*	00000000 __alt_heap_start
00002fd4 g     F .text	0000003c printf
0000c410 g     F .text	0000009c _wcrtomb_r
0000a53c g     F .text	0000005c __sseek
00007420 g     F .text	00000010 __sinit
0000c2b8 g     F .text	00000140 __swbuf_r
00011ac4 g     F .text	00000034 read_CE_bit
00014bc6 g     O .rodata	00000288 IMG_Num1_S
00007ee8 g     F .text	0000007c _setlocale_r
00007288 g     F .text	00000068 __sfmoreglue
0000ffe4 g     F .text	00000024 __malloc_unlock
00011e4c g     F .text	0000009c alt_up_ps2_read_data_byte_timeout
00018a90 g     O .rwdata	00000584 IMG_Num3_L
00016006 g     O .rodata	00000288 IMG_Num9_S
0001d0d0 g     O .rwdata	00000004 pTimer
00008bb8 g     F .text	0000015c memmove
00023b68 g     O .bss	0000000c alarmTime
00007408 g     F .text	00000018 _cleanup
00008e3c g     F .text	000000a8 _Balloc
00023ad4 g     O .bss	00000004 pixel_buffer_start
0000e478 g     F .text	000000dc .hidden __gtdf2
000129f8 g     F .text	00000024 altera_nios2_gen2_irq_init
00000000 g     F .entry	0000001c __reset
00023ab0 g     O .bss	00000004 VGA_IsAlarmSettingMode
00000020 g       *ABS*	00000000 __flash_exceptions_start
0000c148 g     F .text	0000005c _fstat_r
00017a04 g     O .rwdata	00000584 IMG_Num0_L
00023af0 g     O .bss	00000004 errno
0000a4b8 g     F .text	00000008 __seofread
0001a624 g     O .rwdata	00000584 IMG_Num8_L
00023afc g     O .bss	00000004 alt_argv
000250d0 g       *ABS*	00000000 _gp
0001bcbc g     O .rwdata	00000180 alt_fd_list
000018c8 g     F .text	000003dc VGA_ClockDraw_L
000123fc g     F .text	00000090 alt_find_dev
00023aac g     O .bss	00000004 LargeNumber
00008a70 g     F .text	00000148 memcpy
000070d8 g     F .text	0000000c _cleanup_r
0000f6dc g     F .text	000000dc .hidden __floatsidf
00012584 g     F .text	0000007c alt_io_redirect
0000e554 g     F .text	000000f4 .hidden __ltdf2
00013088 g       *ABS*	00000000 __DTOR_END__
00023b74 g     O .bss	00040000 front_buffer
00011994 g     F .text	00000090 alt_up_irda_write_fd
000030d0 g     F .text	00000014 puts
00012c58 g     F .text	0000009c alt_exception_cause_generated_bad_addr
0001586e g     O .rodata	00000288 IMG_Num6_S
00023b28 g     O .bss	00000018 alarm_time
0000a39c g     F .text	00000074 __fpclassifyd
000021ec g     F .text	00000058 plot_pixel
00009c1c g     F .text	000000a4 __ratio
0000bbec g     F .text	0000001c __vfiprintf_internal
00011790 g     F .text	00000040 alt_up_irda_get_used_space_in_read_FIFO
000111a4 g     F .text	0000021c altera_avalon_jtag_uart_read
00002fa4 g     F .text	00000030 _printf_r
0000d1a0 g     F .text	00000064 .hidden __udivsi3
00019014 g     O .rwdata	00000584 IMG_Num4_L
0000fca4 g     F .text	000000a4 isatty
000164dc g     O .rodata	000000c8 __mprec_tens
0001850c g     O .rwdata	00000584 IMG_Num2_L
00007f64 g     F .text	0000000c __locale_charset
00011730 g     F .text	00000060 alt_up_irda_disable_read_interrupt
00012bc8 g     F .text	00000090 alt_icache_flush
0001d0d8 g     O .rwdata	00000004 pTime_high
000007c8 g     F .text	000001e4 ALARM_SettingDown
00023aec g     O .bss	00000004 __malloc_top_pad
0001d104 g     O .rwdata	00000004 __mb_cur_max
00023aa4 g     O .bss	00000004 set_cur
00007f94 g     F .text	0000000c _localeconv_r
00009248 g     F .text	0000003c __i2b
000078a4 g     F .text	000004bc __sfvwrite_r
00000e40 g     F .text	0000003c Alarm_Checking
0000a410 g     F .text	00000054 _sbrk_r
00013088 g     O .rodata	00001300 IMG_SetAlarm
0000c258 g     F .text	00000060 _read_r
0001d124 g     O .rwdata	00000004 alt_max_fd
0001aba8 g     O .rwdata	00000584 IMG_Num9_L
0000be3c g     F .text	000000f0 _fclose_r
00011af8 g     F .text	00000030 read_num_bytes_available
00014388 g     O .rodata	000005b6 IMG_Alarm
000070a0 g     F .text	00000030 fflush
00023ae8 g     O .bss	00000004 __malloc_max_sbrked_mem
0000fae8 g     F .text	00000180 alt_irq_register
00011a60 g     F .text	00000034 read_RI_bit
000004b8 g     F .text	00000068 add_sec
0000d25c g     F .text	000008ac .hidden __adddf3
000009ac g     F .text	0000003c ALARM_SettingMove
000099c4 g     F .text	0000010c __b2d
0001d0dc g     O .rwdata	00000004 pixel_ctrl_ptr
0000cb70 g     F .text	00000538 .hidden __umoddi3
0000fe70 g     F .text	000000d4 lseek
00015af6 g     O .rodata	00000288 IMG_Num7_S
0001d0fc g     O .rwdata	00000004 _global_impure_ptr
00009e38 g     F .text	00000564 _realloc_r
00844e80 g       *ABS*	00000000 __bss_end
0001628e g     O .rodata	00000118 IMG_Clone_S
000128f0 g     F .text	00000108 alt_tick
00015d7e g     O .rodata	00000288 IMG_Num8_S
0000c5f8 g     F .text	00000578 .hidden __udivdi3
0000c0a4 g     F .text	00000024 _fputwc_r
000164b4 g     O .rodata	00000028 __mprec_bigtens
0000902c g     F .text	00000104 __s2b
0000f7b8 g     F .text	000000a8 .hidden __floatunsidf
00009704 g     F .text	00000060 __mcmp
00011b5c g     F .text	0000002c read_data_byte
00023acc g     O .bss	00000004 echo
00007440 g     F .text	00000018 __fp_lock_all
00000bfc g     F .text	000001e4 CLOCK_SettingDown
00012854 g     F .text	0000009c alt_alarm_stop
00011a94 g     F .text	00000030 read_RE_bit
00023af4 g     O .bss	00000004 alt_irq_active
000117d0 g     F .text	0000003c alt_up_irda_get_available_space_in_write_FIFO
000000fc g     F .exceptions	000000d8 alt_irq_handler
0001bc94 g     O .rwdata	00000028 alt_dev_null
00011d0c g     F .text	00000074 alt_up_ps2_write_data_byte
0001223c g     F .text	00000020 alt_dcache_flush_all
00000a18 g     F .text	000001e4 CLOCK_SettingUp
00009130 g     F .text	00000068 __hi0bits
0000f65c g     F .text	00000080 .hidden __fixdfsi
0001535e g     O .rodata	00000288 IMG_Num4_S
0001d13c g       *ABS*	00000000 __ram_rwdata_end
0001d11c g     O .rwdata	00000008 alt_dev_list
00002c34 g     F .text	00000038 Audio_Play
00010290 g     F .text	000000f8 write
00002af0 g     F .text	0000005c Audio_Record
000167d8 g       *ABS*	00000000 __ram_rodata_end
0000fa38 g     F .text	000000b0 fstat
0001d0e4 g     O .rwdata	00000004 pAudio
00000000 g       *ABS*	00000000 __alt_mem_SDRAM
0000e554 g     F .text	000000f4 .hidden __ledf2
0000039c g     F .text	00000090 Init_timer
0001d0d4 g     O .rwdata	00000004 pTime_low
0000947c g     F .text	00000140 __pow5mult
0000a790 g     F .text	0000145c ___vfiprintf_internal_r
00023ae0 g     O .bss	00000004 __nlocale_changed
40000000 g       *ABS*	00000000 __alt_mem_ARM_A9_HPS_axi_sdram
0000d204 g     F .text	00000058 .hidden __umodsi3
000150d6 g     O .rodata	00000288 IMG_Num3_S
00002450 g     F .text	000000ec printHEX
00844e80 g       *ABS*	00000000 end
0001203c g     F .text	00000098 alt_up_ps2_write_fd
0001180c g     F .text	00000044 alt_up_irda_check_parity
00023ad0 g     O .bss	00000004 mode
00063b74 g     O .bss	003d0900 r_buf
00010ce8 g     F .text	000000b4 altera_avalon_jtag_uart_init
000001d4 g     F .exceptions	00000074 alt_instruction_exception_entry
00013088 g       *ABS*	00000000 __CTOR_LIST__
02000000 g       *ABS*	00000000 __alt_stack_pointer
00011660 g     F .text	00000074 alt_avalon_timer_sc_init
0000f860 g     F .text	00000064 .hidden __clzsi2
000113c0 g     F .text	00000224 altera_avalon_jtag_uart_write
00007430 g     F .text	00000004 __sfp_lock_acquire
0000898c g     F .text	000000e4 memchr
0000317c g     F .text	000021f8 ___vfprintf_internal_r
00007594 g     F .text	00000310 _free_r
00000588 g     F .text	0000005c add_hour
00007f70 g     F .text	00000010 __locale_mb_cur_max
00012ed4 g     F .text	00000180 __call_exitprocs
00023adc g     O .bss	00000004 __mlocale_changed
0001d108 g     O .rwdata	00000004 __malloc_sbrk_base
00000248 g     F .text	0000003c _start
00023b04 g     O .bss	00000004 _alt_tick_rate
000014b8 g     F .text	00000410 VGA_AlarmDraw_L
000095bc g     F .text	00000148 __lshift
00023b08 g     O .bss	00000004 _alt_nticks
00023ac0 g     O .bss	00000004 play
00010044 g     F .text	000000fc read
000103f4 g     F .text	00000790 alt_sys_init
00012dbc g     F .text	00000118 __register_exitproc
00011f58 g     F .text	00000058 alt_up_ps2_clear_fifo
00009284 g     F .text	000001f8 __multiply
0001104c g     F .text	00000068 altera_avalon_jtag_uart_close
000167d8 g       *ABS*	00000000 __ram_rwdata_start
00013088 g       *ABS*	00000000 __ram_rodata_start
00023b40 g     O .bss	00000028 __malloc_current_mallinfo
00009ad0 g     F .text	0000014c __d2b
0001b12c g     O .rwdata	000002c4 IMG_Clone_L
00023b10 g     O .bss	00000018 set_time
00010b84 g     F .text	00000060 altera_avalon_jtag_uart_read_fd
00012b24 g     F .text	000000a4 alt_get_fd
00002c6c g     F .text	00000050 Init_KEY_SW
0000bd24 g     F .text	00000054 _close_r
00012d40 g     F .text	0000007c memcmp
00010c44 g     F .text	00000050 altera_avalon_jtag_uart_close_fd
00844e80 g       *ABS*	00000000 __alt_stack_base
00010c94 g     F .text	00000054 altera_avalon_jtag_uart_ioctl_fd
00023aa0 g     O .bss	00000004 alarm_cur
000116d4 g     F .text	0000005c alt_up_irda_enable_read_interrupt
0000544c g     F .text	00000154 __swsetup_r
00001ca4 g     F .text	000003cc VGA_ClockDraw_S
0000db08 g     F .text	000008e8 .hidden __divdf3
000072f0 g     F .text	00000118 __sfp
00009d34 g     F .text	00000078 __copybits
0001b88c g     O .rwdata	00000408 __malloc_av_
0000743c g     F .text	00000004 __sinit_lock_release
0000e648 g     F .text	00000718 .hidden __muldf3
0000a464 g     F .text	00000054 __sread
0001d0e0 g     O .rwdata	00000004 VGA_MonitorPower
00002070 g     F .text	0000012c imageDraw
00012a1c g     F .text	00000108 alt_find_file
00012298 g     F .text	000000a4 alt_dev_llist_insert
0000ffc0 g     F .text	00000024 __malloc_lock
000101a4 g     F .text	000000b0 sbrk
00017f88 g     O .rwdata	00000584 IMG_Num1_L
00007044 g     F .text	0000005c _fflush_r
0000bd78 g     F .text	000000c4 _calloc_r
00023aa0 g       *ABS*	00000000 __bss_start
00008d14 g     F .text	00000128 memset
00001054 g     F .text	00000064 Init_VGA
00002f88 g     F .text	0000001c main
00023b00 g     O .bss	00000004 alt_envp
0000253c g     F .text	000005b4 Audio_ISR
00023ae4 g     O .bss	00000004 __malloc_max_total_mem
00010be4 g     F .text	00000060 altera_avalon_jtag_uart_write_fd
0000c3f8 g     F .text	00000018 __swbuf
0000a598 g     F .text	00000008 __sclose
00023ab8 g     O .bss	00000004 VGA_DrawMode
02000000 g       *ABS*	00000000 __alt_heap_limit
0000bf2c g     F .text	00000014 fclose
00011ee8 g     F .text	00000070 alt_up_ps2_read_data_byte
000057a0 g     F .text	00001688 _dtoa_r
00008180 g     F .text	0000080c _malloc_r
0000c56c g     F .text	00000030 __ascii_wctomb
0001d128 g     O .rwdata	00000004 alt_errno
00000520 g     F .text	00000068 add_min
00007d60 g     F .text	000000c4 _fwalk
00011850 g     F .text	00000040 alt_up_irda_write_data
000120d4 g     F .text	0000003c alt_up_ps2_open_dev
0000d0a8 g     F .text	00000084 .hidden __divsi3
00007470 g     F .text	00000124 _malloc_trim_r
00011c50 g     F .text	0000005c alt_up_ps2_enable_read_interrupt
00013088 g       *ABS*	00000000 __CTOR_END__
0000a5a0 g     F .text	000000dc strcmp
00013088 g       *ABS*	00000000 __flash_rodata_start
000022bc g     F .text	00000194 HEX_PrintHEX
00013088 g       *ABS*	00000000 __DTOR_LIST__
0000e3f0 g     F .text	00000088 .hidden __nedf2
000103bc g     F .text	00000038 alt_irq_init
00010140 g     F .text	00000064 alt_release_fd
00011b28 g     F .text	00000034 read_data_valid
000165c4 g     O .rodata	00000100 .hidden __clz_tab
00023ad8 g     O .bss	00000004 _PathLocale
0001d0f0 g     O .rwdata	00000004 pSwitch
00011de8 g     F .text	00000064 alt_up_ps2_write_data_byte_with_ack
00012cf4 g     F .text	00000014 atexit
0000bcc4 g     F .text	00000060 _write_r
00000de0 g     F .text	0000003c CLOCK_SettingMove
00007fa0 g     F .text	00000018 setlocale
000170ee g     O .rwdata	00000916 IMG_afternoon_L
0001d100 g     O .rwdata	00000004 _impure_ptr
00023af8 g     O .bss	00000004 alt_argc
00006e28 g     F .text	0000021c __sflush_r
0001239c g     F .text	00000060 _do_dtors
00007f8c g     F .text	00000008 __locale_cjk_lang
09000000 g       *ABS*	00000000 __alt_mem_VGA_Subsystem_Char_Buf_Subsystem_Onchip_SRAM
0001a0a0 g     O .rwdata	00000584 IMG_Num7_L
00000020 g       .exceptions	00000000 alt_irq_entry
00009960 g     F .text	00000064 __ulp
00007458 g     F .text	00000018 __fp_unlock_all
00019b1c g     O .rwdata	00000584 IMG_Num6_L
0001d114 g     O .rwdata	00000008 alt_fs_list
00000020 g       *ABS*	00000000 __ram_exceptions_start
00007fb8 g     F .text	0000000c localeconv
00434474 g     O .bss	00040000 back_buffer
0001d0f8 g     O .rwdata	00000004 pHEX4_5
00002c00 g     F .text	00000034 Audio_Mute
0001d13c g       *ABS*	00000000 _edata
00844e80 g       *ABS*	00000000 _end
0000bf40 g     F .text	00000164 __fputwc
00000248 g       *ABS*	00000000 __ram_exceptions_end
00000f6c g     F .text	000000e8 IMG_Number_S
000167d8 g     O .rwdata	00000916 IMG_morning_L
000110b4 g     F .text	000000f0 altera_avalon_jtag_uart_ioctl
00474474 g     O .bss	003d0900 l_buf
08000000 g       *ABS*	00000000 __alt_mem_Onchip_SRAM
0000219c g     F .text	00000050 wait_for_vsync
0000a4c0 g     F .text	0000007c __swrite
0001d10c g     O .rwdata	00000004 __malloc_trim_threshold
00007f80 g     F .text	0000000c __locale_msgcharset
00012d08 g     F .text	00000038 exit
0001d0f4 g     O .rwdata	00000004 pHEX0_3
00011890 g     F .text	00000074 alt_up_irda_read_data
00007e24 g     F .text	000000c4 _fwalk_reent
00011b88 g     F .text	000000c8 alt_up_ps2_init
00009764 g     F .text	000001fc __mdiff
0000d12c g     F .text	00000074 .hidden __modsi3
000155e6 g     O .rodata	00000288 IMG_Num5_S
02000000 g       *ABS*	00000000 __alt_data_end
00000020 g     F .exceptions	00000000 alt_exception
00007434 g     F .text	00000004 __sfp_lock_release
0001493e g     O .rodata	00000288 IMG_Num0_S
00011a24 g     F .text	0000003c alt_up_irda_open_dev
00023ab4 g     O .bss	00000004 VGA_IsAlarmMode
00019598 g     O .rwdata	00000584 IMG_Num5_L
00013054 g     F .text	00000034 _exit
00012110 g     F .text	0000012c alt_alarm_start
0001d0e8 g     O .rwdata	00000004 pLED
00000284 g     F .text	00000118 Timer_ISR
00007fc4 g     F .text	000001bc __smakebuf_r
00011d80 g     F .text	00000068 alt_up_ps2_wait_for_ack
000030e4 g     F .text	00000098 strlen
00012700 g     F .text	00000154 open
0000e478 g     F .text	000000dc .hidden __gedf2
0000042c g     F .text	0000008c change_num
00002cbc g     F .text	000002cc Pushbutton_ISR
0001d110 g     O .rwdata	00000004 __wctomb
00023abc g     O .bss	00000004 record
0000a778 g     F .text	00000018 __sprint_r
0001248c g     F .text	00000034 alt_icache_flush_all
00023ac8 g     O .bss	00000004 sr
000010b8 g     F .text	00000400 VGA_AlarmDraw_S
0001d12c g     O .rwdata	00000004 alt_priority_mask
00000e7c g     F .text	000000f0 IMG_Number_L
0001d0ec g     O .rwdata	00000004 pKEY
00844d74 g     O .bss	0000000c currentTime
00005374 g     F .text	0000001c __vfprintf_internal
0000c59c g     F .text	0000005c _wctomb_r
00011fb0 g     F .text	0000008c alt_up_ps2_read_fd
00002ba4 g     F .text	0000005c Audio_Change
00002244 g     F .text	00000078 clear_screen
0000ed60 g     F .text	000008fc .hidden __subdf3
00011904 g     F .text	00000090 alt_up_irda_read_fd
000005e4 g     F .text	000001e4 ALARM_SettingUp
00009198 g     F .text	000000b0 __lo0bits
0001d134 g     O .rwdata	00000008 alt_alarm_list
0001233c g     F .text	00000060 _do_ctors
0000c4ac g     F .text	000000c0 wcrtomb
0000f900 g     F .text	000000d0 close
0000fdb0 g     F .text	00000084 alt_load
00023ac4 g     O .bss	00000004 buffer_index
00002b4c g     F .text	00000058 Audio_Echo
000009e8 g     F .text	00000030 ALARM_SettingSave
0000c0c8 g     F .text	00000080 fputwc
00007438 g     F .text	00000004 __sinit_lock_acquire
00008f0c g     F .text	00000120 __multadd
00008ee4 g     F .text	00000028 _Bfree
00000e1c g     F .text	00000024 CLOCK_SettingSave



Disassembly of section .entry:

00000000 <__reset>:
#if NIOS2_ICACHE_SIZE > 0 && defined(ALT_ALLOW_CODE_AT_RESET) && (!defined(ALT_SIM_OPTIMIZE) || defined(NIOS2_ECC_PRESENT))
    /* Assume the instruction cache size is always a power of two. */
#if NIOS2_ICACHE_SIZE > 0x8000
    movhi r2, %hi(NIOS2_ICACHE_SIZE)
#else
    movui r2, NIOS2_ICACHE_SIZE
   0:	00840014 	movui	r2,4096
#endif

0:
    initi r2
   4:	1001483a 	initi	r2
    addi r2, r2, -NIOS2_ICACHE_LINE_SIZE
   8:	10bff804 	addi	r2,r2,-32
    bgt r2, zero, 0b
   c:	00bffd16 	blt	zero,r2,4 <__alt_mem_ARM_A9_HPS_axi_sdram+0xc0000004>
 * Jump to the _start entry point in the .text section if reset code
 * is allowed or if optimizing for RTL simulation.
 */
#if defined(ALT_ALLOW_CODE_AT_RESET) || defined(ALT_SIM_OPTIMIZE)
    /* Jump to the _start entry point in the .text section. */
    movhi r1, %hi(_start)
  10:	00400034 	movhi	at,0
    ori r1, r1, %lo(_start)
  14:	08409214 	ori	at,at,584
    jmp r1
  18:	0800683a 	jmp	at
  1c:	00000000 	call	0 <__reset>

Disassembly of section .exceptions:

00000020 <alt_exception>:

#else /* ALT_EXCEPTION_STACK disabled */
        /* 
         * Reserve space on normal stack for registers about to be pushed.
         */
        addi  sp, sp, -76
  20:	deffed04 	addi	sp,sp,-76
         * documentation for details).
         *
         * Leave a gap in the stack frame at 4(sp) for the muldiv handler to
         * store zero into.
         */
        stw   ra,  0(sp)
  24:	dfc00015 	stw	ra,0(sp)
        stw   r1,   8(sp)
  28:	d8400215 	stw	at,8(sp)
        stw   r2,  12(sp)
  2c:	d8800315 	stw	r2,12(sp)
        stw   r3,  16(sp)
  30:	d8c00415 	stw	r3,16(sp)
        stw   r4,  20(sp)
  34:	d9000515 	stw	r4,20(sp)
        stw   r5,  24(sp)
  38:	d9400615 	stw	r5,24(sp)
        stw   r6,  28(sp)
  3c:	d9800715 	stw	r6,28(sp)
        stw   r7,  32(sp)
  40:	d9c00815 	stw	r7,32(sp)
        rdctl r5, estatus   /* Read early to avoid usage stall */
  44:	000b307a 	rdctl	r5,estatus
        stw   r8,  36(sp)
  48:	da000915 	stw	r8,36(sp)
        stw   r9,  40(sp)
  4c:	da400a15 	stw	r9,40(sp)
        stw   r10, 44(sp)
  50:	da800b15 	stw	r10,44(sp)
        stw   r11, 48(sp)
  54:	dac00c15 	stw	r11,48(sp)
        stw   r12, 52(sp)
  58:	db000d15 	stw	r12,52(sp)
        stw   r13, 56(sp)
  5c:	db400e15 	stw	r13,56(sp)
        stw   r14, 60(sp)
  60:	db800f15 	stw	r14,60(sp)
        stw   r15, 64(sp)
  64:	dbc01015 	stw	r15,64(sp)
        /*
         * ea-4 contains the address of the instruction being executed
         * when the exception occured. For interrupt exceptions, we will
         * will be re-issue the isntruction. Store it in 72(sp)
         */
        stw   r5,  68(sp)  /* estatus */
  68:	d9401115 	stw	r5,68(sp)
        addi  r15, ea, -4  /* instruction that caused exception */
  6c:	ebffff04 	addi	r15,ea,-4
        stw   r15,  72(sp)
  70:	dbc01215 	stw	r15,72(sp)
#else
        /*
         * Test to see if the exception was a software exception or caused 
         * by an external interrupt, and vector accordingly.
         */
        rdctl r4, ipending
  74:	0009313a 	rdctl	r4,ipending
        andi  r2, r5, 1
  78:	2880004c 	andi	r2,r5,1
        beq   r2, zero, .Lnot_irq
  7c:	10000326 	beq	r2,zero,8c <alt_exception+0x6c>
        beq   r4, zero, .Lnot_irq
  80:	20000226 	beq	r4,zero,8c <alt_exception+0x6c>
        /*
         * Now that all necessary registers have been preserved, call 
         * alt_irq_handler() to process the interrupts.
         */

        call alt_irq_handler
  84:	00000fc0 	call	fc <alt_irq_handler>

        .section .exceptions.irqreturn, "xa"

        br    .Lexception_exit
  88:	00000706 	br	a8 <alt_exception+0x88>
         * upon completion, so we write ea (address of instruction *after*
         * the one where the exception occured) into 72(sp). The actual
         * instruction that caused the exception is written in r2, which these
         * handlers will utilize.
         */
        stw ea, 72(sp) /* EA is PC+4 so will skip over instruction causing exception */
  8c:	df401215 	stw	ea,72(sp)
.Lunknown_16bit:
        addi.n r4, r4, 2 /* Need PC+2 to skip over instruction causing exception */
        stw r4, 72(sp)

#else /* CDX is not Enabled and all instructions are 32bits */
        ldw r2, -4(ea) /* Instruction value that caused exception */
  90:	e8bfff17 	ldw	r2,-4(ea)
         * debugger is present) or go into an infinite loop since the
         * handling behavior is undefined; in that case we will not return here.
         */

        /* Load exception-causing address as first argument (r4) */
        addi   r4, ea, -4
  94:	e93fff04 	addi	r4,ea,-4

        /* Call the instruction-exception entry */
        call   alt_instruction_exception_entry
  98:	00001d40 	call	1d4 <alt_instruction_exception_entry>
         * instruction
         *
         * Return code was 0: Skip. The instruction after the exception is
         * already stored in 72(sp).
         */
        bne   r2, r0, .Lexception_exit
  9c:	1000021e 	bne	r2,zero,a8 <alt_exception+0x88>

        /*
         * Otherwise, modify 72(sp) to re-issue the instruction that caused the
         * exception.
         */
        addi  r15, ea, -4  /* instruction that caused exception */
  a0:	ebffff04 	addi	r15,ea,-4
        stw   r15,  72(sp)
  a4:	dbc01215 	stw	r15,72(sp)
        /* 
         * Restore the saved registers, so that all general purpose registers 
         * have been restored to their state at the time the interrupt occured.
         */

        ldw   r5,  68(sp)
  a8:	d9401117 	ldw	r5,68(sp)
        ldw   ea,  72(sp)  /* This becomes the PC once eret is executed */
  ac:	df401217 	ldw	ea,72(sp)
        ldw   ra,   0(sp)
  b0:	dfc00017 	ldw	ra,0(sp)

        wrctl estatus, r5
  b4:	2801707a 	wrctl	estatus,r5

        ldw   r1,   8(sp)
  b8:	d8400217 	ldw	at,8(sp)
        ldw   r2,  12(sp)
  bc:	d8800317 	ldw	r2,12(sp)
        ldw   r3,  16(sp)
  c0:	d8c00417 	ldw	r3,16(sp)
        ldw   r4,  20(sp)
  c4:	d9000517 	ldw	r4,20(sp)
        ldw   r5,  24(sp)
  c8:	d9400617 	ldw	r5,24(sp)
        ldw   r6,  28(sp)
  cc:	d9800717 	ldw	r6,28(sp)
        ldw   r7,  32(sp)
  d0:	d9c00817 	ldw	r7,32(sp)

#if defined(ALT_EXCEPTION_STACK) && defined(ALT_STACK_CHECK)
        ldw   et, %gprel(alt_exception_old_stack_limit)(gp)
#endif

        ldw   r8,  36(sp)
  d4:	da000917 	ldw	r8,36(sp)
        ldw   r9,  40(sp)
  d8:	da400a17 	ldw	r9,40(sp)
        ldw   r10, 44(sp)
  dc:	da800b17 	ldw	r10,44(sp)
        ldw   r11, 48(sp)
  e0:	dac00c17 	ldw	r11,48(sp)
        ldw   r12, 52(sp)
  e4:	db000d17 	ldw	r12,52(sp)
        ldw   r13, 56(sp)
  e8:	db400e17 	ldw	r13,56(sp)
        ldw   r14, 60(sp)
  ec:	db800f17 	ldw	r14,60(sp)
        ldw   r15, 64(sp)
  f0:	dbc01017 	ldw	r15,64(sp)
        stw   et, %gprel(alt_stack_limit_value)(gp)
        stw   zero, %gprel(alt_exception_old_stack_limit)(gp)
#endif /* ALT_STACK_CHECK */
        ldw   sp,  76(sp)
#else /* ALT_EXCEPTION_STACK disabled */
        addi  sp, sp, 76
  f4:	dec01304 	addi	sp,sp,76

        /*
         * Return to the interrupted instruction.
         */

        eret
  f8:	ef80083a 	eret

000000fc <alt_irq_handler>:
 * instruction is present if the macro ALT_CI_INTERRUPT_VECTOR defined.
 */

void alt_irq_handler (void) __attribute__ ((section (".exceptions")));
void alt_irq_handler (void)
{
  fc:	defff904 	addi	sp,sp,-28
 100:	dfc00615 	stw	ra,24(sp)
 104:	df000515 	stw	fp,20(sp)
 108:	df000504 	addi	fp,sp,20
  
  /*
   * Notify the operating system that we are at interrupt level.
   */ 
  
  ALT_OS_INT_ENTER();
 10c:	0001883a 	nop
#ifndef NIOS2_EIC_PRESENT
static ALT_INLINE alt_u32 ALT_ALWAYS_INLINE alt_irq_pending (void)
{
  alt_u32 active;

  NIOS2_READ_IPENDING (active);
 110:	0005313a 	rdctl	r2,ipending
 114:	e0bffe15 	stw	r2,-8(fp)

  return active;
 118:	e0bffe17 	ldw	r2,-8(fp)
   * Consider the case where the high priority interupt is asserted during
   * the interrupt entry sequence for a lower priority interrupt to see why
   * this is the case.
   */

  active = alt_irq_pending ();
 11c:	e0bffb15 	stw	r2,-20(fp)

  do
  {
    i = 0;
 120:	e03ffd15 	stw	zero,-12(fp)
    mask = 1;
 124:	00800044 	movi	r2,1
 128:	e0bffc15 	stw	r2,-16(fp)
     * called to clear the interrupt condition.
     */

    do
    {
      if (active & mask)
 12c:	e0fffb17 	ldw	r3,-20(fp)
 130:	e0bffc17 	ldw	r2,-16(fp)
 134:	1884703a 	and	r2,r3,r2
 138:	10001526 	beq	r2,zero,190 <alt_irq_handler+0x94>
      { 
#ifdef ALT_ENHANCED_INTERRUPT_API_PRESENT
        alt_irq[i].handler(alt_irq[i].context); 
#else
        alt_irq[i].handler(alt_irq[i].context, i); 
 13c:	00802134 	movhi	r2,132
 140:	10936004 	addi	r2,r2,19840
 144:	e0fffd17 	ldw	r3,-12(fp)
 148:	180690fa 	slli	r3,r3,3
 14c:	10c5883a 	add	r2,r2,r3
 150:	10c00017 	ldw	r3,0(r2)
 154:	00802134 	movhi	r2,132
 158:	10936004 	addi	r2,r2,19840
 15c:	e13ffd17 	ldw	r4,-12(fp)
 160:	200890fa 	slli	r4,r4,3
 164:	1105883a 	add	r2,r2,r4
 168:	10800104 	addi	r2,r2,4
 16c:	10800017 	ldw	r2,0(r2)
 170:	e17ffd17 	ldw	r5,-12(fp)
 174:	1009883a 	mov	r4,r2
 178:	183ee83a 	callr	r3
#endif
        break;
 17c:	0001883a 	nop
#ifndef NIOS2_EIC_PRESENT
static ALT_INLINE alt_u32 ALT_ALWAYS_INLINE alt_irq_pending (void)
{
  alt_u32 active;

  NIOS2_READ_IPENDING (active);
 180:	0005313a 	rdctl	r2,ipending
 184:	e0bfff15 	stw	r2,-4(fp)

  return active;
 188:	e0bfff17 	ldw	r2,-4(fp)
 18c:	00000706 	br	1ac <alt_irq_handler+0xb0>
      }
      mask <<= 1;
 190:	e0bffc17 	ldw	r2,-16(fp)
 194:	1085883a 	add	r2,r2,r2
 198:	e0bffc15 	stw	r2,-16(fp)
      i++;
 19c:	e0bffd17 	ldw	r2,-12(fp)
 1a0:	10800044 	addi	r2,r2,1
 1a4:	e0bffd15 	stw	r2,-12(fp)

    } while (1);
 1a8:	003fe006 	br	12c <__alt_mem_ARM_A9_HPS_axi_sdram+0xc000012c>

    active = alt_irq_pending ();
 1ac:	e0bffb15 	stw	r2,-20(fp)
    
  } while (active);
 1b0:	e0bffb17 	ldw	r2,-20(fp)
 1b4:	103fda1e 	bne	r2,zero,120 <__alt_mem_ARM_A9_HPS_axi_sdram+0xc0000120>

  /*
   * Notify the operating system that interrupt processing is complete.
   */ 

  ALT_OS_INT_EXIT();
 1b8:	0001883a 	nop
}
 1bc:	0001883a 	nop
 1c0:	e037883a 	mov	sp,fp
 1c4:	dfc00117 	ldw	ra,4(sp)
 1c8:	df000017 	ldw	fp,0(sp)
 1cc:	dec00204 	addi	sp,sp,8
 1d0:	f800283a 	ret

000001d4 <alt_instruction_exception_entry>:
 * that handler if it has been registered. Absent a handler, it will
 * break break or hang as discussed below.
 */
int 
alt_instruction_exception_entry (alt_u32 exception_pc)
{
 1d4:	defffb04 	addi	sp,sp,-20
 1d8:	dfc00415 	stw	ra,16(sp)
 1dc:	df000315 	stw	fp,12(sp)
 1e0:	df000304 	addi	fp,sp,12
 1e4:	e13fff15 	stw	r4,-4(fp)
 * NIOS2_EXCEPTION_CAUSE_NOT_PRESENT. Your handling routine should
 * check the validity of the cause argument before proceeding.
 */
#ifdef NIOS2_HAS_EXTRA_EXCEPTION_INFO
  /* Get exception cause & "badaddr" */
  NIOS2_READ_EXCEPTION(cause);
 1e8:	000531fa 	rdctl	r2,exception
 1ec:	e0bffd15 	stw	r2,-12(fp)
  cause = ( (cause & NIOS2_EXCEPTION_REG_CAUSE_MASK) >>
 1f0:	e0bffd17 	ldw	r2,-12(fp)
 1f4:	10801f0c 	andi	r2,r2,124
 1f8:	1004d0ba 	srli	r2,r2,2
 1fc:	e0bffd15 	stw	r2,-12(fp)
              NIOS2_EXCEPTION_REG_CAUSE_OFST );

  NIOS2_READ_BADADDR(badaddr);
 200:	0005333a 	rdctl	r2,badaddr
 204:	e0bffe15 	stw	r2,-8(fp)
#else
  cause = NIOS2_EXCEPTION_CAUSE_NOT_PRESENT;
  badaddr = 0;
#endif /* NIOS2_HAS_EXTRA_EXCEPTION_INFO */

  if(alt_instruction_exception_handler) {
 208:	d0ba8f17 	ldw	r2,-5572(gp)
 20c:	10000726 	beq	r2,zero,22c <alt_instruction_exception_entry+0x58>
     * Call handler. Its return value indicates whether the exception-causing
     * instruction should be re-issued. The code that called us,
     * alt_eceptions_entry.S, will look at this value and adjust the ea
     * register as necessary
     */
    return alt_instruction_exception_handler(cause, exception_pc, badaddr);
 210:	d0ba8f17 	ldw	r2,-5572(gp)
 214:	e0fffd17 	ldw	r3,-12(fp)
 218:	e1bffe17 	ldw	r6,-8(fp)
 21c:	e17fff17 	ldw	r5,-4(fp)
 220:	1809883a 	mov	r4,r3
 224:	103ee83a 	callr	r2
 228:	00000206 	br	234 <alt_instruction_exception_entry+0x60>
   *    (a peripheral which negates its interrupt output before its
   *    interrupt handler has been executed will cause spurious interrupts)
   */
  else {
#ifdef NIOS2_HAS_DEBUG_STUB
    NIOS2_BREAK();
 22c:	003da03a 	break	0
      ;
#endif /* NIOS2_HAS_DEBUG_STUB */
  }

  /* We should not get here. Remove compiler warning. */
  return NIOS2_EXCEPTION_RETURN_REISSUE_INST;
 230:	0005883a 	mov	r2,zero
}
 234:	e037883a 	mov	sp,fp
 238:	dfc00117 	ldw	ra,4(sp)
 23c:	df000017 	ldw	fp,0(sp)
 240:	dec00204 	addi	sp,sp,8
 244:	f800283a 	ret

Disassembly of section .text:

00000248 <_start>:

    /*
     * Now that the caches are initialized, set up the stack pointer and global pointer.
     * The values provided by the linker are assumed to be correctly aligned.
     */
    movhi sp, %hi(__alt_stack_pointer)
     248:	06c08034 	movhi	sp,512
    ori sp, sp, %lo(__alt_stack_pointer)
     24c:	dec00014 	ori	sp,sp,0
    movhi gp, %hi(_gp)
     250:	068000b4 	movhi	gp,2
    ori gp, gp, %lo(_gp)
     254:	d6943414 	ori	gp,gp,20688
 */
#ifndef ALT_SIM_OPTIMIZE
    /* Log that the BSS is about to be cleared. */
    ALT_LOG_PUTS(alt_log_msg_bss)

    movhi r2, %hi(__bss_start)
     258:	008000b4 	movhi	r2,2
    ori r2, r2, %lo(__bss_start)
     25c:	108ea814 	ori	r2,r2,15008

    movhi r3, %hi(__bss_end)
     260:	00c02134 	movhi	r3,132
    ori r3, r3, %lo(__bss_end)
     264:	18d3a014 	ori	r3,r3,20096

    beq r2, r3, 1f
     268:	10c00326 	beq	r2,r3,278 <_start+0x30>

0:
    stw zero, (r2)
     26c:	10000015 	stw	zero,0(r2)
    addi r2, r2, 4
     270:	10800104 	addi	r2,r2,4
    bltu r2, r3, 0b
     274:	10fffd36 	bltu	r2,r3,26c <__alt_mem_ARM_A9_HPS_axi_sdram+0xc000026c>
     * section aren't defined until alt_load() has been called).
     */
    mov   et, zero
#endif

    call alt_load
     278:	000fdb00 	call	fdb0 <alt_load>

    /* Log that alt_main is about to be called. */
    ALT_LOG_PUTS(alt_log_msg_alt_main)

    /* Call the C entry point. It should never return. */
    call alt_main
     27c:	000ff440 	call	ff44 <alt_main>

00000280 <alt_after_alt_main>:

    /* Wait in infinite loop in case alt_main does return. */
alt_after_alt_main:
    br alt_after_alt_main
     280:	003fff06 	br	280 <__alt_mem_ARM_A9_HPS_axi_sdram+0xc0000280>

00000284 <Timer_ISR>:
int alarm_cur = 0;
int set_cur = 0;
int small_sec = 0;
int LargeNumber = 0;

void Timer_ISR() {
     284:	defffd04 	addi	sp,sp,-12
     288:	dfc00215 	stw	ra,8(sp)
     28c:	df000115 	stw	fp,4(sp)
     290:	df000104 	addi	fp,sp,4
	*pTimer = 0;
     294:	d0a00017 	ldw	r2,-32768(gp)
     298:	10000015 	stw	zero,0(r2)
	pixel_buffer_start = *(pixel_ctrl_ptr + 1);
     29c:	d0a00317 	ldw	r2,-32756(gp)
     2a0:	10800117 	ldw	r2,4(r2)
     2a4:	d0ba8115 	stw	r2,-5628(gp)
	clear_screen();
     2a8:	00022440 	call	2244 <clear_screen>

	small_sec++;
     2ac:	d0ba7617 	ldw	r2,-5672(gp)
     2b0:	10800044 	addi	r2,r2,1
     2b4:	d0ba7615 	stw	r2,-5672(gp)
	if (small_sec == 2) {
     2b8:	d0ba7617 	ldw	r2,-5672(gp)
     2bc:	10800098 	cmpnei	r2,r2,2
     2c0:	1000021e 	bne	r2,zero,2cc <Timer_ISR+0x48>
		add_sec();
     2c4:	00004b80 	call	4b8 <add_sec>
		small_sec = 0;
     2c8:	d03a7615 	stw	zero,-5672(gp)
	}

	if (LargeNumber != 0) {
     2cc:	d0ba7717 	ldw	r2,-5668(gp)
     2d0:	10001626 	beq	r2,zero,32c <Timer_ISR+0xa8>
		if (VGA_IsAlarmSettingMode != 0)
     2d4:	d0ba7817 	ldw	r2,-5664(gp)
     2d8:	10000a26 	beq	r2,zero,304 <Timer_ISR+0x80>
			VGA_AlarmDraw_L(VGA_DrawMode,0,alarmTime);
     2dc:	d13a7a17 	ldw	r4,-5656(gp)
     2e0:	008000b4 	movhi	r2,2
     2e4:	108eda04 	addi	r2,r2,15208
     2e8:	10c00217 	ldw	r3,8(r2)
     2ec:	d8c00015 	stw	r3,0(sp)
     2f0:	11800017 	ldw	r6,0(r2)
     2f4:	11c00117 	ldw	r7,4(r2)
     2f8:	000b883a 	mov	r5,zero
     2fc:	00014b80 	call	14b8 <VGA_AlarmDraw_L>
     300:	00001f06 	br	380 <Timer_ISR+0xfc>
		else VGA_ClockDraw_L(VGA_DrawMode,0,currentTime);
     304:	d13a7a17 	ldw	r4,-5656(gp)
     308:	00802134 	movhi	r2,132
     30c:	10935d04 	addi	r2,r2,19828
     310:	10c00217 	ldw	r3,8(r2)
     314:	d8c00015 	stw	r3,0(sp)
     318:	11800017 	ldw	r6,0(r2)
     31c:	11c00117 	ldw	r7,4(r2)
     320:	000b883a 	mov	r5,zero
     324:	00018c80 	call	18c8 <VGA_ClockDraw_L>
     328:	00001506 	br	380 <Timer_ISR+0xfc>
	} else {
		if (VGA_IsAlarmSettingMode != 0)
     32c:	d0ba7817 	ldw	r2,-5664(gp)
     330:	10000a26 	beq	r2,zero,35c <Timer_ISR+0xd8>
			VGA_AlarmDraw_S(VGA_DrawMode,0,alarmTime);
     334:	d13a7a17 	ldw	r4,-5656(gp)
     338:	008000b4 	movhi	r2,2
     33c:	108eda04 	addi	r2,r2,15208
     340:	10c00217 	ldw	r3,8(r2)
     344:	d8c00015 	stw	r3,0(sp)
     348:	11800017 	ldw	r6,0(r2)
     34c:	11c00117 	ldw	r7,4(r2)
     350:	000b883a 	mov	r5,zero
     354:	00010b80 	call	10b8 <VGA_AlarmDraw_S>
     358:	00000906 	br	380 <Timer_ISR+0xfc>
		else VGA_ClockDraw_S(VGA_DrawMode,0,currentTime);
     35c:	d13a7a17 	ldw	r4,-5656(gp)
     360:	00802134 	movhi	r2,132
     364:	10935d04 	addi	r2,r2,19828
     368:	10c00217 	ldw	r3,8(r2)
     36c:	d8c00015 	stw	r3,0(sp)
     370:	11800017 	ldw	r6,0(r2)
     374:	11c00117 	ldw	r7,4(r2)
     378:	000b883a 	mov	r5,zero
     37c:	0001ca40 	call	1ca4 <VGA_ClockDraw_S>
	}
	wait_for_vsync();
     380:	000219c0 	call	219c <wait_for_vsync>
}
     384:	0001883a 	nop
     388:	e037883a 	mov	sp,fp
     38c:	dfc00117 	ldw	ra,4(sp)
     390:	df000017 	ldw	fp,0(sp)
     394:	dec00204 	addi	sp,sp,8
     398:	f800283a 	ret

0000039c <Init_timer>:

void Init_timer() {
     39c:	defffd04 	addi	sp,sp,-12
     3a0:	dfc00215 	stw	ra,8(sp)
     3a4:	df000115 	stw	fp,4(sp)
     3a8:	df000104 	addi	fp,sp,4
	int pb_ctxt=0;
     3ac:	e03fff15 	stw	zero,-4(fp)
	*(pTime_low)     = 0xF07F;
     3b0:	d0a00117 	ldw	r2,-32764(gp)
     3b4:	00fc1fd4 	movui	r3,61567
     3b8:	10c00015 	stw	r3,0(r2)
	*(pTime_high)    = 0x02FA;
     3bc:	d0a00217 	ldw	r2,-32760(gp)
     3c0:	00c0be84 	movi	r3,762
     3c4:	10c00015 	stw	r3,0(r2)
	*(pTimer+1)      = 0x0007;
     3c8:	d0a00017 	ldw	r2,-32768(gp)
     3cc:	10800104 	addi	r2,r2,4
     3d0:	00c001c4 	movi	r3,7
     3d4:	10c00015 	stw	r3,0(r2)
	alt_irq_register(0, (void *)&pb_ctxt, (void *)Timer_ISR);
     3d8:	01800034 	movhi	r6,0
     3dc:	3180a104 	addi	r6,r6,644
     3e0:	e17fff04 	addi	r5,fp,-4
     3e4:	0009883a 	mov	r4,zero
     3e8:	000fae80 	call	fae8 <alt_irq_register>
	currentTime.hour = 24 ;
     3ec:	00802134 	movhi	r2,132
     3f0:	10935d04 	addi	r2,r2,19828
     3f4:	00c00604 	movi	r3,24
     3f8:	10c00015 	stw	r3,0(r2)
	currentTime.min = 0 ;
     3fc:	00802134 	movhi	r2,132
     400:	10935d04 	addi	r2,r2,19828
     404:	10000115 	stw	zero,4(r2)
	currentTime.sec = 0 ;
     408:	00802134 	movhi	r2,132
     40c:	10935d04 	addi	r2,r2,19828
     410:	10000215 	stw	zero,8(r2)
}
     414:	0001883a 	nop
     418:	e037883a 	mov	sp,fp
     41c:	dfc00117 	ldw	ra,4(sp)
     420:	df000017 	ldw	fp,0(sp)
     424:	dec00204 	addi	sp,sp,8
     428:	f800283a 	ret

0000042c <change_num>:


int change_num(int max, int val, int ud)
{
     42c:	defffb04 	addi	sp,sp,-20
     430:	df000415 	stw	fp,16(sp)
     434:	df000404 	addi	fp,sp,16
     438:	e13ffd15 	stw	r4,-12(fp)
     43c:	e17ffe15 	stw	r5,-8(fp)
     440:	e1bfff15 	stw	r6,-4(fp)
	int temp;
	temp = val;
     444:	e0bffe17 	ldw	r2,-8(fp)
     448:	e0bffc15 	stw	r2,-16(fp)
	if (ud == 1)
     44c:	e0bfff17 	ldw	r2,-4(fp)
     450:	10800058 	cmpnei	r2,r2,1
     454:	1000071e 	bne	r2,zero,474 <change_num+0x48>
	{
		temp++;
     458:	e0bffc17 	ldw	r2,-16(fp)
     45c:	10800044 	addi	r2,r2,1
     460:	e0bffc15 	stw	r2,-16(fp)
		if (temp == max) temp = 0;
     464:	e0fffc17 	ldw	r3,-16(fp)
     468:	e0bffd17 	ldw	r2,-12(fp)
     46c:	1880011e 	bne	r3,r2,474 <change_num+0x48>
     470:	e03ffc15 	stw	zero,-16(fp)
	}
	if (ud == 2)
     474:	e0bfff17 	ldw	r2,-4(fp)
     478:	10800098 	cmpnei	r2,r2,2
     47c:	1000091e 	bne	r2,zero,4a4 <change_num+0x78>
	{
		if (temp == 0) temp = max - 1;
     480:	e0bffc17 	ldw	r2,-16(fp)
     484:	1000041e 	bne	r2,zero,498 <change_num+0x6c>
     488:	e0bffd17 	ldw	r2,-12(fp)
     48c:	10bfffc4 	addi	r2,r2,-1
     490:	e0bffc15 	stw	r2,-16(fp)
     494:	00000306 	br	4a4 <change_num+0x78>
		else temp--;
     498:	e0bffc17 	ldw	r2,-16(fp)
     49c:	10bfffc4 	addi	r2,r2,-1
     4a0:	e0bffc15 	stw	r2,-16(fp)
	}
	return temp;
     4a4:	e0bffc17 	ldw	r2,-16(fp)
}
     4a8:	e037883a 	mov	sp,fp
     4ac:	df000017 	ldw	fp,0(sp)
     4b0:	dec00104 	addi	sp,sp,4
     4b4:	f800283a 	ret

000004b8 <add_sec>:

void add_sec() {
     4b8:	defffe04 	addi	sp,sp,-8
     4bc:	dfc00115 	stw	ra,4(sp)
     4c0:	df000015 	stw	fp,0(sp)
     4c4:	d839883a 	mov	fp,sp
	currentTime.sec++;
     4c8:	00802134 	movhi	r2,132
     4cc:	10935d04 	addi	r2,r2,19828
     4d0:	10800217 	ldw	r2,8(r2)
     4d4:	10c00044 	addi	r3,r2,1
     4d8:	00802134 	movhi	r2,132
     4dc:	10935d04 	addi	r2,r2,19828
     4e0:	10c00215 	stw	r3,8(r2)
	if (currentTime.sec >= 60){
     4e4:	00802134 	movhi	r2,132
     4e8:	10935d04 	addi	r2,r2,19828
     4ec:	10800217 	ldw	r2,8(r2)
     4f0:	10800f10 	cmplti	r2,r2,60
     4f4:	1000041e 	bne	r2,zero,508 <add_sec+0x50>
		currentTime.sec = 0;
     4f8:	00802134 	movhi	r2,132
     4fc:	10935d04 	addi	r2,r2,19828
     500:	10000215 	stw	zero,8(r2)
		add_min();
     504:	00005200 	call	520 <add_min>
	}
}
     508:	0001883a 	nop
     50c:	e037883a 	mov	sp,fp
     510:	dfc00117 	ldw	ra,4(sp)
     514:	df000017 	ldw	fp,0(sp)
     518:	dec00204 	addi	sp,sp,8
     51c:	f800283a 	ret

00000520 <add_min>:

void add_min() {
     520:	defffe04 	addi	sp,sp,-8
     524:	dfc00115 	stw	ra,4(sp)
     528:	df000015 	stw	fp,0(sp)
     52c:	d839883a 	mov	fp,sp
	currentTime.min++;
     530:	00802134 	movhi	r2,132
     534:	10935d04 	addi	r2,r2,19828
     538:	10800117 	ldw	r2,4(r2)
     53c:	10c00044 	addi	r3,r2,1
     540:	00802134 	movhi	r2,132
     544:	10935d04 	addi	r2,r2,19828
     548:	10c00115 	stw	r3,4(r2)
	if (currentTime.min >= 60) {
     54c:	00802134 	movhi	r2,132
     550:	10935d04 	addi	r2,r2,19828
     554:	10800117 	ldw	r2,4(r2)
     558:	10800f10 	cmplti	r2,r2,60
     55c:	1000041e 	bne	r2,zero,570 <add_min+0x50>
		currentTime.min = 0;
     560:	00802134 	movhi	r2,132
     564:	10935d04 	addi	r2,r2,19828
     568:	10000115 	stw	zero,4(r2)
		add_hour();
     56c:	00005880 	call	588 <add_hour>
	}
}
     570:	0001883a 	nop
     574:	e037883a 	mov	sp,fp
     578:	dfc00117 	ldw	ra,4(sp)
     57c:	df000017 	ldw	fp,0(sp)
     580:	dec00204 	addi	sp,sp,8
     584:	f800283a 	ret

00000588 <add_hour>:

void add_hour() {
     588:	deffff04 	addi	sp,sp,-4
     58c:	df000015 	stw	fp,0(sp)
     590:	d839883a 	mov	fp,sp
	currentTime.hour++;
     594:	00802134 	movhi	r2,132
     598:	10935d04 	addi	r2,r2,19828
     59c:	10800017 	ldw	r2,0(r2)
     5a0:	10c00044 	addi	r3,r2,1
     5a4:	00802134 	movhi	r2,132
     5a8:	10935d04 	addi	r2,r2,19828
     5ac:	10c00015 	stw	r3,0(r2)
	if (currentTime.hour >= 24)	{
     5b0:	00802134 	movhi	r2,132
     5b4:	10935d04 	addi	r2,r2,19828
     5b8:	10800017 	ldw	r2,0(r2)
     5bc:	10800610 	cmplti	r2,r2,24
     5c0:	1000031e 	bne	r2,zero,5d0 <add_hour+0x48>
		currentTime.hour = 0;
     5c4:	00802134 	movhi	r2,132
     5c8:	10935d04 	addi	r2,r2,19828
     5cc:	10000015 	stw	zero,0(r2)
	}
}
     5d0:	0001883a 	nop
     5d4:	e037883a 	mov	sp,fp
     5d8:	df000017 	ldw	fp,0(sp)
     5dc:	dec00104 	addi	sp,sp,4
     5e0:	f800283a 	ret

000005e4 <ALARM_SettingUp>:

void ALARM_SettingUp() {
     5e4:	defffc04 	addi	sp,sp,-16
     5e8:	dfc00315 	stw	ra,12(sp)
     5ec:	df000215 	stw	fp,8(sp)
     5f0:	dc000115 	stw	r16,4(sp)
     5f4:	df000204 	addi	fp,sp,8
	int max = 0;
     5f8:	e03ffe15 	stw	zero,-8(fp)
	if (alarm_cur == 0) max = 10;
     5fc:	d0ba7417 	ldw	r2,-5680(gp)
     600:	1000031e 	bne	r2,zero,610 <ALARM_SettingUp+0x2c>
     604:	00800284 	movi	r2,10
     608:	e0bffe15 	stw	r2,-8(fp)
     60c:	00001f06 	br	68c <ALARM_SettingUp+0xa8>
	else if (alarm_cur == 1) max = 6;
     610:	d0ba7417 	ldw	r2,-5680(gp)
     614:	10800058 	cmpnei	r2,r2,1
     618:	1000031e 	bne	r2,zero,628 <ALARM_SettingUp+0x44>
     61c:	00800184 	movi	r2,6
     620:	e0bffe15 	stw	r2,-8(fp)
     624:	00001906 	br	68c <ALARM_SettingUp+0xa8>
	else if (alarm_cur == 2) max = 10;
     628:	d0ba7417 	ldw	r2,-5680(gp)
     62c:	10800098 	cmpnei	r2,r2,2
     630:	1000031e 	bne	r2,zero,640 <ALARM_SettingUp+0x5c>
     634:	00800284 	movi	r2,10
     638:	e0bffe15 	stw	r2,-8(fp)
     63c:	00001306 	br	68c <ALARM_SettingUp+0xa8>
	else if (alarm_cur == 3) max = 6;
     640:	d0ba7417 	ldw	r2,-5680(gp)
     644:	108000d8 	cmpnei	r2,r2,3
     648:	1000031e 	bne	r2,zero,658 <ALARM_SettingUp+0x74>
     64c:	00800184 	movi	r2,6
     650:	e0bffe15 	stw	r2,-8(fp)
     654:	00000d06 	br	68c <ALARM_SettingUp+0xa8>
	else if (alarm_cur == 4)
     658:	d0ba7417 	ldw	r2,-5680(gp)
     65c:	10800118 	cmpnei	r2,r2,4
     660:	10000a1e 	bne	r2,zero,68c <ALARM_SettingUp+0xa8>
	{
		if (alarm_time[5] == 2) max = 4;
     664:	008000b4 	movhi	r2,2
     668:	108eca04 	addi	r2,r2,15144
     66c:	10800517 	ldw	r2,20(r2)
     670:	10800098 	cmpnei	r2,r2,2
     674:	1000031e 	bne	r2,zero,684 <ALARM_SettingUp+0xa0>
     678:	00800104 	movi	r2,4
     67c:	e0bffe15 	stw	r2,-8(fp)
     680:	00000206 	br	68c <ALARM_SettingUp+0xa8>
		else max = 10;
     684:	00800284 	movi	r2,10
     688:	e0bffe15 	stw	r2,-8(fp)
	}
	alarm_time[alarm_cur] = change_num(max, alarm_time[alarm_cur], 1);
     68c:	d43a7417 	ldw	r16,-5680(gp)
     690:	d0fa7417 	ldw	r3,-5680(gp)
     694:	008000b4 	movhi	r2,2
     698:	108eca04 	addi	r2,r2,15144
     69c:	18c7883a 	add	r3,r3,r3
     6a0:	18c7883a 	add	r3,r3,r3
     6a4:	10c5883a 	add	r2,r2,r3
     6a8:	10800017 	ldw	r2,0(r2)
     6ac:	01800044 	movi	r6,1
     6b0:	100b883a 	mov	r5,r2
     6b4:	e13ffe17 	ldw	r4,-8(fp)
     6b8:	000042c0 	call	42c <change_num>
     6bc:	1009883a 	mov	r4,r2
     6c0:	008000b4 	movhi	r2,2
     6c4:	108eca04 	addi	r2,r2,15144
     6c8:	8407883a 	add	r3,r16,r16
     6cc:	18c7883a 	add	r3,r3,r3
     6d0:	10c5883a 	add	r2,r2,r3
     6d4:	11000015 	stw	r4,0(r2)
	alarmTime.sec = alarm_time[1] * 10 + alarm_time[0];
     6d8:	008000b4 	movhi	r2,2
     6dc:	108eca04 	addi	r2,r2,15144
     6e0:	10800117 	ldw	r2,4(r2)
     6e4:	10c002a4 	muli	r3,r2,10
     6e8:	008000b4 	movhi	r2,2
     6ec:	108eca04 	addi	r2,r2,15144
     6f0:	10800017 	ldw	r2,0(r2)
     6f4:	1887883a 	add	r3,r3,r2
     6f8:	008000b4 	movhi	r2,2
     6fc:	108eda04 	addi	r2,r2,15208
     700:	10c00215 	stw	r3,8(r2)
	alarmTime.min = alarm_time[3] * 10 + alarm_time[2];
     704:	008000b4 	movhi	r2,2
     708:	108eca04 	addi	r2,r2,15144
     70c:	10800317 	ldw	r2,12(r2)
     710:	10c002a4 	muli	r3,r2,10
     714:	008000b4 	movhi	r2,2
     718:	108eca04 	addi	r2,r2,15144
     71c:	10800217 	ldw	r2,8(r2)
     720:	1887883a 	add	r3,r3,r2
     724:	008000b4 	movhi	r2,2
     728:	108eda04 	addi	r2,r2,15208
     72c:	10c00115 	stw	r3,4(r2)
	alarmTime.hour = alarm_time[5] * 10 + alarm_time[4];
     730:	008000b4 	movhi	r2,2
     734:	108eca04 	addi	r2,r2,15144
     738:	10800517 	ldw	r2,20(r2)
     73c:	10c002a4 	muli	r3,r2,10
     740:	008000b4 	movhi	r2,2
     744:	108eca04 	addi	r2,r2,15144
     748:	10800417 	ldw	r2,16(r2)
     74c:	1887883a 	add	r3,r3,r2
     750:	008000b4 	movhi	r2,2
     754:	108eda04 	addi	r2,r2,15208
     758:	10c00015 	stw	r3,0(r2)
	if (((alarmTime.sec > 0) || (alarmTime.min > 0)) && (alarmTime.hour > 23))alarmTime.hour = alarmTime.hour - 24;
     75c:	008000b4 	movhi	r2,2
     760:	108eda04 	addi	r2,r2,15208
     764:	10800217 	ldw	r2,8(r2)
     768:	00800416 	blt	zero,r2,77c <ALARM_SettingUp+0x198>
     76c:	008000b4 	movhi	r2,2
     770:	108eda04 	addi	r2,r2,15208
     774:	10800117 	ldw	r2,4(r2)
     778:	00800c0e 	bge	zero,r2,7ac <ALARM_SettingUp+0x1c8>
     77c:	008000b4 	movhi	r2,2
     780:	108eda04 	addi	r2,r2,15208
     784:	10800017 	ldw	r2,0(r2)
     788:	10800610 	cmplti	r2,r2,24
     78c:	1000071e 	bne	r2,zero,7ac <ALARM_SettingUp+0x1c8>
     790:	008000b4 	movhi	r2,2
     794:	108eda04 	addi	r2,r2,15208
     798:	10800017 	ldw	r2,0(r2)
     79c:	10fffa04 	addi	r3,r2,-24
     7a0:	008000b4 	movhi	r2,2
     7a4:	108eda04 	addi	r2,r2,15208
     7a8:	10c00015 	stw	r3,0(r2)
}
     7ac:	0001883a 	nop
     7b0:	e6ffff04 	addi	sp,fp,-4
     7b4:	dfc00217 	ldw	ra,8(sp)
     7b8:	df000117 	ldw	fp,4(sp)
     7bc:	dc000017 	ldw	r16,0(sp)
     7c0:	dec00304 	addi	sp,sp,12
     7c4:	f800283a 	ret

000007c8 <ALARM_SettingDown>:

void ALARM_SettingDown() {
     7c8:	defffc04 	addi	sp,sp,-16
     7cc:	dfc00315 	stw	ra,12(sp)
     7d0:	df000215 	stw	fp,8(sp)
     7d4:	dc000115 	stw	r16,4(sp)
     7d8:	df000204 	addi	fp,sp,8
	int max = 0;
     7dc:	e03ffe15 	stw	zero,-8(fp)
	if (alarm_cur == 0) max = 10;
     7e0:	d0ba7417 	ldw	r2,-5680(gp)
     7e4:	1000031e 	bne	r2,zero,7f4 <ALARM_SettingDown+0x2c>
     7e8:	00800284 	movi	r2,10
     7ec:	e0bffe15 	stw	r2,-8(fp)
     7f0:	00001f06 	br	870 <ALARM_SettingDown+0xa8>
	else if (alarm_cur == 1) max = 6;
     7f4:	d0ba7417 	ldw	r2,-5680(gp)
     7f8:	10800058 	cmpnei	r2,r2,1
     7fc:	1000031e 	bne	r2,zero,80c <ALARM_SettingDown+0x44>
     800:	00800184 	movi	r2,6
     804:	e0bffe15 	stw	r2,-8(fp)
     808:	00001906 	br	870 <ALARM_SettingDown+0xa8>
	else if (alarm_cur == 2) max = 10;
     80c:	d0ba7417 	ldw	r2,-5680(gp)
     810:	10800098 	cmpnei	r2,r2,2
     814:	1000031e 	bne	r2,zero,824 <ALARM_SettingDown+0x5c>
     818:	00800284 	movi	r2,10
     81c:	e0bffe15 	stw	r2,-8(fp)
     820:	00001306 	br	870 <ALARM_SettingDown+0xa8>
	else if (alarm_cur == 3) max = 6;
     824:	d0ba7417 	ldw	r2,-5680(gp)
     828:	108000d8 	cmpnei	r2,r2,3
     82c:	1000031e 	bne	r2,zero,83c <ALARM_SettingDown+0x74>
     830:	00800184 	movi	r2,6
     834:	e0bffe15 	stw	r2,-8(fp)
     838:	00000d06 	br	870 <ALARM_SettingDown+0xa8>
	else if (alarm_cur == 4)
     83c:	d0ba7417 	ldw	r2,-5680(gp)
     840:	10800118 	cmpnei	r2,r2,4
     844:	10000a1e 	bne	r2,zero,870 <ALARM_SettingDown+0xa8>
	{
		if (alarm_time[5] == 2) max = 4;
     848:	008000b4 	movhi	r2,2
     84c:	108eca04 	addi	r2,r2,15144
     850:	10800517 	ldw	r2,20(r2)
     854:	10800098 	cmpnei	r2,r2,2
     858:	1000031e 	bne	r2,zero,868 <ALARM_SettingDown+0xa0>
     85c:	00800104 	movi	r2,4
     860:	e0bffe15 	stw	r2,-8(fp)
     864:	00000206 	br	870 <ALARM_SettingDown+0xa8>
		else max = 10;
     868:	00800284 	movi	r2,10
     86c:	e0bffe15 	stw	r2,-8(fp)
	}
	alarm_time[alarm_cur] = change_num(max, alarm_time[alarm_cur], 2);
     870:	d43a7417 	ldw	r16,-5680(gp)
     874:	d0fa7417 	ldw	r3,-5680(gp)
     878:	008000b4 	movhi	r2,2
     87c:	108eca04 	addi	r2,r2,15144
     880:	18c7883a 	add	r3,r3,r3
     884:	18c7883a 	add	r3,r3,r3
     888:	10c5883a 	add	r2,r2,r3
     88c:	10800017 	ldw	r2,0(r2)
     890:	01800084 	movi	r6,2
     894:	100b883a 	mov	r5,r2
     898:	e13ffe17 	ldw	r4,-8(fp)
     89c:	000042c0 	call	42c <change_num>
     8a0:	1009883a 	mov	r4,r2
     8a4:	008000b4 	movhi	r2,2
     8a8:	108eca04 	addi	r2,r2,15144
     8ac:	8407883a 	add	r3,r16,r16
     8b0:	18c7883a 	add	r3,r3,r3
     8b4:	10c5883a 	add	r2,r2,r3
     8b8:	11000015 	stw	r4,0(r2)
	alarmTime.sec = alarm_time[1] * 10 + alarm_time[0];
     8bc:	008000b4 	movhi	r2,2
     8c0:	108eca04 	addi	r2,r2,15144
     8c4:	10800117 	ldw	r2,4(r2)
     8c8:	10c002a4 	muli	r3,r2,10
     8cc:	008000b4 	movhi	r2,2
     8d0:	108eca04 	addi	r2,r2,15144
     8d4:	10800017 	ldw	r2,0(r2)
     8d8:	1887883a 	add	r3,r3,r2
     8dc:	008000b4 	movhi	r2,2
     8e0:	108eda04 	addi	r2,r2,15208
     8e4:	10c00215 	stw	r3,8(r2)
	alarmTime.min = alarm_time[3] * 10 + alarm_time[2];
     8e8:	008000b4 	movhi	r2,2
     8ec:	108eca04 	addi	r2,r2,15144
     8f0:	10800317 	ldw	r2,12(r2)
     8f4:	10c002a4 	muli	r3,r2,10
     8f8:	008000b4 	movhi	r2,2
     8fc:	108eca04 	addi	r2,r2,15144
     900:	10800217 	ldw	r2,8(r2)
     904:	1887883a 	add	r3,r3,r2
     908:	008000b4 	movhi	r2,2
     90c:	108eda04 	addi	r2,r2,15208
     910:	10c00115 	stw	r3,4(r2)
	alarmTime.hour = alarm_time[5] * 10 + alarm_time[4];
     914:	008000b4 	movhi	r2,2
     918:	108eca04 	addi	r2,r2,15144
     91c:	10800517 	ldw	r2,20(r2)
     920:	10c002a4 	muli	r3,r2,10
     924:	008000b4 	movhi	r2,2
     928:	108eca04 	addi	r2,r2,15144
     92c:	10800417 	ldw	r2,16(r2)
     930:	1887883a 	add	r3,r3,r2
     934:	008000b4 	movhi	r2,2
     938:	108eda04 	addi	r2,r2,15208
     93c:	10c00015 	stw	r3,0(r2)
	if (((alarmTime.sec > 0) || (alarmTime.min > 0)) && (alarmTime.hour > 23))alarmTime.hour = alarmTime.hour - 24;
     940:	008000b4 	movhi	r2,2
     944:	108eda04 	addi	r2,r2,15208
     948:	10800217 	ldw	r2,8(r2)
     94c:	00800416 	blt	zero,r2,960 <ALARM_SettingDown+0x198>
     950:	008000b4 	movhi	r2,2
     954:	108eda04 	addi	r2,r2,15208
     958:	10800117 	ldw	r2,4(r2)
     95c:	00800c0e 	bge	zero,r2,990 <ALARM_SettingDown+0x1c8>
     960:	008000b4 	movhi	r2,2
     964:	108eda04 	addi	r2,r2,15208
     968:	10800017 	ldw	r2,0(r2)
     96c:	10800610 	cmplti	r2,r2,24
     970:	1000071e 	bne	r2,zero,990 <ALARM_SettingDown+0x1c8>
     974:	008000b4 	movhi	r2,2
     978:	108eda04 	addi	r2,r2,15208
     97c:	10800017 	ldw	r2,0(r2)
     980:	10fffa04 	addi	r3,r2,-24
     984:	008000b4 	movhi	r2,2
     988:	108eda04 	addi	r2,r2,15208
     98c:	10c00015 	stw	r3,0(r2)
}
     990:	0001883a 	nop
     994:	e6ffff04 	addi	sp,fp,-4
     998:	dfc00217 	ldw	ra,8(sp)
     99c:	df000117 	ldw	fp,4(sp)
     9a0:	dc000017 	ldw	r16,0(sp)
     9a4:	dec00304 	addi	sp,sp,12
     9a8:	f800283a 	ret

000009ac <ALARM_SettingMove>:

void ALARM_SettingMove() {
     9ac:	deffff04 	addi	sp,sp,-4
     9b0:	df000015 	stw	fp,0(sp)
     9b4:	d839883a 	mov	fp,sp
	alarm_cur++;
     9b8:	d0ba7417 	ldw	r2,-5680(gp)
     9bc:	10800044 	addi	r2,r2,1
     9c0:	d0ba7415 	stw	r2,-5680(gp)
	if (alarm_cur > 5) alarm_cur = 0;
     9c4:	d0ba7417 	ldw	r2,-5680(gp)
     9c8:	10800190 	cmplti	r2,r2,6
     9cc:	1000011e 	bne	r2,zero,9d4 <ALARM_SettingMove+0x28>
     9d0:	d03a7415 	stw	zero,-5680(gp)
}
     9d4:	0001883a 	nop
     9d8:	e037883a 	mov	sp,fp
     9dc:	df000017 	ldw	fp,0(sp)
     9e0:	dec00104 	addi	sp,sp,4
     9e4:	f800283a 	ret

000009e8 <ALARM_SettingSave>:

void ALARM_SettingSave() {
     9e8:	deffff04 	addi	sp,sp,-4
     9ec:	df000015 	stw	fp,0(sp)
     9f0:	d839883a 	mov	fp,sp
	VGA_IsAlarmMode = 1;
     9f4:	00800044 	movi	r2,1
     9f8:	d0ba7915 	stw	r2,-5660(gp)
	VGA_IsAlarmSettingMode = 0;
     9fc:	d03a7815 	stw	zero,-5664(gp)
	mode = 0;
     a00:	d03a8015 	stw	zero,-5632(gp)
}
     a04:	0001883a 	nop
     a08:	e037883a 	mov	sp,fp
     a0c:	df000017 	ldw	fp,0(sp)
     a10:	dec00104 	addi	sp,sp,4
     a14:	f800283a 	ret

00000a18 <CLOCK_SettingUp>:

void CLOCK_SettingUp() {
     a18:	defffc04 	addi	sp,sp,-16
     a1c:	dfc00315 	stw	ra,12(sp)
     a20:	df000215 	stw	fp,8(sp)
     a24:	dc000115 	stw	r16,4(sp)
     a28:	df000204 	addi	fp,sp,8
	int max = 0;
     a2c:	e03ffe15 	stw	zero,-8(fp)
	if (set_cur == 0) max = 10;
     a30:	d0ba7517 	ldw	r2,-5676(gp)
     a34:	1000031e 	bne	r2,zero,a44 <CLOCK_SettingUp+0x2c>
     a38:	00800284 	movi	r2,10
     a3c:	e0bffe15 	stw	r2,-8(fp)
     a40:	00001f06 	br	ac0 <CLOCK_SettingUp+0xa8>
	else if (set_cur == 1) max = 6;
     a44:	d0ba7517 	ldw	r2,-5676(gp)
     a48:	10800058 	cmpnei	r2,r2,1
     a4c:	1000031e 	bne	r2,zero,a5c <CLOCK_SettingUp+0x44>
     a50:	00800184 	movi	r2,6
     a54:	e0bffe15 	stw	r2,-8(fp)
     a58:	00001906 	br	ac0 <CLOCK_SettingUp+0xa8>
	else if (set_cur == 2) max = 10;
     a5c:	d0ba7517 	ldw	r2,-5676(gp)
     a60:	10800098 	cmpnei	r2,r2,2
     a64:	1000031e 	bne	r2,zero,a74 <CLOCK_SettingUp+0x5c>
     a68:	00800284 	movi	r2,10
     a6c:	e0bffe15 	stw	r2,-8(fp)
     a70:	00001306 	br	ac0 <CLOCK_SettingUp+0xa8>
	else if (set_cur == 3) max = 6;
     a74:	d0ba7517 	ldw	r2,-5676(gp)
     a78:	108000d8 	cmpnei	r2,r2,3
     a7c:	1000031e 	bne	r2,zero,a8c <CLOCK_SettingUp+0x74>
     a80:	00800184 	movi	r2,6
     a84:	e0bffe15 	stw	r2,-8(fp)
     a88:	00000d06 	br	ac0 <CLOCK_SettingUp+0xa8>
	else if (set_cur == 4)
     a8c:	d0ba7517 	ldw	r2,-5676(gp)
     a90:	10800118 	cmpnei	r2,r2,4
     a94:	10000a1e 	bne	r2,zero,ac0 <CLOCK_SettingUp+0xa8>
	{
		if (set_time[5] == 2) max = 4;
     a98:	008000b4 	movhi	r2,2
     a9c:	108ec404 	addi	r2,r2,15120
     aa0:	10800517 	ldw	r2,20(r2)
     aa4:	10800098 	cmpnei	r2,r2,2
     aa8:	1000031e 	bne	r2,zero,ab8 <CLOCK_SettingUp+0xa0>
     aac:	00800104 	movi	r2,4
     ab0:	e0bffe15 	stw	r2,-8(fp)
     ab4:	00000206 	br	ac0 <CLOCK_SettingUp+0xa8>
		else max = 10;
     ab8:	00800284 	movi	r2,10
     abc:	e0bffe15 	stw	r2,-8(fp)
	}
	set_time[set_cur] = change_num(max, set_time[set_cur], 1);
     ac0:	d43a7517 	ldw	r16,-5676(gp)
     ac4:	d0fa7517 	ldw	r3,-5676(gp)
     ac8:	008000b4 	movhi	r2,2
     acc:	108ec404 	addi	r2,r2,15120
     ad0:	18c7883a 	add	r3,r3,r3
     ad4:	18c7883a 	add	r3,r3,r3
     ad8:	10c5883a 	add	r2,r2,r3
     adc:	10800017 	ldw	r2,0(r2)
     ae0:	01800044 	movi	r6,1
     ae4:	100b883a 	mov	r5,r2
     ae8:	e13ffe17 	ldw	r4,-8(fp)
     aec:	000042c0 	call	42c <change_num>
     af0:	1009883a 	mov	r4,r2
     af4:	008000b4 	movhi	r2,2
     af8:	108ec404 	addi	r2,r2,15120
     afc:	8407883a 	add	r3,r16,r16
     b00:	18c7883a 	add	r3,r3,r3
     b04:	10c5883a 	add	r2,r2,r3
     b08:	11000015 	stw	r4,0(r2)
	currentTime.sec = set_time[1] * 10 + set_time[0];
     b0c:	008000b4 	movhi	r2,2
     b10:	108ec404 	addi	r2,r2,15120
     b14:	10800117 	ldw	r2,4(r2)
     b18:	10c002a4 	muli	r3,r2,10
     b1c:	008000b4 	movhi	r2,2
     b20:	108ec404 	addi	r2,r2,15120
     b24:	10800017 	ldw	r2,0(r2)
     b28:	1887883a 	add	r3,r3,r2
     b2c:	00802134 	movhi	r2,132
     b30:	10935d04 	addi	r2,r2,19828
     b34:	10c00215 	stw	r3,8(r2)
	currentTime.min = set_time[3] * 10 + set_time[2];
     b38:	008000b4 	movhi	r2,2
     b3c:	108ec404 	addi	r2,r2,15120
     b40:	10800317 	ldw	r2,12(r2)
     b44:	10c002a4 	muli	r3,r2,10
     b48:	008000b4 	movhi	r2,2
     b4c:	108ec404 	addi	r2,r2,15120
     b50:	10800217 	ldw	r2,8(r2)
     b54:	1887883a 	add	r3,r3,r2
     b58:	00802134 	movhi	r2,132
     b5c:	10935d04 	addi	r2,r2,19828
     b60:	10c00115 	stw	r3,4(r2)
	currentTime.hour = set_time[5] * 10 + set_time[4];
     b64:	008000b4 	movhi	r2,2
     b68:	108ec404 	addi	r2,r2,15120
     b6c:	10800517 	ldw	r2,20(r2)
     b70:	10c002a4 	muli	r3,r2,10
     b74:	008000b4 	movhi	r2,2
     b78:	108ec404 	addi	r2,r2,15120
     b7c:	10800417 	ldw	r2,16(r2)
     b80:	1887883a 	add	r3,r3,r2
     b84:	00802134 	movhi	r2,132
     b88:	10935d04 	addi	r2,r2,19828
     b8c:	10c00015 	stw	r3,0(r2)
	if (((currentTime.sec > 0) || (currentTime.min > 0)) && (currentTime.hour > 23))currentTime.hour = currentTime.hour - 24;
     b90:	00802134 	movhi	r2,132
     b94:	10935d04 	addi	r2,r2,19828
     b98:	10800217 	ldw	r2,8(r2)
     b9c:	00800416 	blt	zero,r2,bb0 <CLOCK_SettingUp+0x198>
     ba0:	00802134 	movhi	r2,132
     ba4:	10935d04 	addi	r2,r2,19828
     ba8:	10800117 	ldw	r2,4(r2)
     bac:	00800c0e 	bge	zero,r2,be0 <CLOCK_SettingUp+0x1c8>
     bb0:	00802134 	movhi	r2,132
     bb4:	10935d04 	addi	r2,r2,19828
     bb8:	10800017 	ldw	r2,0(r2)
     bbc:	10800610 	cmplti	r2,r2,24
     bc0:	1000071e 	bne	r2,zero,be0 <CLOCK_SettingUp+0x1c8>
     bc4:	00802134 	movhi	r2,132
     bc8:	10935d04 	addi	r2,r2,19828
     bcc:	10800017 	ldw	r2,0(r2)
     bd0:	10fffa04 	addi	r3,r2,-24
     bd4:	00802134 	movhi	r2,132
     bd8:	10935d04 	addi	r2,r2,19828
     bdc:	10c00015 	stw	r3,0(r2)
}
     be0:	0001883a 	nop
     be4:	e6ffff04 	addi	sp,fp,-4
     be8:	dfc00217 	ldw	ra,8(sp)
     bec:	df000117 	ldw	fp,4(sp)
     bf0:	dc000017 	ldw	r16,0(sp)
     bf4:	dec00304 	addi	sp,sp,12
     bf8:	f800283a 	ret

00000bfc <CLOCK_SettingDown>:

void CLOCK_SettingDown() {
     bfc:	defffc04 	addi	sp,sp,-16
     c00:	dfc00315 	stw	ra,12(sp)
     c04:	df000215 	stw	fp,8(sp)
     c08:	dc000115 	stw	r16,4(sp)
     c0c:	df000204 	addi	fp,sp,8
	int max = 0;
     c10:	e03ffe15 	stw	zero,-8(fp)
	if (set_cur == 0) max = 10;
     c14:	d0ba7517 	ldw	r2,-5676(gp)
     c18:	1000031e 	bne	r2,zero,c28 <CLOCK_SettingDown+0x2c>
     c1c:	00800284 	movi	r2,10
     c20:	e0bffe15 	stw	r2,-8(fp)
     c24:	00001f06 	br	ca4 <CLOCK_SettingDown+0xa8>
	else if (set_cur == 1) max = 6;
     c28:	d0ba7517 	ldw	r2,-5676(gp)
     c2c:	10800058 	cmpnei	r2,r2,1
     c30:	1000031e 	bne	r2,zero,c40 <CLOCK_SettingDown+0x44>
     c34:	00800184 	movi	r2,6
     c38:	e0bffe15 	stw	r2,-8(fp)
     c3c:	00001906 	br	ca4 <CLOCK_SettingDown+0xa8>
	else if (set_cur == 2) max = 10;
     c40:	d0ba7517 	ldw	r2,-5676(gp)
     c44:	10800098 	cmpnei	r2,r2,2
     c48:	1000031e 	bne	r2,zero,c58 <CLOCK_SettingDown+0x5c>
     c4c:	00800284 	movi	r2,10
     c50:	e0bffe15 	stw	r2,-8(fp)
     c54:	00001306 	br	ca4 <CLOCK_SettingDown+0xa8>
	else if (set_cur == 3) max = 6;
     c58:	d0ba7517 	ldw	r2,-5676(gp)
     c5c:	108000d8 	cmpnei	r2,r2,3
     c60:	1000031e 	bne	r2,zero,c70 <CLOCK_SettingDown+0x74>
     c64:	00800184 	movi	r2,6
     c68:	e0bffe15 	stw	r2,-8(fp)
     c6c:	00000d06 	br	ca4 <CLOCK_SettingDown+0xa8>
	else if (set_cur == 4)
     c70:	d0ba7517 	ldw	r2,-5676(gp)
     c74:	10800118 	cmpnei	r2,r2,4
     c78:	10000a1e 	bne	r2,zero,ca4 <CLOCK_SettingDown+0xa8>
	{
		if (set_time[5] == 2) max = 4;
     c7c:	008000b4 	movhi	r2,2
     c80:	108ec404 	addi	r2,r2,15120
     c84:	10800517 	ldw	r2,20(r2)
     c88:	10800098 	cmpnei	r2,r2,2
     c8c:	1000031e 	bne	r2,zero,c9c <CLOCK_SettingDown+0xa0>
     c90:	00800104 	movi	r2,4
     c94:	e0bffe15 	stw	r2,-8(fp)
     c98:	00000206 	br	ca4 <CLOCK_SettingDown+0xa8>
		else max = 10;
     c9c:	00800284 	movi	r2,10
     ca0:	e0bffe15 	stw	r2,-8(fp)
	}
	set_time[set_cur] = change_num(max, set_time[set_cur], 2);
     ca4:	d43a7517 	ldw	r16,-5676(gp)
     ca8:	d0fa7517 	ldw	r3,-5676(gp)
     cac:	008000b4 	movhi	r2,2
     cb0:	108ec404 	addi	r2,r2,15120
     cb4:	18c7883a 	add	r3,r3,r3
     cb8:	18c7883a 	add	r3,r3,r3
     cbc:	10c5883a 	add	r2,r2,r3
     cc0:	10800017 	ldw	r2,0(r2)
     cc4:	01800084 	movi	r6,2
     cc8:	100b883a 	mov	r5,r2
     ccc:	e13ffe17 	ldw	r4,-8(fp)
     cd0:	000042c0 	call	42c <change_num>
     cd4:	1009883a 	mov	r4,r2
     cd8:	008000b4 	movhi	r2,2
     cdc:	108ec404 	addi	r2,r2,15120
     ce0:	8407883a 	add	r3,r16,r16
     ce4:	18c7883a 	add	r3,r3,r3
     ce8:	10c5883a 	add	r2,r2,r3
     cec:	11000015 	stw	r4,0(r2)
	currentTime.sec = set_time[1] * 10 + set_time[0];
     cf0:	008000b4 	movhi	r2,2
     cf4:	108ec404 	addi	r2,r2,15120
     cf8:	10800117 	ldw	r2,4(r2)
     cfc:	10c002a4 	muli	r3,r2,10
     d00:	008000b4 	movhi	r2,2
     d04:	108ec404 	addi	r2,r2,15120
     d08:	10800017 	ldw	r2,0(r2)
     d0c:	1887883a 	add	r3,r3,r2
     d10:	00802134 	movhi	r2,132
     d14:	10935d04 	addi	r2,r2,19828
     d18:	10c00215 	stw	r3,8(r2)
	currentTime.min = set_time[3] * 10 + set_time[2];
     d1c:	008000b4 	movhi	r2,2
     d20:	108ec404 	addi	r2,r2,15120
     d24:	10800317 	ldw	r2,12(r2)
     d28:	10c002a4 	muli	r3,r2,10
     d2c:	008000b4 	movhi	r2,2
     d30:	108ec404 	addi	r2,r2,15120
     d34:	10800217 	ldw	r2,8(r2)
     d38:	1887883a 	add	r3,r3,r2
     d3c:	00802134 	movhi	r2,132
     d40:	10935d04 	addi	r2,r2,19828
     d44:	10c00115 	stw	r3,4(r2)
	currentTime.hour = set_time[5] * 10 + set_time[4];
     d48:	008000b4 	movhi	r2,2
     d4c:	108ec404 	addi	r2,r2,15120
     d50:	10800517 	ldw	r2,20(r2)
     d54:	10c002a4 	muli	r3,r2,10
     d58:	008000b4 	movhi	r2,2
     d5c:	108ec404 	addi	r2,r2,15120
     d60:	10800417 	ldw	r2,16(r2)
     d64:	1887883a 	add	r3,r3,r2
     d68:	00802134 	movhi	r2,132
     d6c:	10935d04 	addi	r2,r2,19828
     d70:	10c00015 	stw	r3,0(r2)
	if (((currentTime.sec > 0) || (currentTime.min > 0)) && (currentTime.hour > 23))currentTime.hour = currentTime.hour - 24;
     d74:	00802134 	movhi	r2,132
     d78:	10935d04 	addi	r2,r2,19828
     d7c:	10800217 	ldw	r2,8(r2)
     d80:	00800416 	blt	zero,r2,d94 <CLOCK_SettingDown+0x198>
     d84:	00802134 	movhi	r2,132
     d88:	10935d04 	addi	r2,r2,19828
     d8c:	10800117 	ldw	r2,4(r2)
     d90:	00800c0e 	bge	zero,r2,dc4 <CLOCK_SettingDown+0x1c8>
     d94:	00802134 	movhi	r2,132
     d98:	10935d04 	addi	r2,r2,19828
     d9c:	10800017 	ldw	r2,0(r2)
     da0:	10800610 	cmplti	r2,r2,24
     da4:	1000071e 	bne	r2,zero,dc4 <CLOCK_SettingDown+0x1c8>
     da8:	00802134 	movhi	r2,132
     dac:	10935d04 	addi	r2,r2,19828
     db0:	10800017 	ldw	r2,0(r2)
     db4:	10fffa04 	addi	r3,r2,-24
     db8:	00802134 	movhi	r2,132
     dbc:	10935d04 	addi	r2,r2,19828
     dc0:	10c00015 	stw	r3,0(r2)
}
     dc4:	0001883a 	nop
     dc8:	e6ffff04 	addi	sp,fp,-4
     dcc:	dfc00217 	ldw	ra,8(sp)
     dd0:	df000117 	ldw	fp,4(sp)
     dd4:	dc000017 	ldw	r16,0(sp)
     dd8:	dec00304 	addi	sp,sp,12
     ddc:	f800283a 	ret

00000de0 <CLOCK_SettingMove>:

void CLOCK_SettingMove() {
     de0:	deffff04 	addi	sp,sp,-4
     de4:	df000015 	stw	fp,0(sp)
     de8:	d839883a 	mov	fp,sp
	set_cur++;
     dec:	d0ba7517 	ldw	r2,-5676(gp)
     df0:	10800044 	addi	r2,r2,1
     df4:	d0ba7515 	stw	r2,-5676(gp)
	if (set_cur > 5) set_cur = 0;
     df8:	d0ba7517 	ldw	r2,-5676(gp)
     dfc:	10800190 	cmplti	r2,r2,6
     e00:	1000011e 	bne	r2,zero,e08 <CLOCK_SettingMove+0x28>
     e04:	d03a7515 	stw	zero,-5676(gp)
}
     e08:	0001883a 	nop
     e0c:	e037883a 	mov	sp,fp
     e10:	df000017 	ldw	fp,0(sp)
     e14:	dec00104 	addi	sp,sp,4
     e18:	f800283a 	ret

00000e1c <CLOCK_SettingSave>:

void CLOCK_SettingSave() {
     e1c:	deffff04 	addi	sp,sp,-4
     e20:	df000015 	stw	fp,0(sp)
     e24:	d839883a 	mov	fp,sp
	mode = 0;
     e28:	d03a8015 	stw	zero,-5632(gp)
}
     e2c:	0001883a 	nop
     e30:	e037883a 	mov	sp,fp
     e34:	df000017 	ldw	fp,0(sp)
     e38:	dec00104 	addi	sp,sp,4
     e3c:	f800283a 	ret

00000e40 <Alarm_Checking>:

void Alarm_Checking() {
     e40:	defffe04 	addi	sp,sp,-8
     e44:	dfc00115 	stw	ra,4(sp)
     e48:	df000015 	stw	fp,0(sp)
     e4c:	d839883a 	mov	fp,sp
	if (VGA_IsAlarmMode == 0) return;
     e50:	d0ba7917 	ldw	r2,-5660(gp)
     e54:	10000326 	beq	r2,zero,e64 <Alarm_Checking+0x24>
	VGA_IsAlarmMode = 0;
     e58:	d03a7915 	stw	zero,-5660(gp)
	Audio_Play();
     e5c:	0002c340 	call	2c34 <Audio_Play>
     e60:	00000106 	br	e68 <Alarm_Checking+0x28>
void CLOCK_SettingSave() {
	mode = 0;
}

void Alarm_Checking() {
	if (VGA_IsAlarmMode == 0) return;
     e64:	0001883a 	nop
	VGA_IsAlarmMode = 0;
	Audio_Play();
}
     e68:	e037883a 	mov	sp,fp
     e6c:	dfc00117 	ldw	ra,4(sp)
     e70:	df000017 	ldw	fp,0(sp)
     e74:	dec00204 	addi	sp,sp,8
     e78:	f800283a 	ret

00000e7c <IMG_Number_L>:
0x0000,0x0000,0x0000,0x0000,0x0000,0x0000,0x0000,0x0000,0x0000,0x0000,0x0000,
0x0000,0x0000,0x0000,0x0000,0x0000,0x0000,0x0000,0x0000,0x0000,0x0000,0x0000,
0x0000,0x0000,0x0000,0x0000,0x0000,0x0000,0x0000,0x0000,0x0000,0x0000,0x0000
};

unsigned short * IMG_Number_L(int num) {
     e7c:	defffe04 	addi	sp,sp,-8
     e80:	df000115 	stw	fp,4(sp)
     e84:	df000104 	addi	fp,sp,4
     e88:	e13fff15 	stw	r4,-4(fp)
	switch (num) {
     e8c:	e0bfff17 	ldw	r2,-4(fp)
     e90:	108002a8 	cmpgeui	r2,r2,10
     e94:	10002f1e 	bne	r2,zero,f54 <IMG_Number_L+0xd8>
     e98:	e0bfff17 	ldw	r2,-4(fp)
     e9c:	100690ba 	slli	r3,r2,2
     ea0:	00800034 	movhi	r2,0
     ea4:	1083ad04 	addi	r2,r2,3764
     ea8:	1885883a 	add	r2,r3,r2
     eac:	10800017 	ldw	r2,0(r2)
     eb0:	1000683a 	jmp	r2
     eb4:	00000edc 	xori	zero,zero,59
     eb8:	00000ee8 	cmpgeui	zero,zero,59
     ebc:	00000ef4 	movhi	zero,59
     ec0:	00000f00 	call	f0 <__flash_exceptions_start+0xd0>
     ec4:	00000f0c 	andi	zero,zero,60
     ec8:	00000f18 	cmpnei	zero,zero,60
     ecc:	00000f24 	muli	zero,zero,60
     ed0:	00000f30 	cmpltui	zero,zero,60
     ed4:	00000f3c 	xorhi	zero,zero,60
     ed8:	00000f48 	cmpgei	zero,zero,61
		case 0: return IMG_Num0_L;
     edc:	00800074 	movhi	r2,1
     ee0:	109e8104 	addi	r2,r2,31236
     ee4:	00001d06 	br	f5c <IMG_Number_L+0xe0>
		case 1: return IMG_Num1_L;
     ee8:	00800074 	movhi	r2,1
     eec:	109fe204 	addi	r2,r2,32648
     ef0:	00001a06 	br	f5c <IMG_Number_L+0xe0>
		case 2: return IMG_Num2_L;
     ef4:	008000b4 	movhi	r2,2
     ef8:	10a14304 	addi	r2,r2,-31476
     efc:	00001706 	br	f5c <IMG_Number_L+0xe0>
		case 3: return IMG_Num3_L;
     f00:	008000b4 	movhi	r2,2
     f04:	10a2a404 	addi	r2,r2,-30064
     f08:	00001406 	br	f5c <IMG_Number_L+0xe0>
		case 4: return IMG_Num4_L;
     f0c:	008000b4 	movhi	r2,2
     f10:	10a40504 	addi	r2,r2,-28652
     f14:	00001106 	br	f5c <IMG_Number_L+0xe0>
		case 5: return IMG_Num5_L;
     f18:	008000b4 	movhi	r2,2
     f1c:	10a56604 	addi	r2,r2,-27240
     f20:	00000e06 	br	f5c <IMG_Number_L+0xe0>
		case 6: return IMG_Num6_L;
     f24:	008000b4 	movhi	r2,2
     f28:	10a6c704 	addi	r2,r2,-25828
     f2c:	00000b06 	br	f5c <IMG_Number_L+0xe0>
		case 7: return IMG_Num7_L;
     f30:	008000b4 	movhi	r2,2
     f34:	10a82804 	addi	r2,r2,-24416
     f38:	00000806 	br	f5c <IMG_Number_L+0xe0>
		case 8: return IMG_Num8_L;
     f3c:	008000b4 	movhi	r2,2
     f40:	10a98904 	addi	r2,r2,-23004
     f44:	00000506 	br	f5c <IMG_Number_L+0xe0>
		case 9: return IMG_Num9_L;
     f48:	008000b4 	movhi	r2,2
     f4c:	10aaea04 	addi	r2,r2,-21592
     f50:	00000206 	br	f5c <IMG_Number_L+0xe0>
		default : return IMG_Num0_L;
     f54:	00800074 	movhi	r2,1
     f58:	109e8104 	addi	r2,r2,31236
	}
}
     f5c:	e037883a 	mov	sp,fp
     f60:	df000017 	ldw	fp,0(sp)
     f64:	dec00104 	addi	sp,sp,4
     f68:	f800283a 	ret

00000f6c <IMG_Number_S>:
0x0000,0x0000,0x0000,0x0000,0x8c71,0xd69a,0xffff,0xffff,0xef5d,0x9cf3,0x2124,0x0000,0x0000,0x0000,
0x0000,0x0000,0x0000,0x0000,0x0000,0x0000,0x0000,0x0000,0x0000,0x0000,0x0000,0x0000,0x0000,0x0000,
0x0000,0x0000,0x0000,0x0000,0x0000,0x0000,0x0000,0x0000,0x0000,0x0000,0x0000,0x0000,0x0000,0x0000
};

unsigned short * IMG_Number_S(int num) {
     f6c:	defffe04 	addi	sp,sp,-8
     f70:	df000115 	stw	fp,4(sp)
     f74:	df000104 	addi	fp,sp,4
     f78:	e13fff15 	stw	r4,-4(fp)
	switch (num) {
     f7c:	e0bfff17 	ldw	r2,-4(fp)
     f80:	108002a8 	cmpgeui	r2,r2,10
     f84:	10002f1e 	bne	r2,zero,1044 <IMG_Number_S+0xd8>
     f88:	e0bfff17 	ldw	r2,-4(fp)
     f8c:	100690ba 	slli	r3,r2,2
     f90:	00800034 	movhi	r2,0
     f94:	1083e904 	addi	r2,r2,4004
     f98:	1885883a 	add	r2,r3,r2
     f9c:	10800017 	ldw	r2,0(r2)
     fa0:	1000683a 	jmp	r2
     fa4:	00000fcc 	andi	zero,zero,63
     fa8:	00000fd8 	cmpnei	zero,zero,63
     fac:	00000fe4 	muli	zero,zero,63
     fb0:	00000ff0 	cmpltui	zero,zero,63
     fb4:	00000ffc 	xorhi	zero,zero,63
     fb8:	00001008 	cmpgei	zero,zero,64
     fbc:	00001014 	movui	zero,64
     fc0:	00001020 	cmpeqi	zero,zero,64
     fc4:	0000102c 	andhi	zero,zero,64
     fc8:	00001038 	rdprs	zero,zero,64
		case 0: return IMG_Num0_S;
     fcc:	00800074 	movhi	r2,1
     fd0:	10924f84 	addi	r2,r2,18750
     fd4:	00001b06 	br	1044 <IMG_Number_S+0xd8>
		case 1: return IMG_Num1_S;
     fd8:	00800074 	movhi	r2,1
     fdc:	1092f184 	addi	r2,r2,19398
     fe0:	00001806 	br	1044 <IMG_Number_S+0xd8>
		case 2: return IMG_Num2_S;
     fe4:	00800074 	movhi	r2,1
     fe8:	10939384 	addi	r2,r2,20046
     fec:	00001506 	br	1044 <IMG_Number_S+0xd8>
		case 3: return IMG_Num3_S;
     ff0:	00800074 	movhi	r2,1
     ff4:	10943584 	addi	r2,r2,20694
     ff8:	00001206 	br	1044 <IMG_Number_S+0xd8>
		case 4: return IMG_Num4_S;
     ffc:	00800074 	movhi	r2,1
    1000:	1094d784 	addi	r2,r2,21342
    1004:	00000f06 	br	1044 <IMG_Number_S+0xd8>
		case 5: return IMG_Num5_S;
    1008:	00800074 	movhi	r2,1
    100c:	10957984 	addi	r2,r2,21990
    1010:	00000c06 	br	1044 <IMG_Number_S+0xd8>
		case 6: return IMG_Num6_S;
    1014:	00800074 	movhi	r2,1
    1018:	10961b84 	addi	r2,r2,22638
    101c:	00000906 	br	1044 <IMG_Number_S+0xd8>
		case 7: return IMG_Num7_S;
    1020:	00800074 	movhi	r2,1
    1024:	1096bd84 	addi	r2,r2,23286
    1028:	00000606 	br	1044 <IMG_Number_S+0xd8>
		case 8: return IMG_Num8_S;
    102c:	00800074 	movhi	r2,1
    1030:	10975f84 	addi	r2,r2,23934
    1034:	00000306 	br	1044 <IMG_Number_S+0xd8>
		case 9: return IMG_Num9_S;
    1038:	00800074 	movhi	r2,1
    103c:	10980184 	addi	r2,r2,24582
    1040:	00000006 	br	1044 <IMG_Number_S+0xd8>
		defauSt : return IMG_Num0_S;
	}
}
    1044:	e037883a 	mov	sp,fp
    1048:	df000017 	ldw	fp,0(sp)
    104c:	dec00104 	addi	sp,sp,4
    1050:	f800283a 	ret

00001054 <Init_VGA>:
extern volatile int VGA_DrawMode = 0;
extern volatile int * pHEX4_5;
extern volatile int * pHEX0_3;
extern void Timer_ISR();

void Init_VGA() {
    1054:	defffe04 	addi	sp,sp,-8
    1058:	dfc00115 	stw	ra,4(sp)
    105c:	df000015 	stw	fp,0(sp)
    1060:	d839883a 	mov	fp,sp
	Init_timer();
    1064:	000039c0 	call	39c <Init_timer>
	*(pixel_ctrl_ptr + 1) = front_buffer;
    1068:	d0a00317 	ldw	r2,-32756(gp)
    106c:	10c00104 	addi	r3,r2,4
    1070:	008000b4 	movhi	r2,2
    1074:	108edd04 	addi	r2,r2,15220
    1078:	18800015 	stw	r2,0(r3)
	wait_for_vsync();
    107c:	000219c0 	call	219c <wait_for_vsync>

	pixel_buffer_start = *pixel_ctrl_ptr;
    1080:	d0a00317 	ldw	r2,-32756(gp)
    1084:	10800017 	ldw	r2,0(r2)
    1088:	d0ba8115 	stw	r2,-5628(gp)
	*(pixel_ctrl_ptr + 1) = back_buffer;
    108c:	d0a00317 	ldw	r2,-32756(gp)
    1090:	10c00104 	addi	r3,r2,4
    1094:	008010f4 	movhi	r2,67
    1098:	10911d04 	addi	r2,r2,17524
    109c:	18800015 	stw	r2,0(r3)
}
    10a0:	0001883a 	nop
    10a4:	e037883a 	mov	sp,fp
    10a8:	dfc00117 	ldw	ra,4(sp)
    10ac:	df000017 	ldw	fp,0(sp)
    10b0:	dec00204 	addi	sp,sp,8
    10b4:	f800283a 	ret

000010b8 <VGA_AlarmDraw_S>:

void VGA_AlarmDraw_S(int drawType, int cursorPos, timeSet alarmTime) {
    10b8:	deffef04 	addi	sp,sp,-68
    10bc:	dfc00e15 	stw	ra,56(sp)
    10c0:	df000d15 	stw	fp,52(sp)
    10c4:	dc400c15 	stw	r17,48(sp)
    10c8:	dc000b15 	stw	r16,44(sp)
    10cc:	df000d04 	addi	fp,sp,52
    10d0:	e13ffc15 	stw	r4,-16(fp)
    10d4:	e17ffd15 	stw	r5,-12(fp)
    10d8:	e1800215 	stw	r6,8(fp)
    10dc:	e1c00315 	stw	r7,12(fp)
	if (VGA_MonitorPower == 1) {
    10e0:	d0a00417 	ldw	r2,-32752(gp)
    10e4:	10800058 	cmpnei	r2,r2,1
    10e8:	1000eb1e 	bne	r2,zero,1498 <VGA_AlarmDraw_S+0x3e0>
		int x = 0, y = 0, offset_alarm_x = 0;
    10ec:	e03ff315 	stw	zero,-52(fp)
    10f0:	e03ff415 	stw	zero,-48(fp)
    10f4:	e03ff515 	stw	zero,-44(fp)
		if (drawType == 0) { x = 5; y = 5; }
    10f8:	e0bffc17 	ldw	r2,-16(fp)
    10fc:	1000041e 	bne	r2,zero,1110 <VGA_AlarmDraw_S+0x58>
    1100:	00800144 	movi	r2,5
    1104:	e0bff315 	stw	r2,-52(fp)
    1108:	00800144 	movi	r2,5
    110c:	e0bff415 	stw	r2,-48(fp)

		if (VGA_IsAlarmMode != 0) {
    1110:	d0ba7917 	ldw	r2,-5660(gp)
    1114:	10000826 	beq	r2,zero,1138 <VGA_AlarmDraw_S+0x80>
			imageDraw(x, y, IMG_Alarm);
    1118:	01800074 	movhi	r6,1
    111c:	3190e204 	addi	r6,r6,17288
    1120:	e17ff417 	ldw	r5,-48(fp)
    1124:	e13ff317 	ldw	r4,-52(fp)
    1128:	00020700 	call	2070 <imageDraw>
			offset_alarm_x = IMG_Alarm[0];
    112c:	008006c4 	movi	r2,27
    1130:	10bfffcc 	andi	r2,r2,65535
    1134:	e0bff515 	stw	r2,-44(fp)
		}

		imageDraw(x + offset_alarm_x, y, IMG_SetAlarm);
    1138:	e0fff317 	ldw	r3,-52(fp)
    113c:	e0bff517 	ldw	r2,-44(fp)
    1140:	1885883a 	add	r2,r3,r2
    1144:	01800074 	movhi	r6,1
    1148:	318c2204 	addi	r6,r6,12424
    114c:	e17ff417 	ldw	r5,-48(fp)
    1150:	1009883a 	mov	r4,r2
    1154:	00020700 	call	2070 <imageDraw>
		offset_alarm_x += IMG_SetAlarm[0];
    1158:	00801684 	movi	r2,90
    115c:	10bfffcc 	andi	r2,r2,65535
    1160:	e0fff517 	ldw	r3,-44(fp)
    1164:	1885883a 	add	r2,r3,r2
    1168:	e0bff515 	stw	r2,-44(fp)

		if (alarmTime.hour > 12)
    116c:	e0800217 	ldw	r2,8(fp)
    1170:	10800350 	cmplti	r2,r2,13
    1174:	1000091e 	bne	r2,zero,119c <VGA_AlarmDraw_S+0xe4>
			imageDraw(x + offset_alarm_x, y, IMG_afternoon_L);
    1178:	e0fff317 	ldw	r3,-52(fp)
    117c:	e0bff517 	ldw	r2,-44(fp)
    1180:	1885883a 	add	r2,r3,r2
    1184:	01800074 	movhi	r6,1
    1188:	319c3b84 	addi	r6,r6,28910
    118c:	e17ff417 	ldw	r5,-48(fp)
    1190:	1009883a 	mov	r4,r2
    1194:	00020700 	call	2070 <imageDraw>
    1198:	00000806 	br	11bc <VGA_AlarmDraw_S+0x104>
		else
			imageDraw(x + offset_alarm_x, y, IMG_morning_L);
    119c:	e0fff317 	ldw	r3,-52(fp)
    11a0:	e0bff517 	ldw	r2,-44(fp)
    11a4:	1885883a 	add	r2,r3,r2
    11a8:	01800074 	movhi	r6,1
    11ac:	3199f604 	addi	r6,r6,26584
    11b0:	e17ff417 	ldw	r5,-48(fp)
    11b4:	1009883a 	mov	r4,r2
    11b8:	00020700 	call	2070 <imageDraw>

		int offset_y = (int) IMG_afternoon_L[1];
    11bc:	00800074 	movhi	r2,1
    11c0:	109c3b84 	addi	r2,r2,28910
    11c4:	1080008b 	ldhu	r2,2(r2)
    11c8:	10bfffcc 	andi	r2,r2,65535
    11cc:	e0bff615 	stw	r2,-40(fp)
		int offset_num_x = (int) IMG_Num0_S[0];
    11d0:	00800384 	movi	r2,14
    11d4:	10bfffcc 	andi	r2,r2,65535
    11d8:	e0bff715 	stw	r2,-36(fp)
		int offset_clone_x = (int) IMG_Clone_S[0];
    11dc:	00800184 	movi	r2,6
    11e0:	10bfffcc 	andi	r2,r2,65535
    11e4:	e0bff815 	stw	r2,-32(fp)

		int hour = ( alarmTime.hour < 25 && alarmTime.hour > 0 ) ? ( alarmTime.hour>12)?alarmTime.hour-12:alarmTime.hour : 0;
    11e8:	e0800217 	ldw	r2,8(fp)
    11ec:	10800648 	cmpgei	r2,r2,25
    11f0:	10000a1e 	bne	r2,zero,121c <VGA_AlarmDraw_S+0x164>
    11f4:	e0800217 	ldw	r2,8(fp)
    11f8:	0080080e 	bge	zero,r2,121c <VGA_AlarmDraw_S+0x164>
    11fc:	e0800217 	ldw	r2,8(fp)
    1200:	10800350 	cmplti	r2,r2,13
    1204:	1000031e 	bne	r2,zero,1214 <VGA_AlarmDraw_S+0x15c>
    1208:	e0800217 	ldw	r2,8(fp)
    120c:	10bffd04 	addi	r2,r2,-12
    1210:	00000306 	br	1220 <VGA_AlarmDraw_S+0x168>
    1214:	e0800217 	ldw	r2,8(fp)
    1218:	00000106 	br	1220 <VGA_AlarmDraw_S+0x168>
    121c:	0005883a 	mov	r2,zero
    1220:	e0bff915 	stw	r2,-28(fp)
		int min = ( alarmTime.min < 60 && alarmTime.min > 0) ? alarmTime.min : 0;
    1224:	e0800317 	ldw	r2,12(fp)
    1228:	10800f08 	cmpgei	r2,r2,60
    122c:	1000041e 	bne	r2,zero,1240 <VGA_AlarmDraw_S+0x188>
    1230:	e0800317 	ldw	r2,12(fp)
    1234:	0080020e 	bge	zero,r2,1240 <VGA_AlarmDraw_S+0x188>
    1238:	e0800317 	ldw	r2,12(fp)
    123c:	00000106 	br	1244 <VGA_AlarmDraw_S+0x18c>
    1240:	0005883a 	mov	r2,zero
    1244:	e0bffa15 	stw	r2,-24(fp)
		int sec = ( alarmTime.sec < 60 && alarmTime.sec > 0) ? alarmTime.sec : 0;
    1248:	e0800417 	ldw	r2,16(fp)
    124c:	10800f08 	cmpgei	r2,r2,60
    1250:	1000041e 	bne	r2,zero,1264 <VGA_AlarmDraw_S+0x1ac>
    1254:	e0800417 	ldw	r2,16(fp)
    1258:	0080020e 	bge	zero,r2,1264 <VGA_AlarmDraw_S+0x1ac>
    125c:	e0800417 	ldw	r2,16(fp)
    1260:	00000106 	br	1268 <VGA_AlarmDraw_S+0x1b0>
    1264:	0005883a 	mov	r2,zero
    1268:	e0bffb15 	stw	r2,-20(fp)

		imageDraw(x, y + offset_y, IMG_Number_S(hour / 10));
    126c:	e0fff417 	ldw	r3,-48(fp)
    1270:	e0bff617 	ldw	r2,-40(fp)
    1274:	18a1883a 	add	r16,r3,r2
    1278:	e0fff917 	ldw	r3,-28(fp)
    127c:	00800284 	movi	r2,10
    1280:	1885283a 	div	r2,r3,r2
    1284:	1009883a 	mov	r4,r2
    1288:	0000f6c0 	call	f6c <IMG_Number_S>
    128c:	100d883a 	mov	r6,r2
    1290:	800b883a 	mov	r5,r16
    1294:	e13ff317 	ldw	r4,-52(fp)
    1298:	00020700 	call	2070 <imageDraw>
		imageDraw(x + offset_num_x, y + offset_y, IMG_Number_S(hour % 10));
    129c:	e0fff317 	ldw	r3,-52(fp)
    12a0:	e0bff717 	ldw	r2,-36(fp)
    12a4:	18a1883a 	add	r16,r3,r2
    12a8:	e0fff417 	ldw	r3,-48(fp)
    12ac:	e0bff617 	ldw	r2,-40(fp)
    12b0:	18a3883a 	add	r17,r3,r2
    12b4:	e0bff917 	ldw	r2,-28(fp)
    12b8:	00c00284 	movi	r3,10
    12bc:	10c7283a 	div	r3,r2,r3
    12c0:	18c002a4 	muli	r3,r3,10
    12c4:	10c5c83a 	sub	r2,r2,r3
    12c8:	1009883a 	mov	r4,r2
    12cc:	0000f6c0 	call	f6c <IMG_Number_S>
    12d0:	100d883a 	mov	r6,r2
    12d4:	880b883a 	mov	r5,r17
    12d8:	8009883a 	mov	r4,r16
    12dc:	00020700 	call	2070 <imageDraw>
		imageDraw(x + (offset_num_x * 2), y + offset_y, IMG_Clone_S);
    12e0:	e0bff717 	ldw	r2,-36(fp)
    12e4:	1085883a 	add	r2,r2,r2
    12e8:	1007883a 	mov	r3,r2
    12ec:	e0bff317 	ldw	r2,-52(fp)
    12f0:	1889883a 	add	r4,r3,r2
    12f4:	e0fff417 	ldw	r3,-48(fp)
    12f8:	e0bff617 	ldw	r2,-40(fp)
    12fc:	1885883a 	add	r2,r3,r2
    1300:	01800074 	movhi	r6,1
    1304:	3198a384 	addi	r6,r6,25230
    1308:	100b883a 	mov	r5,r2
    130c:	00020700 	call	2070 <imageDraw>
		imageDraw(x + (offset_num_x * 2) + offset_clone_x, y + offset_y,IMG_Number_S(min / 10));
    1310:	e0bff717 	ldw	r2,-36(fp)
    1314:	1085883a 	add	r2,r2,r2
    1318:	1007883a 	mov	r3,r2
    131c:	e0bff317 	ldw	r2,-52(fp)
    1320:	1887883a 	add	r3,r3,r2
    1324:	e0bff817 	ldw	r2,-32(fp)
    1328:	18a1883a 	add	r16,r3,r2
    132c:	e0fff417 	ldw	r3,-48(fp)
    1330:	e0bff617 	ldw	r2,-40(fp)
    1334:	18a3883a 	add	r17,r3,r2
    1338:	e0fffa17 	ldw	r3,-24(fp)
    133c:	00800284 	movi	r2,10
    1340:	1885283a 	div	r2,r3,r2
    1344:	1009883a 	mov	r4,r2
    1348:	0000f6c0 	call	f6c <IMG_Number_S>
    134c:	100d883a 	mov	r6,r2
    1350:	880b883a 	mov	r5,r17
    1354:	8009883a 	mov	r4,r16
    1358:	00020700 	call	2070 <imageDraw>
		imageDraw(x + (offset_num_x * 3) + offset_clone_x, y + offset_y,IMG_Number_S(min % 10));
    135c:	e0fff717 	ldw	r3,-36(fp)
    1360:	1805883a 	mov	r2,r3
    1364:	1085883a 	add	r2,r2,r2
    1368:	10c7883a 	add	r3,r2,r3
    136c:	e0bff317 	ldw	r2,-52(fp)
    1370:	1887883a 	add	r3,r3,r2
    1374:	e0bff817 	ldw	r2,-32(fp)
    1378:	18a1883a 	add	r16,r3,r2
    137c:	e0fff417 	ldw	r3,-48(fp)
    1380:	e0bff617 	ldw	r2,-40(fp)
    1384:	18a3883a 	add	r17,r3,r2
    1388:	e0bffa17 	ldw	r2,-24(fp)
    138c:	00c00284 	movi	r3,10
    1390:	10c7283a 	div	r3,r2,r3
    1394:	18c002a4 	muli	r3,r3,10
    1398:	10c5c83a 	sub	r2,r2,r3
    139c:	1009883a 	mov	r4,r2
    13a0:	0000f6c0 	call	f6c <IMG_Number_S>
    13a4:	100d883a 	mov	r6,r2
    13a8:	880b883a 	mov	r5,r17
    13ac:	8009883a 	mov	r4,r16
    13b0:	00020700 	call	2070 <imageDraw>
		imageDraw(x + (offset_num_x * 4) + offset_clone_x, y + offset_y,IMG_Clone_S);
    13b4:	e0bff717 	ldw	r2,-36(fp)
    13b8:	1085883a 	add	r2,r2,r2
    13bc:	1085883a 	add	r2,r2,r2
    13c0:	1007883a 	mov	r3,r2
    13c4:	e0bff317 	ldw	r2,-52(fp)
    13c8:	1887883a 	add	r3,r3,r2
    13cc:	e0bff817 	ldw	r2,-32(fp)
    13d0:	1889883a 	add	r4,r3,r2
    13d4:	e0fff417 	ldw	r3,-48(fp)
    13d8:	e0bff617 	ldw	r2,-40(fp)
    13dc:	1885883a 	add	r2,r3,r2
    13e0:	01800074 	movhi	r6,1
    13e4:	3198a384 	addi	r6,r6,25230
    13e8:	100b883a 	mov	r5,r2
    13ec:	00020700 	call	2070 <imageDraw>
		imageDraw(x + (offset_num_x * 4) + (offset_clone_x * 2), y + offset_y,IMG_Number_S(sec / 10));
    13f0:	e0bff717 	ldw	r2,-36(fp)
    13f4:	1085883a 	add	r2,r2,r2
    13f8:	1085883a 	add	r2,r2,r2
    13fc:	1007883a 	mov	r3,r2
    1400:	e0bff317 	ldw	r2,-52(fp)
    1404:	1887883a 	add	r3,r3,r2
    1408:	e0bff817 	ldw	r2,-32(fp)
    140c:	1085883a 	add	r2,r2,r2
    1410:	18a1883a 	add	r16,r3,r2
    1414:	e0fff417 	ldw	r3,-48(fp)
    1418:	e0bff617 	ldw	r2,-40(fp)
    141c:	18a3883a 	add	r17,r3,r2
    1420:	e0fffb17 	ldw	r3,-20(fp)
    1424:	00800284 	movi	r2,10
    1428:	1885283a 	div	r2,r3,r2
    142c:	1009883a 	mov	r4,r2
    1430:	0000f6c0 	call	f6c <IMG_Number_S>
    1434:	100d883a 	mov	r6,r2
    1438:	880b883a 	mov	r5,r17
    143c:	8009883a 	mov	r4,r16
    1440:	00020700 	call	2070 <imageDraw>
		imageDraw(x + (offset_num_x * 5) + (offset_clone_x * 2), y + offset_y,IMG_Number_S(sec % 10));
    1444:	e0bff717 	ldw	r2,-36(fp)
    1448:	10c00164 	muli	r3,r2,5
    144c:	e0bff317 	ldw	r2,-52(fp)
    1450:	1887883a 	add	r3,r3,r2
    1454:	e0bff817 	ldw	r2,-32(fp)
    1458:	1085883a 	add	r2,r2,r2
    145c:	18a1883a 	add	r16,r3,r2
    1460:	e0fff417 	ldw	r3,-48(fp)
    1464:	e0bff617 	ldw	r2,-40(fp)
    1468:	18a3883a 	add	r17,r3,r2
    146c:	e0bffb17 	ldw	r2,-20(fp)
    1470:	00c00284 	movi	r3,10
    1474:	10c7283a 	div	r3,r2,r3
    1478:	18c002a4 	muli	r3,r3,10
    147c:	10c5c83a 	sub	r2,r2,r3
    1480:	1009883a 	mov	r4,r2
    1484:	0000f6c0 	call	f6c <IMG_Number_S>
    1488:	100d883a 	mov	r6,r2
    148c:	880b883a 	mov	r5,r17
    1490:	8009883a 	mov	r4,r16
    1494:	00020700 	call	2070 <imageDraw>
	}
}
    1498:	0001883a 	nop
    149c:	e6fffe04 	addi	sp,fp,-8
    14a0:	dfc00317 	ldw	ra,12(sp)
    14a4:	df000217 	ldw	fp,8(sp)
    14a8:	dc400117 	ldw	r17,4(sp)
    14ac:	dc000017 	ldw	r16,0(sp)
    14b0:	dec00604 	addi	sp,sp,24
    14b4:	f800283a 	ret

000014b8 <VGA_AlarmDraw_L>:

void VGA_AlarmDraw_L(int drawType, int cursorPos, timeSet alarmTime) {
    14b8:	deffef04 	addi	sp,sp,-68
    14bc:	dfc00e15 	stw	ra,56(sp)
    14c0:	df000d15 	stw	fp,52(sp)
    14c4:	dc400c15 	stw	r17,48(sp)
    14c8:	dc000b15 	stw	r16,44(sp)
    14cc:	df000d04 	addi	fp,sp,52
    14d0:	e13ffc15 	stw	r4,-16(fp)
    14d4:	e17ffd15 	stw	r5,-12(fp)
    14d8:	e1800215 	stw	r6,8(fp)
    14dc:	e1c00315 	stw	r7,12(fp)
	if (VGA_MonitorPower == 1) {
    14e0:	d0a00417 	ldw	r2,-32752(gp)
    14e4:	10800058 	cmpnei	r2,r2,1
    14e8:	1000ef1e 	bne	r2,zero,18a8 <VGA_AlarmDraw_L+0x3f0>
		int x = 0, y = 0, offset_alarm_x = 0;
    14ec:	e03ff315 	stw	zero,-52(fp)
    14f0:	e03ff415 	stw	zero,-48(fp)
    14f4:	e03ff515 	stw	zero,-44(fp)
		if (drawType == 0) { x = 5; y = 5; }
    14f8:	e0bffc17 	ldw	r2,-16(fp)
    14fc:	1000041e 	bne	r2,zero,1510 <VGA_AlarmDraw_L+0x58>
    1500:	00800144 	movi	r2,5
    1504:	e0bff315 	stw	r2,-52(fp)
    1508:	00800144 	movi	r2,5
    150c:	e0bff415 	stw	r2,-48(fp)

		if (VGA_IsAlarmMode != 0) {
    1510:	d0ba7917 	ldw	r2,-5660(gp)
    1514:	10000826 	beq	r2,zero,1538 <VGA_AlarmDraw_L+0x80>
			imageDraw(x, y, IMG_Alarm);
    1518:	01800074 	movhi	r6,1
    151c:	3190e204 	addi	r6,r6,17288
    1520:	e17ff417 	ldw	r5,-48(fp)
    1524:	e13ff317 	ldw	r4,-52(fp)
    1528:	00020700 	call	2070 <imageDraw>
			offset_alarm_x = IMG_Alarm[0];
    152c:	008006c4 	movi	r2,27
    1530:	10bfffcc 	andi	r2,r2,65535
    1534:	e0bff515 	stw	r2,-44(fp)
		}

		imageDraw(x + offset_alarm_x, y, IMG_SetAlarm);
    1538:	e0fff317 	ldw	r3,-52(fp)
    153c:	e0bff517 	ldw	r2,-44(fp)
    1540:	1885883a 	add	r2,r3,r2
    1544:	01800074 	movhi	r6,1
    1548:	318c2204 	addi	r6,r6,12424
    154c:	e17ff417 	ldw	r5,-48(fp)
    1550:	1009883a 	mov	r4,r2
    1554:	00020700 	call	2070 <imageDraw>
		offset_alarm_x += IMG_SetAlarm[0];
    1558:	00801684 	movi	r2,90
    155c:	10bfffcc 	andi	r2,r2,65535
    1560:	e0fff517 	ldw	r3,-44(fp)
    1564:	1885883a 	add	r2,r3,r2
    1568:	e0bff515 	stw	r2,-44(fp)

		if (alarmTime.hour > 12)
    156c:	e0800217 	ldw	r2,8(fp)
    1570:	10800350 	cmplti	r2,r2,13
    1574:	1000091e 	bne	r2,zero,159c <VGA_AlarmDraw_L+0xe4>
			imageDraw(x + offset_alarm_x, y, IMG_afternoon_L);
    1578:	e0fff317 	ldw	r3,-52(fp)
    157c:	e0bff517 	ldw	r2,-44(fp)
    1580:	1885883a 	add	r2,r3,r2
    1584:	01800074 	movhi	r6,1
    1588:	319c3b84 	addi	r6,r6,28910
    158c:	e17ff417 	ldw	r5,-48(fp)
    1590:	1009883a 	mov	r4,r2
    1594:	00020700 	call	2070 <imageDraw>
    1598:	00000806 	br	15bc <VGA_AlarmDraw_L+0x104>
		else
			imageDraw(x + offset_alarm_x, y, IMG_morning_L);
    159c:	e0fff317 	ldw	r3,-52(fp)
    15a0:	e0bff517 	ldw	r2,-44(fp)
    15a4:	1885883a 	add	r2,r3,r2
    15a8:	01800074 	movhi	r6,1
    15ac:	3199f604 	addi	r6,r6,26584
    15b0:	e17ff417 	ldw	r5,-48(fp)
    15b4:	1009883a 	mov	r4,r2
    15b8:	00020700 	call	2070 <imageDraw>

		int offset_y = (int) IMG_afternoon_L[1];
    15bc:	00800074 	movhi	r2,1
    15c0:	109c3b84 	addi	r2,r2,28910
    15c4:	1080008b 	ldhu	r2,2(r2)
    15c8:	10bfffcc 	andi	r2,r2,65535
    15cc:	e0bff615 	stw	r2,-40(fp)
		int offset_num_x = (int) IMG_Num0_L[0];
    15d0:	00800074 	movhi	r2,1
    15d4:	109e8104 	addi	r2,r2,31236
    15d8:	1080000b 	ldhu	r2,0(r2)
    15dc:	10bfffcc 	andi	r2,r2,65535
    15e0:	e0bff715 	stw	r2,-36(fp)
		int offset_clone_x = (int) IMG_Clone_L[0];
    15e4:	008000b4 	movhi	r2,2
    15e8:	10ac4b04 	addi	r2,r2,-20180
    15ec:	1080000b 	ldhu	r2,0(r2)
    15f0:	10bfffcc 	andi	r2,r2,65535
    15f4:	e0bff815 	stw	r2,-32(fp)

		int hour = ( alarmTime.hour < 25 && alarmTime.hour > 0 ) ? ( alarmTime.hour>12)?alarmTime.hour-12:alarmTime.hour : 0;
    15f8:	e0800217 	ldw	r2,8(fp)
    15fc:	10800648 	cmpgei	r2,r2,25
    1600:	10000a1e 	bne	r2,zero,162c <VGA_AlarmDraw_L+0x174>
    1604:	e0800217 	ldw	r2,8(fp)
    1608:	0080080e 	bge	zero,r2,162c <VGA_AlarmDraw_L+0x174>
    160c:	e0800217 	ldw	r2,8(fp)
    1610:	10800350 	cmplti	r2,r2,13
    1614:	1000031e 	bne	r2,zero,1624 <VGA_AlarmDraw_L+0x16c>
    1618:	e0800217 	ldw	r2,8(fp)
    161c:	10bffd04 	addi	r2,r2,-12
    1620:	00000306 	br	1630 <VGA_AlarmDraw_L+0x178>
    1624:	e0800217 	ldw	r2,8(fp)
    1628:	00000106 	br	1630 <VGA_AlarmDraw_L+0x178>
    162c:	0005883a 	mov	r2,zero
    1630:	e0bff915 	stw	r2,-28(fp)
		int min = ( alarmTime.min < 60 && alarmTime.min > 0) ? alarmTime.min : 0;
    1634:	e0800317 	ldw	r2,12(fp)
    1638:	10800f08 	cmpgei	r2,r2,60
    163c:	1000041e 	bne	r2,zero,1650 <VGA_AlarmDraw_L+0x198>
    1640:	e0800317 	ldw	r2,12(fp)
    1644:	0080020e 	bge	zero,r2,1650 <VGA_AlarmDraw_L+0x198>
    1648:	e0800317 	ldw	r2,12(fp)
    164c:	00000106 	br	1654 <VGA_AlarmDraw_L+0x19c>
    1650:	0005883a 	mov	r2,zero
    1654:	e0bffa15 	stw	r2,-24(fp)
		int sec = ( alarmTime.sec < 60 && alarmTime.sec > 0) ? alarmTime.sec : 0;
    1658:	e0800417 	ldw	r2,16(fp)
    165c:	10800f08 	cmpgei	r2,r2,60
    1660:	1000041e 	bne	r2,zero,1674 <VGA_AlarmDraw_L+0x1bc>
    1664:	e0800417 	ldw	r2,16(fp)
    1668:	0080020e 	bge	zero,r2,1674 <VGA_AlarmDraw_L+0x1bc>
    166c:	e0800417 	ldw	r2,16(fp)
    1670:	00000106 	br	1678 <VGA_AlarmDraw_L+0x1c0>
    1674:	0005883a 	mov	r2,zero
    1678:	e0bffb15 	stw	r2,-20(fp)

		imageDraw(x, y + offset_y, IMG_Number_L(hour / 10));
    167c:	e0fff417 	ldw	r3,-48(fp)
    1680:	e0bff617 	ldw	r2,-40(fp)
    1684:	18a1883a 	add	r16,r3,r2
    1688:	e0fff917 	ldw	r3,-28(fp)
    168c:	00800284 	movi	r2,10
    1690:	1885283a 	div	r2,r3,r2
    1694:	1009883a 	mov	r4,r2
    1698:	0000e7c0 	call	e7c <IMG_Number_L>
    169c:	100d883a 	mov	r6,r2
    16a0:	800b883a 	mov	r5,r16
    16a4:	e13ff317 	ldw	r4,-52(fp)
    16a8:	00020700 	call	2070 <imageDraw>
		imageDraw(x + offset_num_x, y + offset_y, IMG_Number_L(hour % 10));
    16ac:	e0fff317 	ldw	r3,-52(fp)
    16b0:	e0bff717 	ldw	r2,-36(fp)
    16b4:	18a1883a 	add	r16,r3,r2
    16b8:	e0fff417 	ldw	r3,-48(fp)
    16bc:	e0bff617 	ldw	r2,-40(fp)
    16c0:	18a3883a 	add	r17,r3,r2
    16c4:	e0bff917 	ldw	r2,-28(fp)
    16c8:	00c00284 	movi	r3,10
    16cc:	10c7283a 	div	r3,r2,r3
    16d0:	18c002a4 	muli	r3,r3,10
    16d4:	10c5c83a 	sub	r2,r2,r3
    16d8:	1009883a 	mov	r4,r2
    16dc:	0000e7c0 	call	e7c <IMG_Number_L>
    16e0:	100d883a 	mov	r6,r2
    16e4:	880b883a 	mov	r5,r17
    16e8:	8009883a 	mov	r4,r16
    16ec:	00020700 	call	2070 <imageDraw>
		imageDraw(x + (offset_num_x * 2), y + offset_y, IMG_Clone_L);
    16f0:	e0bff717 	ldw	r2,-36(fp)
    16f4:	1085883a 	add	r2,r2,r2
    16f8:	1007883a 	mov	r3,r2
    16fc:	e0bff317 	ldw	r2,-52(fp)
    1700:	1889883a 	add	r4,r3,r2
    1704:	e0fff417 	ldw	r3,-48(fp)
    1708:	e0bff617 	ldw	r2,-40(fp)
    170c:	1885883a 	add	r2,r3,r2
    1710:	018000b4 	movhi	r6,2
    1714:	31ac4b04 	addi	r6,r6,-20180
    1718:	100b883a 	mov	r5,r2
    171c:	00020700 	call	2070 <imageDraw>
		imageDraw(x + (offset_num_x * 2) + offset_clone_x, y + offset_y,IMG_Number_L(min / 10));
    1720:	e0bff717 	ldw	r2,-36(fp)
    1724:	1085883a 	add	r2,r2,r2
    1728:	1007883a 	mov	r3,r2
    172c:	e0bff317 	ldw	r2,-52(fp)
    1730:	1887883a 	add	r3,r3,r2
    1734:	e0bff817 	ldw	r2,-32(fp)
    1738:	18a1883a 	add	r16,r3,r2
    173c:	e0fff417 	ldw	r3,-48(fp)
    1740:	e0bff617 	ldw	r2,-40(fp)
    1744:	18a3883a 	add	r17,r3,r2
    1748:	e0fffa17 	ldw	r3,-24(fp)
    174c:	00800284 	movi	r2,10
    1750:	1885283a 	div	r2,r3,r2
    1754:	1009883a 	mov	r4,r2
    1758:	0000e7c0 	call	e7c <IMG_Number_L>
    175c:	100d883a 	mov	r6,r2
    1760:	880b883a 	mov	r5,r17
    1764:	8009883a 	mov	r4,r16
    1768:	00020700 	call	2070 <imageDraw>
		imageDraw(x + (offset_num_x * 3) + offset_clone_x, y + offset_y,IMG_Number_L(min % 10));
    176c:	e0fff717 	ldw	r3,-36(fp)
    1770:	1805883a 	mov	r2,r3
    1774:	1085883a 	add	r2,r2,r2
    1778:	10c7883a 	add	r3,r2,r3
    177c:	e0bff317 	ldw	r2,-52(fp)
    1780:	1887883a 	add	r3,r3,r2
    1784:	e0bff817 	ldw	r2,-32(fp)
    1788:	18a1883a 	add	r16,r3,r2
    178c:	e0fff417 	ldw	r3,-48(fp)
    1790:	e0bff617 	ldw	r2,-40(fp)
    1794:	18a3883a 	add	r17,r3,r2
    1798:	e0bffa17 	ldw	r2,-24(fp)
    179c:	00c00284 	movi	r3,10
    17a0:	10c7283a 	div	r3,r2,r3
    17a4:	18c002a4 	muli	r3,r3,10
    17a8:	10c5c83a 	sub	r2,r2,r3
    17ac:	1009883a 	mov	r4,r2
    17b0:	0000e7c0 	call	e7c <IMG_Number_L>
    17b4:	100d883a 	mov	r6,r2
    17b8:	880b883a 	mov	r5,r17
    17bc:	8009883a 	mov	r4,r16
    17c0:	00020700 	call	2070 <imageDraw>
		imageDraw(x + (offset_num_x * 4) + offset_clone_x, y + offset_y,IMG_Clone_L);
    17c4:	e0bff717 	ldw	r2,-36(fp)
    17c8:	1085883a 	add	r2,r2,r2
    17cc:	1085883a 	add	r2,r2,r2
    17d0:	1007883a 	mov	r3,r2
    17d4:	e0bff317 	ldw	r2,-52(fp)
    17d8:	1887883a 	add	r3,r3,r2
    17dc:	e0bff817 	ldw	r2,-32(fp)
    17e0:	1889883a 	add	r4,r3,r2
    17e4:	e0fff417 	ldw	r3,-48(fp)
    17e8:	e0bff617 	ldw	r2,-40(fp)
    17ec:	1885883a 	add	r2,r3,r2
    17f0:	018000b4 	movhi	r6,2
    17f4:	31ac4b04 	addi	r6,r6,-20180
    17f8:	100b883a 	mov	r5,r2
    17fc:	00020700 	call	2070 <imageDraw>
		imageDraw(x + (offset_num_x * 4) + (offset_clone_x * 2), y + offset_y,IMG_Number_L(sec / 10));
    1800:	e0bff717 	ldw	r2,-36(fp)
    1804:	1085883a 	add	r2,r2,r2
    1808:	1085883a 	add	r2,r2,r2
    180c:	1007883a 	mov	r3,r2
    1810:	e0bff317 	ldw	r2,-52(fp)
    1814:	1887883a 	add	r3,r3,r2
    1818:	e0bff817 	ldw	r2,-32(fp)
    181c:	1085883a 	add	r2,r2,r2
    1820:	18a1883a 	add	r16,r3,r2
    1824:	e0fff417 	ldw	r3,-48(fp)
    1828:	e0bff617 	ldw	r2,-40(fp)
    182c:	18a3883a 	add	r17,r3,r2
    1830:	e0fffb17 	ldw	r3,-20(fp)
    1834:	00800284 	movi	r2,10
    1838:	1885283a 	div	r2,r3,r2
    183c:	1009883a 	mov	r4,r2
    1840:	0000e7c0 	call	e7c <IMG_Number_L>
    1844:	100d883a 	mov	r6,r2
    1848:	880b883a 	mov	r5,r17
    184c:	8009883a 	mov	r4,r16
    1850:	00020700 	call	2070 <imageDraw>
		imageDraw(x + (offset_num_x * 5) + (offset_clone_x * 2), y + offset_y,IMG_Number_L(sec % 10));
    1854:	e0bff717 	ldw	r2,-36(fp)
    1858:	10c00164 	muli	r3,r2,5
    185c:	e0bff317 	ldw	r2,-52(fp)
    1860:	1887883a 	add	r3,r3,r2
    1864:	e0bff817 	ldw	r2,-32(fp)
    1868:	1085883a 	add	r2,r2,r2
    186c:	18a1883a 	add	r16,r3,r2
    1870:	e0fff417 	ldw	r3,-48(fp)
    1874:	e0bff617 	ldw	r2,-40(fp)
    1878:	18a3883a 	add	r17,r3,r2
    187c:	e0bffb17 	ldw	r2,-20(fp)
    1880:	00c00284 	movi	r3,10
    1884:	10c7283a 	div	r3,r2,r3
    1888:	18c002a4 	muli	r3,r3,10
    188c:	10c5c83a 	sub	r2,r2,r3
    1890:	1009883a 	mov	r4,r2
    1894:	0000e7c0 	call	e7c <IMG_Number_L>
    1898:	100d883a 	mov	r6,r2
    189c:	880b883a 	mov	r5,r17
    18a0:	8009883a 	mov	r4,r16
    18a4:	00020700 	call	2070 <imageDraw>
	}
}
    18a8:	0001883a 	nop
    18ac:	e6fffe04 	addi	sp,fp,-8
    18b0:	dfc00317 	ldw	ra,12(sp)
    18b4:	df000217 	ldw	fp,8(sp)
    18b8:	dc400117 	ldw	r17,4(sp)
    18bc:	dc000017 	ldw	r16,0(sp)
    18c0:	dec00604 	addi	sp,sp,24
    18c4:	f800283a 	ret

000018c8 <VGA_ClockDraw_L>:

void VGA_ClockDraw_L(int drawType, int cursorPos, timeSet currentTime) {
    18c8:	deffef04 	addi	sp,sp,-68
    18cc:	dfc00e15 	stw	ra,56(sp)
    18d0:	df000d15 	stw	fp,52(sp)
    18d4:	dc400c15 	stw	r17,48(sp)
    18d8:	dc000b15 	stw	r16,44(sp)
    18dc:	df000d04 	addi	fp,sp,52
    18e0:	e13ffc15 	stw	r4,-16(fp)
    18e4:	e17ffd15 	stw	r5,-12(fp)
    18e8:	e1800215 	stw	r6,8(fp)
    18ec:	e1c00315 	stw	r7,12(fp)
	if (VGA_MonitorPower == 1) {
    18f0:	d0a00417 	ldw	r2,-32752(gp)
    18f4:	10800058 	cmpnei	r2,r2,1
    18f8:	1000e21e 	bne	r2,zero,1c84 <VGA_ClockDraw_L+0x3bc>
		int x=0, y=0, offset_alarm_x=0;
    18fc:	e03ff315 	stw	zero,-52(fp)
    1900:	e03ff415 	stw	zero,-48(fp)
    1904:	e03ff515 	stw	zero,-44(fp)
		if (drawType == 0) { x = 5; y = 5; }
    1908:	e0bffc17 	ldw	r2,-16(fp)
    190c:	1000041e 	bne	r2,zero,1920 <VGA_ClockDraw_L+0x58>
    1910:	00800144 	movi	r2,5
    1914:	e0bff315 	stw	r2,-52(fp)
    1918:	00800144 	movi	r2,5
    191c:	e0bff415 	stw	r2,-48(fp)

		if(VGA_IsAlarmMode != 0) {
    1920:	d0ba7917 	ldw	r2,-5660(gp)
    1924:	10000826 	beq	r2,zero,1948 <VGA_ClockDraw_L+0x80>
			imageDraw(x,y,IMG_Alarm);
    1928:	01800074 	movhi	r6,1
    192c:	3190e204 	addi	r6,r6,17288
    1930:	e17ff417 	ldw	r5,-48(fp)
    1934:	e13ff317 	ldw	r4,-52(fp)
    1938:	00020700 	call	2070 <imageDraw>
			offset_alarm_x = IMG_Alarm[0];
    193c:	008006c4 	movi	r2,27
    1940:	10bfffcc 	andi	r2,r2,65535
    1944:	e0bff515 	stw	r2,-44(fp)
		}

		if (currentTime.hour > 12)
    1948:	e0800217 	ldw	r2,8(fp)
    194c:	10800350 	cmplti	r2,r2,13
    1950:	1000091e 	bne	r2,zero,1978 <VGA_ClockDraw_L+0xb0>
			imageDraw(x+offset_alarm_x ,y,IMG_afternoon_L);
    1954:	e0fff317 	ldw	r3,-52(fp)
    1958:	e0bff517 	ldw	r2,-44(fp)
    195c:	1885883a 	add	r2,r3,r2
    1960:	01800074 	movhi	r6,1
    1964:	319c3b84 	addi	r6,r6,28910
    1968:	e17ff417 	ldw	r5,-48(fp)
    196c:	1009883a 	mov	r4,r2
    1970:	00020700 	call	2070 <imageDraw>
    1974:	00000806 	br	1998 <VGA_ClockDraw_L+0xd0>
		else imageDraw(x+offset_alarm_x,y,IMG_morning_L);
    1978:	e0fff317 	ldw	r3,-52(fp)
    197c:	e0bff517 	ldw	r2,-44(fp)
    1980:	1885883a 	add	r2,r3,r2
    1984:	01800074 	movhi	r6,1
    1988:	3199f604 	addi	r6,r6,26584
    198c:	e17ff417 	ldw	r5,-48(fp)
    1990:	1009883a 	mov	r4,r2
    1994:	00020700 	call	2070 <imageDraw>

		int offset_y = (int)IMG_afternoon_L[1];
    1998:	00800074 	movhi	r2,1
    199c:	109c3b84 	addi	r2,r2,28910
    19a0:	1080008b 	ldhu	r2,2(r2)
    19a4:	10bfffcc 	andi	r2,r2,65535
    19a8:	e0bff615 	stw	r2,-40(fp)
		int offset_num_x = (int)IMG_Num0_L[0];
    19ac:	00800074 	movhi	r2,1
    19b0:	109e8104 	addi	r2,r2,31236
    19b4:	1080000b 	ldhu	r2,0(r2)
    19b8:	10bfffcc 	andi	r2,r2,65535
    19bc:	e0bff715 	stw	r2,-36(fp)
		int offset_clone_x = (int)IMG_Clone_L[0];
    19c0:	008000b4 	movhi	r2,2
    19c4:	10ac4b04 	addi	r2,r2,-20180
    19c8:	1080000b 	ldhu	r2,0(r2)
    19cc:	10bfffcc 	andi	r2,r2,65535
    19d0:	e0bff815 	stw	r2,-32(fp)

		int hour = ( currentTime.hour < 25 && currentTime.hour > 0 ) ? ( currentTime.hour>12)?currentTime.hour-12:currentTime.hour : 0;
    19d4:	e0800217 	ldw	r2,8(fp)
    19d8:	10800648 	cmpgei	r2,r2,25
    19dc:	10000a1e 	bne	r2,zero,1a08 <VGA_ClockDraw_L+0x140>
    19e0:	e0800217 	ldw	r2,8(fp)
    19e4:	0080080e 	bge	zero,r2,1a08 <VGA_ClockDraw_L+0x140>
    19e8:	e0800217 	ldw	r2,8(fp)
    19ec:	10800350 	cmplti	r2,r2,13
    19f0:	1000031e 	bne	r2,zero,1a00 <VGA_ClockDraw_L+0x138>
    19f4:	e0800217 	ldw	r2,8(fp)
    19f8:	10bffd04 	addi	r2,r2,-12
    19fc:	00000306 	br	1a0c <VGA_ClockDraw_L+0x144>
    1a00:	e0800217 	ldw	r2,8(fp)
    1a04:	00000106 	br	1a0c <VGA_ClockDraw_L+0x144>
    1a08:	0005883a 	mov	r2,zero
    1a0c:	e0bff915 	stw	r2,-28(fp)
		int min = ( currentTime.min < 60 && currentTime.min > 0) ? currentTime.min : 0;
    1a10:	e0800317 	ldw	r2,12(fp)
    1a14:	10800f08 	cmpgei	r2,r2,60
    1a18:	1000041e 	bne	r2,zero,1a2c <VGA_ClockDraw_L+0x164>
    1a1c:	e0800317 	ldw	r2,12(fp)
    1a20:	0080020e 	bge	zero,r2,1a2c <VGA_ClockDraw_L+0x164>
    1a24:	e0800317 	ldw	r2,12(fp)
    1a28:	00000106 	br	1a30 <VGA_ClockDraw_L+0x168>
    1a2c:	0005883a 	mov	r2,zero
    1a30:	e0bffa15 	stw	r2,-24(fp)
		int sec = ( currentTime.sec < 60 && currentTime.sec > 0) ? currentTime.sec : 0;
    1a34:	e0800417 	ldw	r2,16(fp)
    1a38:	10800f08 	cmpgei	r2,r2,60
    1a3c:	1000041e 	bne	r2,zero,1a50 <VGA_ClockDraw_L+0x188>
    1a40:	e0800417 	ldw	r2,16(fp)
    1a44:	0080020e 	bge	zero,r2,1a50 <VGA_ClockDraw_L+0x188>
    1a48:	e0800417 	ldw	r2,16(fp)
    1a4c:	00000106 	br	1a54 <VGA_ClockDraw_L+0x18c>
    1a50:	0005883a 	mov	r2,zero
    1a54:	e0bffb15 	stw	r2,-20(fp)

		imageDraw(x,y+offset_y,IMG_Number_L(hour/10));
    1a58:	e0fff417 	ldw	r3,-48(fp)
    1a5c:	e0bff617 	ldw	r2,-40(fp)
    1a60:	18a1883a 	add	r16,r3,r2
    1a64:	e0fff917 	ldw	r3,-28(fp)
    1a68:	00800284 	movi	r2,10
    1a6c:	1885283a 	div	r2,r3,r2
    1a70:	1009883a 	mov	r4,r2
    1a74:	0000e7c0 	call	e7c <IMG_Number_L>
    1a78:	100d883a 	mov	r6,r2
    1a7c:	800b883a 	mov	r5,r16
    1a80:	e13ff317 	ldw	r4,-52(fp)
    1a84:	00020700 	call	2070 <imageDraw>
		imageDraw(x+offset_num_x,y+offset_y,IMG_Number_L(hour%10));
    1a88:	e0fff317 	ldw	r3,-52(fp)
    1a8c:	e0bff717 	ldw	r2,-36(fp)
    1a90:	18a1883a 	add	r16,r3,r2
    1a94:	e0fff417 	ldw	r3,-48(fp)
    1a98:	e0bff617 	ldw	r2,-40(fp)
    1a9c:	18a3883a 	add	r17,r3,r2
    1aa0:	e0bff917 	ldw	r2,-28(fp)
    1aa4:	00c00284 	movi	r3,10
    1aa8:	10c7283a 	div	r3,r2,r3
    1aac:	18c002a4 	muli	r3,r3,10
    1ab0:	10c5c83a 	sub	r2,r2,r3
    1ab4:	1009883a 	mov	r4,r2
    1ab8:	0000e7c0 	call	e7c <IMG_Number_L>
    1abc:	100d883a 	mov	r6,r2
    1ac0:	880b883a 	mov	r5,r17
    1ac4:	8009883a 	mov	r4,r16
    1ac8:	00020700 	call	2070 <imageDraw>
		imageDraw(x+(offset_num_x*2),y+offset_y,IMG_Clone_L);
    1acc:	e0bff717 	ldw	r2,-36(fp)
    1ad0:	1085883a 	add	r2,r2,r2
    1ad4:	1007883a 	mov	r3,r2
    1ad8:	e0bff317 	ldw	r2,-52(fp)
    1adc:	1889883a 	add	r4,r3,r2
    1ae0:	e0fff417 	ldw	r3,-48(fp)
    1ae4:	e0bff617 	ldw	r2,-40(fp)
    1ae8:	1885883a 	add	r2,r3,r2
    1aec:	018000b4 	movhi	r6,2
    1af0:	31ac4b04 	addi	r6,r6,-20180
    1af4:	100b883a 	mov	r5,r2
    1af8:	00020700 	call	2070 <imageDraw>
		imageDraw(x+(offset_num_x*2)+offset_clone_x,y+offset_y,IMG_Number_L(min/10));
    1afc:	e0bff717 	ldw	r2,-36(fp)
    1b00:	1085883a 	add	r2,r2,r2
    1b04:	1007883a 	mov	r3,r2
    1b08:	e0bff317 	ldw	r2,-52(fp)
    1b0c:	1887883a 	add	r3,r3,r2
    1b10:	e0bff817 	ldw	r2,-32(fp)
    1b14:	18a1883a 	add	r16,r3,r2
    1b18:	e0fff417 	ldw	r3,-48(fp)
    1b1c:	e0bff617 	ldw	r2,-40(fp)
    1b20:	18a3883a 	add	r17,r3,r2
    1b24:	e0fffa17 	ldw	r3,-24(fp)
    1b28:	00800284 	movi	r2,10
    1b2c:	1885283a 	div	r2,r3,r2
    1b30:	1009883a 	mov	r4,r2
    1b34:	0000e7c0 	call	e7c <IMG_Number_L>
    1b38:	100d883a 	mov	r6,r2
    1b3c:	880b883a 	mov	r5,r17
    1b40:	8009883a 	mov	r4,r16
    1b44:	00020700 	call	2070 <imageDraw>
		imageDraw(x+(offset_num_x*3)+offset_clone_x,y+offset_y,IMG_Number_L(min%10));
    1b48:	e0fff717 	ldw	r3,-36(fp)
    1b4c:	1805883a 	mov	r2,r3
    1b50:	1085883a 	add	r2,r2,r2
    1b54:	10c7883a 	add	r3,r2,r3
    1b58:	e0bff317 	ldw	r2,-52(fp)
    1b5c:	1887883a 	add	r3,r3,r2
    1b60:	e0bff817 	ldw	r2,-32(fp)
    1b64:	18a1883a 	add	r16,r3,r2
    1b68:	e0fff417 	ldw	r3,-48(fp)
    1b6c:	e0bff617 	ldw	r2,-40(fp)
    1b70:	18a3883a 	add	r17,r3,r2
    1b74:	e0bffa17 	ldw	r2,-24(fp)
    1b78:	00c00284 	movi	r3,10
    1b7c:	10c7283a 	div	r3,r2,r3
    1b80:	18c002a4 	muli	r3,r3,10
    1b84:	10c5c83a 	sub	r2,r2,r3
    1b88:	1009883a 	mov	r4,r2
    1b8c:	0000e7c0 	call	e7c <IMG_Number_L>
    1b90:	100d883a 	mov	r6,r2
    1b94:	880b883a 	mov	r5,r17
    1b98:	8009883a 	mov	r4,r16
    1b9c:	00020700 	call	2070 <imageDraw>
		imageDraw(x+(offset_num_x*4)+offset_clone_x,y+offset_y,IMG_Clone_L);
    1ba0:	e0bff717 	ldw	r2,-36(fp)
    1ba4:	1085883a 	add	r2,r2,r2
    1ba8:	1085883a 	add	r2,r2,r2
    1bac:	1007883a 	mov	r3,r2
    1bb0:	e0bff317 	ldw	r2,-52(fp)
    1bb4:	1887883a 	add	r3,r3,r2
    1bb8:	e0bff817 	ldw	r2,-32(fp)
    1bbc:	1889883a 	add	r4,r3,r2
    1bc0:	e0fff417 	ldw	r3,-48(fp)
    1bc4:	e0bff617 	ldw	r2,-40(fp)
    1bc8:	1885883a 	add	r2,r3,r2
    1bcc:	018000b4 	movhi	r6,2
    1bd0:	31ac4b04 	addi	r6,r6,-20180
    1bd4:	100b883a 	mov	r5,r2
    1bd8:	00020700 	call	2070 <imageDraw>
		imageDraw(x+(offset_num_x*4)+(offset_clone_x*2),y+offset_y,IMG_Number_L(sec/10));
    1bdc:	e0bff717 	ldw	r2,-36(fp)
    1be0:	1085883a 	add	r2,r2,r2
    1be4:	1085883a 	add	r2,r2,r2
    1be8:	1007883a 	mov	r3,r2
    1bec:	e0bff317 	ldw	r2,-52(fp)
    1bf0:	1887883a 	add	r3,r3,r2
    1bf4:	e0bff817 	ldw	r2,-32(fp)
    1bf8:	1085883a 	add	r2,r2,r2
    1bfc:	18a1883a 	add	r16,r3,r2
    1c00:	e0fff417 	ldw	r3,-48(fp)
    1c04:	e0bff617 	ldw	r2,-40(fp)
    1c08:	18a3883a 	add	r17,r3,r2
    1c0c:	e0fffb17 	ldw	r3,-20(fp)
    1c10:	00800284 	movi	r2,10
    1c14:	1885283a 	div	r2,r3,r2
    1c18:	1009883a 	mov	r4,r2
    1c1c:	0000e7c0 	call	e7c <IMG_Number_L>
    1c20:	100d883a 	mov	r6,r2
    1c24:	880b883a 	mov	r5,r17
    1c28:	8009883a 	mov	r4,r16
    1c2c:	00020700 	call	2070 <imageDraw>
		imageDraw(x+(offset_num_x*5)+(offset_clone_x*2),y+offset_y,IMG_Number_L(sec%10));
    1c30:	e0bff717 	ldw	r2,-36(fp)
    1c34:	10c00164 	muli	r3,r2,5
    1c38:	e0bff317 	ldw	r2,-52(fp)
    1c3c:	1887883a 	add	r3,r3,r2
    1c40:	e0bff817 	ldw	r2,-32(fp)
    1c44:	1085883a 	add	r2,r2,r2
    1c48:	18a1883a 	add	r16,r3,r2
    1c4c:	e0fff417 	ldw	r3,-48(fp)
    1c50:	e0bff617 	ldw	r2,-40(fp)
    1c54:	18a3883a 	add	r17,r3,r2
    1c58:	e0bffb17 	ldw	r2,-20(fp)
    1c5c:	00c00284 	movi	r3,10
    1c60:	10c7283a 	div	r3,r2,r3
    1c64:	18c002a4 	muli	r3,r3,10
    1c68:	10c5c83a 	sub	r2,r2,r3
    1c6c:	1009883a 	mov	r4,r2
    1c70:	0000e7c0 	call	e7c <IMG_Number_L>
    1c74:	100d883a 	mov	r6,r2
    1c78:	880b883a 	mov	r5,r17
    1c7c:	8009883a 	mov	r4,r16
    1c80:	00020700 	call	2070 <imageDraw>
	}
}
    1c84:	0001883a 	nop
    1c88:	e6fffe04 	addi	sp,fp,-8
    1c8c:	dfc00317 	ldw	ra,12(sp)
    1c90:	df000217 	ldw	fp,8(sp)
    1c94:	dc400117 	ldw	r17,4(sp)
    1c98:	dc000017 	ldw	r16,0(sp)
    1c9c:	dec00604 	addi	sp,sp,24
    1ca0:	f800283a 	ret

00001ca4 <VGA_ClockDraw_S>:

void VGA_ClockDraw_S(int drawType, int cursorPos, timeSet currentTime) {
    1ca4:	deffef04 	addi	sp,sp,-68
    1ca8:	dfc00e15 	stw	ra,56(sp)
    1cac:	df000d15 	stw	fp,52(sp)
    1cb0:	dc400c15 	stw	r17,48(sp)
    1cb4:	dc000b15 	stw	r16,44(sp)
    1cb8:	df000d04 	addi	fp,sp,52
    1cbc:	e13ffc15 	stw	r4,-16(fp)
    1cc0:	e17ffd15 	stw	r5,-12(fp)
    1cc4:	e1800215 	stw	r6,8(fp)
    1cc8:	e1c00315 	stw	r7,12(fp)
	if (VGA_MonitorPower == 1) {
    1ccc:	d0a00417 	ldw	r2,-32752(gp)
    1cd0:	10800058 	cmpnei	r2,r2,1
    1cd4:	1000de1e 	bne	r2,zero,2050 <VGA_ClockDraw_S+0x3ac>
		int x=0, y=0, offset_alarm_x=0;
    1cd8:	e03ff315 	stw	zero,-52(fp)
    1cdc:	e03ff415 	stw	zero,-48(fp)
    1ce0:	e03ff515 	stw	zero,-44(fp)
		if (drawType == 0) { x = 5; y = 5; }
    1ce4:	e0bffc17 	ldw	r2,-16(fp)
    1ce8:	1000041e 	bne	r2,zero,1cfc <VGA_ClockDraw_S+0x58>
    1cec:	00800144 	movi	r2,5
    1cf0:	e0bff315 	stw	r2,-52(fp)
    1cf4:	00800144 	movi	r2,5
    1cf8:	e0bff415 	stw	r2,-48(fp)

		if(VGA_IsAlarmMode != 0) {
    1cfc:	d0ba7917 	ldw	r2,-5660(gp)
    1d00:	10000826 	beq	r2,zero,1d24 <VGA_ClockDraw_S+0x80>
			imageDraw(x,y,IMG_Alarm);
    1d04:	01800074 	movhi	r6,1
    1d08:	3190e204 	addi	r6,r6,17288
    1d0c:	e17ff417 	ldw	r5,-48(fp)
    1d10:	e13ff317 	ldw	r4,-52(fp)
    1d14:	00020700 	call	2070 <imageDraw>
			offset_alarm_x = IMG_Alarm[0];
    1d18:	008006c4 	movi	r2,27
    1d1c:	10bfffcc 	andi	r2,r2,65535
    1d20:	e0bff515 	stw	r2,-44(fp)
		}

		if (currentTime.hour > 12)
    1d24:	e0800217 	ldw	r2,8(fp)
    1d28:	10800350 	cmplti	r2,r2,13
    1d2c:	1000091e 	bne	r2,zero,1d54 <VGA_ClockDraw_S+0xb0>
			imageDraw(x+offset_alarm_x ,y,IMG_afternoon_L);
    1d30:	e0fff317 	ldw	r3,-52(fp)
    1d34:	e0bff517 	ldw	r2,-44(fp)
    1d38:	1885883a 	add	r2,r3,r2
    1d3c:	01800074 	movhi	r6,1
    1d40:	319c3b84 	addi	r6,r6,28910
    1d44:	e17ff417 	ldw	r5,-48(fp)
    1d48:	1009883a 	mov	r4,r2
    1d4c:	00020700 	call	2070 <imageDraw>
    1d50:	00000806 	br	1d74 <VGA_ClockDraw_S+0xd0>
		else imageDraw(x+offset_alarm_x,y,IMG_morning_L);
    1d54:	e0fff317 	ldw	r3,-52(fp)
    1d58:	e0bff517 	ldw	r2,-44(fp)
    1d5c:	1885883a 	add	r2,r3,r2
    1d60:	01800074 	movhi	r6,1
    1d64:	3199f604 	addi	r6,r6,26584
    1d68:	e17ff417 	ldw	r5,-48(fp)
    1d6c:	1009883a 	mov	r4,r2
    1d70:	00020700 	call	2070 <imageDraw>

		int offset_y = (int)IMG_afternoon_L[1];
    1d74:	00800074 	movhi	r2,1
    1d78:	109c3b84 	addi	r2,r2,28910
    1d7c:	1080008b 	ldhu	r2,2(r2)
    1d80:	10bfffcc 	andi	r2,r2,65535
    1d84:	e0bff615 	stw	r2,-40(fp)
		int offset_num_x = (int)IMG_Num0_S[0];
    1d88:	00800384 	movi	r2,14
    1d8c:	10bfffcc 	andi	r2,r2,65535
    1d90:	e0bff715 	stw	r2,-36(fp)
		int offset_clone_x = (int)IMG_Clone_S[0];
    1d94:	00800184 	movi	r2,6
    1d98:	10bfffcc 	andi	r2,r2,65535
    1d9c:	e0bff815 	stw	r2,-32(fp)

		int hour = ( currentTime.hour < 25 && currentTime.hour > 0 ) ? ( currentTime.hour>12)?currentTime.hour-12:currentTime.hour : 0;
    1da0:	e0800217 	ldw	r2,8(fp)
    1da4:	10800648 	cmpgei	r2,r2,25
    1da8:	10000a1e 	bne	r2,zero,1dd4 <VGA_ClockDraw_S+0x130>
    1dac:	e0800217 	ldw	r2,8(fp)
    1db0:	0080080e 	bge	zero,r2,1dd4 <VGA_ClockDraw_S+0x130>
    1db4:	e0800217 	ldw	r2,8(fp)
    1db8:	10800350 	cmplti	r2,r2,13
    1dbc:	1000031e 	bne	r2,zero,1dcc <VGA_ClockDraw_S+0x128>
    1dc0:	e0800217 	ldw	r2,8(fp)
    1dc4:	10bffd04 	addi	r2,r2,-12
    1dc8:	00000306 	br	1dd8 <VGA_ClockDraw_S+0x134>
    1dcc:	e0800217 	ldw	r2,8(fp)
    1dd0:	00000106 	br	1dd8 <VGA_ClockDraw_S+0x134>
    1dd4:	0005883a 	mov	r2,zero
    1dd8:	e0bff915 	stw	r2,-28(fp)
		int min = ( currentTime.min < 60 && currentTime.min > 0) ? currentTime.min : 0;
    1ddc:	e0800317 	ldw	r2,12(fp)
    1de0:	10800f08 	cmpgei	r2,r2,60
    1de4:	1000041e 	bne	r2,zero,1df8 <VGA_ClockDraw_S+0x154>
    1de8:	e0800317 	ldw	r2,12(fp)
    1dec:	0080020e 	bge	zero,r2,1df8 <VGA_ClockDraw_S+0x154>
    1df0:	e0800317 	ldw	r2,12(fp)
    1df4:	00000106 	br	1dfc <VGA_ClockDraw_S+0x158>
    1df8:	0005883a 	mov	r2,zero
    1dfc:	e0bffa15 	stw	r2,-24(fp)
		int sec = ( currentTime.sec < 60 && currentTime.sec > 0) ? currentTime.sec : 0;
    1e00:	e0800417 	ldw	r2,16(fp)
    1e04:	10800f08 	cmpgei	r2,r2,60
    1e08:	1000041e 	bne	r2,zero,1e1c <VGA_ClockDraw_S+0x178>
    1e0c:	e0800417 	ldw	r2,16(fp)
    1e10:	0080020e 	bge	zero,r2,1e1c <VGA_ClockDraw_S+0x178>
    1e14:	e0800417 	ldw	r2,16(fp)
    1e18:	00000106 	br	1e20 <VGA_ClockDraw_S+0x17c>
    1e1c:	0005883a 	mov	r2,zero
    1e20:	e0bffb15 	stw	r2,-20(fp)

		imageDraw(x,y+offset_y,IMG_Number_S(hour/10));
    1e24:	e0fff417 	ldw	r3,-48(fp)
    1e28:	e0bff617 	ldw	r2,-40(fp)
    1e2c:	18a1883a 	add	r16,r3,r2
    1e30:	e0fff917 	ldw	r3,-28(fp)
    1e34:	00800284 	movi	r2,10
    1e38:	1885283a 	div	r2,r3,r2
    1e3c:	1009883a 	mov	r4,r2
    1e40:	0000f6c0 	call	f6c <IMG_Number_S>
    1e44:	100d883a 	mov	r6,r2
    1e48:	800b883a 	mov	r5,r16
    1e4c:	e13ff317 	ldw	r4,-52(fp)
    1e50:	00020700 	call	2070 <imageDraw>
		imageDraw(x+offset_num_x,y+offset_y,IMG_Number_S(hour%10));
    1e54:	e0fff317 	ldw	r3,-52(fp)
    1e58:	e0bff717 	ldw	r2,-36(fp)
    1e5c:	18a1883a 	add	r16,r3,r2
    1e60:	e0fff417 	ldw	r3,-48(fp)
    1e64:	e0bff617 	ldw	r2,-40(fp)
    1e68:	18a3883a 	add	r17,r3,r2
    1e6c:	e0bff917 	ldw	r2,-28(fp)
    1e70:	00c00284 	movi	r3,10
    1e74:	10c7283a 	div	r3,r2,r3
    1e78:	18c002a4 	muli	r3,r3,10
    1e7c:	10c5c83a 	sub	r2,r2,r3
    1e80:	1009883a 	mov	r4,r2
    1e84:	0000f6c0 	call	f6c <IMG_Number_S>
    1e88:	100d883a 	mov	r6,r2
    1e8c:	880b883a 	mov	r5,r17
    1e90:	8009883a 	mov	r4,r16
    1e94:	00020700 	call	2070 <imageDraw>
		imageDraw(x+(offset_num_x*2),y+offset_y,IMG_Clone_S);
    1e98:	e0bff717 	ldw	r2,-36(fp)
    1e9c:	1085883a 	add	r2,r2,r2
    1ea0:	1007883a 	mov	r3,r2
    1ea4:	e0bff317 	ldw	r2,-52(fp)
    1ea8:	1889883a 	add	r4,r3,r2
    1eac:	e0fff417 	ldw	r3,-48(fp)
    1eb0:	e0bff617 	ldw	r2,-40(fp)
    1eb4:	1885883a 	add	r2,r3,r2
    1eb8:	01800074 	movhi	r6,1
    1ebc:	3198a384 	addi	r6,r6,25230
    1ec0:	100b883a 	mov	r5,r2
    1ec4:	00020700 	call	2070 <imageDraw>
		imageDraw(x+(offset_num_x*2)+offset_clone_x,y+offset_y,IMG_Number_S(min/10));
    1ec8:	e0bff717 	ldw	r2,-36(fp)
    1ecc:	1085883a 	add	r2,r2,r2
    1ed0:	1007883a 	mov	r3,r2
    1ed4:	e0bff317 	ldw	r2,-52(fp)
    1ed8:	1887883a 	add	r3,r3,r2
    1edc:	e0bff817 	ldw	r2,-32(fp)
    1ee0:	18a1883a 	add	r16,r3,r2
    1ee4:	e0fff417 	ldw	r3,-48(fp)
    1ee8:	e0bff617 	ldw	r2,-40(fp)
    1eec:	18a3883a 	add	r17,r3,r2
    1ef0:	e0fffa17 	ldw	r3,-24(fp)
    1ef4:	00800284 	movi	r2,10
    1ef8:	1885283a 	div	r2,r3,r2
    1efc:	1009883a 	mov	r4,r2
    1f00:	0000f6c0 	call	f6c <IMG_Number_S>
    1f04:	100d883a 	mov	r6,r2
    1f08:	880b883a 	mov	r5,r17
    1f0c:	8009883a 	mov	r4,r16
    1f10:	00020700 	call	2070 <imageDraw>
		imageDraw(x+(offset_num_x*3)+offset_clone_x,y+offset_y,IMG_Number_S(min%10));
    1f14:	e0fff717 	ldw	r3,-36(fp)
    1f18:	1805883a 	mov	r2,r3
    1f1c:	1085883a 	add	r2,r2,r2
    1f20:	10c7883a 	add	r3,r2,r3
    1f24:	e0bff317 	ldw	r2,-52(fp)
    1f28:	1887883a 	add	r3,r3,r2
    1f2c:	e0bff817 	ldw	r2,-32(fp)
    1f30:	18a1883a 	add	r16,r3,r2
    1f34:	e0fff417 	ldw	r3,-48(fp)
    1f38:	e0bff617 	ldw	r2,-40(fp)
    1f3c:	18a3883a 	add	r17,r3,r2
    1f40:	e0bffa17 	ldw	r2,-24(fp)
    1f44:	00c00284 	movi	r3,10
    1f48:	10c7283a 	div	r3,r2,r3
    1f4c:	18c002a4 	muli	r3,r3,10
    1f50:	10c5c83a 	sub	r2,r2,r3
    1f54:	1009883a 	mov	r4,r2
    1f58:	0000f6c0 	call	f6c <IMG_Number_S>
    1f5c:	100d883a 	mov	r6,r2
    1f60:	880b883a 	mov	r5,r17
    1f64:	8009883a 	mov	r4,r16
    1f68:	00020700 	call	2070 <imageDraw>
		imageDraw(x+(offset_num_x*4)+offset_clone_x,y+offset_y,IMG_Clone_S);
    1f6c:	e0bff717 	ldw	r2,-36(fp)
    1f70:	1085883a 	add	r2,r2,r2
    1f74:	1085883a 	add	r2,r2,r2
    1f78:	1007883a 	mov	r3,r2
    1f7c:	e0bff317 	ldw	r2,-52(fp)
    1f80:	1887883a 	add	r3,r3,r2
    1f84:	e0bff817 	ldw	r2,-32(fp)
    1f88:	1889883a 	add	r4,r3,r2
    1f8c:	e0fff417 	ldw	r3,-48(fp)
    1f90:	e0bff617 	ldw	r2,-40(fp)
    1f94:	1885883a 	add	r2,r3,r2
    1f98:	01800074 	movhi	r6,1
    1f9c:	3198a384 	addi	r6,r6,25230
    1fa0:	100b883a 	mov	r5,r2
    1fa4:	00020700 	call	2070 <imageDraw>
		imageDraw(x+(offset_num_x*4)+(offset_clone_x*2),y+offset_y,IMG_Number_S(sec/10));
    1fa8:	e0bff717 	ldw	r2,-36(fp)
    1fac:	1085883a 	add	r2,r2,r2
    1fb0:	1085883a 	add	r2,r2,r2
    1fb4:	1007883a 	mov	r3,r2
    1fb8:	e0bff317 	ldw	r2,-52(fp)
    1fbc:	1887883a 	add	r3,r3,r2
    1fc0:	e0bff817 	ldw	r2,-32(fp)
    1fc4:	1085883a 	add	r2,r2,r2
    1fc8:	18a1883a 	add	r16,r3,r2
    1fcc:	e0fff417 	ldw	r3,-48(fp)
    1fd0:	e0bff617 	ldw	r2,-40(fp)
    1fd4:	18a3883a 	add	r17,r3,r2
    1fd8:	e0fffb17 	ldw	r3,-20(fp)
    1fdc:	00800284 	movi	r2,10
    1fe0:	1885283a 	div	r2,r3,r2
    1fe4:	1009883a 	mov	r4,r2
    1fe8:	0000f6c0 	call	f6c <IMG_Number_S>
    1fec:	100d883a 	mov	r6,r2
    1ff0:	880b883a 	mov	r5,r17
    1ff4:	8009883a 	mov	r4,r16
    1ff8:	00020700 	call	2070 <imageDraw>
		imageDraw(x+(offset_num_x*5)+(offset_clone_x*2),y+offset_y,IMG_Number_S(sec%10));
    1ffc:	e0bff717 	ldw	r2,-36(fp)
    2000:	10c00164 	muli	r3,r2,5
    2004:	e0bff317 	ldw	r2,-52(fp)
    2008:	1887883a 	add	r3,r3,r2
    200c:	e0bff817 	ldw	r2,-32(fp)
    2010:	1085883a 	add	r2,r2,r2
    2014:	18a1883a 	add	r16,r3,r2
    2018:	e0fff417 	ldw	r3,-48(fp)
    201c:	e0bff617 	ldw	r2,-40(fp)
    2020:	18a3883a 	add	r17,r3,r2
    2024:	e0bffb17 	ldw	r2,-20(fp)
    2028:	00c00284 	movi	r3,10
    202c:	10c7283a 	div	r3,r2,r3
    2030:	18c002a4 	muli	r3,r3,10
    2034:	10c5c83a 	sub	r2,r2,r3
    2038:	1009883a 	mov	r4,r2
    203c:	0000f6c0 	call	f6c <IMG_Number_S>
    2040:	100d883a 	mov	r6,r2
    2044:	880b883a 	mov	r5,r17
    2048:	8009883a 	mov	r4,r16
    204c:	00020700 	call	2070 <imageDraw>
	}
}
    2050:	0001883a 	nop
    2054:	e6fffe04 	addi	sp,fp,-8
    2058:	dfc00317 	ldw	ra,12(sp)
    205c:	df000217 	ldw	fp,8(sp)
    2060:	dc400117 	ldw	r17,4(sp)
    2064:	dc000017 	ldw	r16,0(sp)
    2068:	dec00604 	addi	sp,sp,24
    206c:	f800283a 	ret

00002070 <imageDraw>:

void imageDraw(int x,int y, short * img){
    2070:	defff404 	addi	sp,sp,-48
    2074:	dfc00b15 	stw	ra,44(sp)
    2078:	df000a15 	stw	fp,40(sp)
    207c:	df000a04 	addi	fp,sp,40
    2080:	e13ffd15 	stw	r4,-12(fp)
    2084:	e17ffe15 	stw	r5,-8(fp)
    2088:	e1bfff15 	stw	r6,-4(fp)
	int img_x = (int) img[0];
    208c:	e0bfff17 	ldw	r2,-4(fp)
    2090:	1080000b 	ldhu	r2,0(r2)
    2094:	10bfffcc 	andi	r2,r2,65535
    2098:	10a0001c 	xori	r2,r2,32768
    209c:	10a00004 	addi	r2,r2,-32768
    20a0:	e0bff915 	stw	r2,-28(fp)
	int img_y = (int) img[1];
    20a4:	e0bfff17 	ldw	r2,-4(fp)
    20a8:	10800084 	addi	r2,r2,2
    20ac:	1080000b 	ldhu	r2,0(r2)
    20b0:	10bfffcc 	andi	r2,r2,65535
    20b4:	10a0001c 	xori	r2,r2,32768
    20b8:	10a00004 	addi	r2,r2,-32768
    20bc:	e0bffa15 	stw	r2,-24(fp)

	int limit_x = (x+img_x > 320)? 320 : x+img_x;
    20c0:	e0fffd17 	ldw	r3,-12(fp)
    20c4:	e0bff917 	ldw	r2,-28(fp)
    20c8:	1885883a 	add	r2,r3,r2
    20cc:	10c05050 	cmplti	r3,r2,321
    20d0:	1800011e 	bne	r3,zero,20d8 <imageDraw+0x68>
    20d4:	00805004 	movi	r2,320
    20d8:	e0bffb15 	stw	r2,-20(fp)
	int limit_y = (y+img_y > 240)? 240 : y+img_y;
    20dc:	e0fffe17 	ldw	r3,-8(fp)
    20e0:	e0bffa17 	ldw	r2,-24(fp)
    20e4:	1885883a 	add	r2,r3,r2
    20e8:	10c03c50 	cmplti	r3,r2,241
    20ec:	1800011e 	bne	r3,zero,20f4 <imageDraw+0x84>
    20f0:	00803c04 	movi	r2,240
    20f4:	e0bffc15 	stw	r2,-16(fp)
	int count = 2;
    20f8:	00800084 	movi	r2,2
    20fc:	e0bff615 	stw	r2,-40(fp)

	for(int i=y;i<limit_y;i++)
    2100:	e0bffe17 	ldw	r2,-8(fp)
    2104:	e0bff715 	stw	r2,-36(fp)
    2108:	00001b06 	br	2178 <imageDraw+0x108>
		for(int j=x;j<limit_x;j++)
    210c:	e0bffd17 	ldw	r2,-12(fp)
    2110:	e0bff815 	stw	r2,-32(fp)
    2114:	00001206 	br	2160 <imageDraw+0xf0>
			plot_pixel(j, i, img[count++]);
    2118:	e0bff617 	ldw	r2,-40(fp)
    211c:	10c00044 	addi	r3,r2,1
    2120:	e0fff615 	stw	r3,-40(fp)
    2124:	1085883a 	add	r2,r2,r2
    2128:	1007883a 	mov	r3,r2
    212c:	e0bfff17 	ldw	r2,-4(fp)
    2130:	10c5883a 	add	r2,r2,r3
    2134:	1080000b 	ldhu	r2,0(r2)
    2138:	10bfffcc 	andi	r2,r2,65535
    213c:	10a0001c 	xori	r2,r2,32768
    2140:	10a00004 	addi	r2,r2,-32768
    2144:	100d883a 	mov	r6,r2
    2148:	e17ff717 	ldw	r5,-36(fp)
    214c:	e13ff817 	ldw	r4,-32(fp)
    2150:	00021ec0 	call	21ec <plot_pixel>
	int limit_x = (x+img_x > 320)? 320 : x+img_x;
	int limit_y = (y+img_y > 240)? 240 : y+img_y;
	int count = 2;

	for(int i=y;i<limit_y;i++)
		for(int j=x;j<limit_x;j++)
    2154:	e0bff817 	ldw	r2,-32(fp)
    2158:	10800044 	addi	r2,r2,1
    215c:	e0bff815 	stw	r2,-32(fp)
    2160:	e0fff817 	ldw	r3,-32(fp)
    2164:	e0bffb17 	ldw	r2,-20(fp)
    2168:	18bfeb16 	blt	r3,r2,2118 <__alt_mem_ARM_A9_HPS_axi_sdram+0xc0002118>

	int limit_x = (x+img_x > 320)? 320 : x+img_x;
	int limit_y = (y+img_y > 240)? 240 : y+img_y;
	int count = 2;

	for(int i=y;i<limit_y;i++)
    216c:	e0bff717 	ldw	r2,-36(fp)
    2170:	10800044 	addi	r2,r2,1
    2174:	e0bff715 	stw	r2,-36(fp)
    2178:	e0fff717 	ldw	r3,-36(fp)
    217c:	e0bffc17 	ldw	r2,-16(fp)
    2180:	18bfe216 	blt	r3,r2,210c <__alt_mem_ARM_A9_HPS_axi_sdram+0xc000210c>
		for(int j=x;j<limit_x;j++)
			plot_pixel(j, i, img[count++]);
}
    2184:	0001883a 	nop
    2188:	e037883a 	mov	sp,fp
    218c:	dfc00117 	ldw	ra,4(sp)
    2190:	df000017 	ldw	fp,0(sp)
    2194:	dec00204 	addi	sp,sp,8
    2198:	f800283a 	ret

0000219c <wait_for_vsync>:

void wait_for_vsync(void){
    219c:	defffe04 	addi	sp,sp,-8
    21a0:	df000115 	stw	fp,4(sp)
    21a4:	dc000015 	stw	r16,0(sp)
    21a8:	df000104 	addi	fp,sp,4
   register int status;
   *pixel_ctrl_ptr = 1;
    21ac:	d0a00317 	ldw	r2,-32756(gp)
    21b0:	00c00044 	movi	r3,1
    21b4:	10c00015 	stw	r3,0(r2)

   status = *(pixel_ctrl_ptr +3);
    21b8:	d0a00317 	ldw	r2,-32756(gp)
    21bc:	14000317 	ldw	r16,12(r2)
   while ((status & 0x01)!=0){
    21c0:	00000206 	br	21cc <wait_for_vsync+0x30>
      status = *(pixel_ctrl_ptr + 3);
    21c4:	d0a00317 	ldw	r2,-32756(gp)
    21c8:	14000317 	ldw	r16,12(r2)
void wait_for_vsync(void){
   register int status;
   *pixel_ctrl_ptr = 1;

   status = *(pixel_ctrl_ptr +3);
   while ((status & 0x01)!=0){
    21cc:	8080004c 	andi	r2,r16,1
    21d0:	103ffc1e 	bne	r2,zero,21c4 <__alt_mem_ARM_A9_HPS_axi_sdram+0xc00021c4>
      status = *(pixel_ctrl_ptr + 3);
   }
}
    21d4:	0001883a 	nop
    21d8:	e6ffff04 	addi	sp,fp,-4
    21dc:	df000117 	ldw	fp,4(sp)
    21e0:	dc000017 	ldw	r16,0(sp)
    21e4:	dec00204 	addi	sp,sp,8
    21e8:	f800283a 	ret

000021ec <plot_pixel>:

void plot_pixel(int x, int y, short line_color){
    21ec:	defffc04 	addi	sp,sp,-16
    21f0:	df000315 	stw	fp,12(sp)
    21f4:	df000304 	addi	fp,sp,12
    21f8:	e13ffd15 	stw	r4,-12(fp)
    21fc:	e17ffe15 	stw	r5,-8(fp)
    2200:	3005883a 	mov	r2,r6
    2204:	e0bfff0d 	sth	r2,-4(fp)
   *(short int *)(pixel_buffer_start + (y << 10) + (x << 1)) = line_color;
    2208:	e0bffe17 	ldw	r2,-8(fp)
    220c:	100692ba 	slli	r3,r2,10
    2210:	d0ba8117 	ldw	r2,-5628(gp)
    2214:	1887883a 	add	r3,r3,r2
    2218:	e0bffd17 	ldw	r2,-12(fp)
    221c:	1085883a 	add	r2,r2,r2
    2220:	1885883a 	add	r2,r3,r2
    2224:	1007883a 	mov	r3,r2
    2228:	e0bfff0b 	ldhu	r2,-4(fp)
    222c:	1880000d 	sth	r2,0(r3)
}
    2230:	0001883a 	nop
    2234:	e037883a 	mov	sp,fp
    2238:	df000017 	ldw	fp,0(sp)
    223c:	dec00104 	addi	sp,sp,4
    2240:	f800283a 	ret

00002244 <clear_screen>:

void clear_screen(){
    2244:	defffc04 	addi	sp,sp,-16
    2248:	dfc00315 	stw	ra,12(sp)
    224c:	df000215 	stw	fp,8(sp)
    2250:	df000204 	addi	fp,sp,8
   for (int x = 0; x<320; x++)
    2254:	e03ffe15 	stw	zero,-8(fp)
    2258:	00000f06 	br	2298 <clear_screen+0x54>
      for (int y = 0; y<240; y++)
    225c:	e03fff15 	stw	zero,-4(fp)
    2260:	00000706 	br	2280 <clear_screen+0x3c>
         plot_pixel(x, y, 0x0000);
    2264:	000d883a 	mov	r6,zero
    2268:	e17fff17 	ldw	r5,-4(fp)
    226c:	e13ffe17 	ldw	r4,-8(fp)
    2270:	00021ec0 	call	21ec <plot_pixel>
   *(short int *)(pixel_buffer_start + (y << 10) + (x << 1)) = line_color;
}

void clear_screen(){
   for (int x = 0; x<320; x++)
      for (int y = 0; y<240; y++)
    2274:	e0bfff17 	ldw	r2,-4(fp)
    2278:	10800044 	addi	r2,r2,1
    227c:	e0bfff15 	stw	r2,-4(fp)
    2280:	e0bfff17 	ldw	r2,-4(fp)
    2284:	10803c10 	cmplti	r2,r2,240
    2288:	103ff61e 	bne	r2,zero,2264 <__alt_mem_ARM_A9_HPS_axi_sdram+0xc0002264>
void plot_pixel(int x, int y, short line_color){
   *(short int *)(pixel_buffer_start + (y << 10) + (x << 1)) = line_color;
}

void clear_screen(){
   for (int x = 0; x<320; x++)
    228c:	e0bffe17 	ldw	r2,-8(fp)
    2290:	10800044 	addi	r2,r2,1
    2294:	e0bffe15 	stw	r2,-8(fp)
    2298:	e0bffe17 	ldw	r2,-8(fp)
    229c:	10805010 	cmplti	r2,r2,320
    22a0:	103fee1e 	bne	r2,zero,225c <__alt_mem_ARM_A9_HPS_axi_sdram+0xc000225c>
      for (int y = 0; y<240; y++)
         plot_pixel(x, y, 0x0000);
}
    22a4:	0001883a 	nop
    22a8:	e037883a 	mov	sp,fp
    22ac:	dfc00117 	ldw	ra,4(sp)
    22b0:	df000017 	ldw	fp,0(sp)
    22b4:	dec00204 	addi	sp,sp,8
    22b8:	f800283a 	ret

000022bc <HEX_PrintHEX>:

void HEX_PrintHEX(int number1, int number2, int number3) {
    22bc:	defff304 	addi	sp,sp,-52
    22c0:	dfc00c15 	stw	ra,48(sp)
    22c4:	df000b15 	stw	fp,44(sp)
    22c8:	df000b04 	addi	fp,sp,44
    22cc:	e13ffd15 	stw	r4,-12(fp)
    22d0:	e17ffe15 	stw	r5,-8(fp)
    22d4:	e1bfff15 	stw	r6,-4(fp)
   int printNum1 = 0;
    22d8:	e03ff515 	stw	zero,-44(fp)
   int printNum2 = 0;
    22dc:	e03ff615 	stw	zero,-40(fp)
   int firstNum1 = printHEX(number1 % 10);
    22e0:	e0bffd17 	ldw	r2,-12(fp)
    22e4:	00c00284 	movi	r3,10
    22e8:	10c7283a 	div	r3,r2,r3
    22ec:	18c002a4 	muli	r3,r3,10
    22f0:	10c5c83a 	sub	r2,r2,r3
    22f4:	1009883a 	mov	r4,r2
    22f8:	00024500 	call	2450 <printHEX>
    22fc:	10803fcc 	andi	r2,r2,255
    2300:	1080201c 	xori	r2,r2,128
    2304:	10bfe004 	addi	r2,r2,-128
    2308:	e0bff715 	stw	r2,-36(fp)
   int secondNum1 = (printHEX(number1 / 10)) << 8;
    230c:	e0fffd17 	ldw	r3,-12(fp)
    2310:	00800284 	movi	r2,10
    2314:	1885283a 	div	r2,r3,r2
    2318:	1009883a 	mov	r4,r2
    231c:	00024500 	call	2450 <printHEX>
    2320:	10803fcc 	andi	r2,r2,255
    2324:	1080201c 	xori	r2,r2,128
    2328:	10bfe004 	addi	r2,r2,-128
    232c:	1004923a 	slli	r2,r2,8
    2330:	e0bff815 	stw	r2,-32(fp)
   int firstNum2 = printHEX(number2 % 10) << 16;
    2334:	e0bffe17 	ldw	r2,-8(fp)
    2338:	00c00284 	movi	r3,10
    233c:	10c7283a 	div	r3,r2,r3
    2340:	18c002a4 	muli	r3,r3,10
    2344:	10c5c83a 	sub	r2,r2,r3
    2348:	1009883a 	mov	r4,r2
    234c:	00024500 	call	2450 <printHEX>
    2350:	10803fcc 	andi	r2,r2,255
    2354:	1080201c 	xori	r2,r2,128
    2358:	10bfe004 	addi	r2,r2,-128
    235c:	1004943a 	slli	r2,r2,16
    2360:	e0bff915 	stw	r2,-28(fp)
   int secondNum2 = (printHEX(number2 / 10)) << 24;
    2364:	e0fffe17 	ldw	r3,-8(fp)
    2368:	00800284 	movi	r2,10
    236c:	1885283a 	div	r2,r3,r2
    2370:	1009883a 	mov	r4,r2
    2374:	00024500 	call	2450 <printHEX>
    2378:	10803fcc 	andi	r2,r2,255
    237c:	1080201c 	xori	r2,r2,128
    2380:	10bfe004 	addi	r2,r2,-128
    2384:	1004963a 	slli	r2,r2,24
    2388:	e0bffa15 	stw	r2,-24(fp)
   int firstNum3 = printHEX(number3 % 10);
    238c:	e0bfff17 	ldw	r2,-4(fp)
    2390:	00c00284 	movi	r3,10
    2394:	10c7283a 	div	r3,r2,r3
    2398:	18c002a4 	muli	r3,r3,10
    239c:	10c5c83a 	sub	r2,r2,r3
    23a0:	1009883a 	mov	r4,r2
    23a4:	00024500 	call	2450 <printHEX>
    23a8:	10803fcc 	andi	r2,r2,255
    23ac:	1080201c 	xori	r2,r2,128
    23b0:	10bfe004 	addi	r2,r2,-128
    23b4:	e0bffb15 	stw	r2,-20(fp)
   int secondNum3 = (printHEX(number3 / 10)) << 8;
    23b8:	e0ffff17 	ldw	r3,-4(fp)
    23bc:	00800284 	movi	r2,10
    23c0:	1885283a 	div	r2,r3,r2
    23c4:	1009883a 	mov	r4,r2
    23c8:	00024500 	call	2450 <printHEX>
    23cc:	10803fcc 	andi	r2,r2,255
    23d0:	1080201c 	xori	r2,r2,128
    23d4:	10bfe004 	addi	r2,r2,-128
    23d8:	1004923a 	slli	r2,r2,8
    23dc:	e0bffc15 	stw	r2,-16(fp)
   printNum1 |= secondNum1 | firstNum1 | firstNum2 | secondNum2;
    23e0:	e0fff817 	ldw	r3,-32(fp)
    23e4:	e0bff717 	ldw	r2,-36(fp)
    23e8:	1886b03a 	or	r3,r3,r2
    23ec:	e0bff917 	ldw	r2,-28(fp)
    23f0:	1886b03a 	or	r3,r3,r2
    23f4:	e0bffa17 	ldw	r2,-24(fp)
    23f8:	1884b03a 	or	r2,r3,r2
    23fc:	e0fff517 	ldw	r3,-44(fp)
    2400:	1884b03a 	or	r2,r3,r2
    2404:	e0bff515 	stw	r2,-44(fp)
   printNum2 |= secondNum3 | firstNum3;
    2408:	e0fffc17 	ldw	r3,-16(fp)
    240c:	e0bffb17 	ldw	r2,-20(fp)
    2410:	1884b03a 	or	r2,r3,r2
    2414:	e0fff617 	ldw	r3,-40(fp)
    2418:	1884b03a 	or	r2,r3,r2
    241c:	e0bff615 	stw	r2,-40(fp)
   *pHEX0_3 = printNum1;
    2420:	d0a00917 	ldw	r2,-32732(gp)
    2424:	e0fff517 	ldw	r3,-44(fp)
    2428:	10c00015 	stw	r3,0(r2)
   *pHEX4_5 = printNum2;
    242c:	d0a00a17 	ldw	r2,-32728(gp)
    2430:	e0fff617 	ldw	r3,-40(fp)
    2434:	10c00015 	stw	r3,0(r2)
}
    2438:	0001883a 	nop
    243c:	e037883a 	mov	sp,fp
    2440:	dfc00117 	ldw	ra,4(sp)
    2444:	df000017 	ldw	fp,0(sp)
    2448:	dec00204 	addi	sp,sp,8
    244c:	f800283a 	ret

00002450 <printHEX>:

char printHEX(int number) {
    2450:	defffd04 	addi	sp,sp,-12
    2454:	df000215 	stw	fp,8(sp)
    2458:	df000204 	addi	fp,sp,8
    245c:	e13fff15 	stw	r4,-4(fp)
   char result;
   switch (number) {
    2460:	e0bfff17 	ldw	r2,-4(fp)
    2464:	108002a8 	cmpgeui	r2,r2,10
    2468:	10002f1e 	bne	r2,zero,2528 <printHEX+0xd8>
    246c:	e0bfff17 	ldw	r2,-4(fp)
    2470:	100690ba 	slli	r3,r2,2
    2474:	00800034 	movhi	r2,0
    2478:	10892204 	addi	r2,r2,9352
    247c:	1885883a 	add	r2,r3,r2
    2480:	10800017 	ldw	r2,0(r2)
    2484:	1000683a 	jmp	r2
    2488:	000024b0 	cmpltui	zero,zero,146
    248c:	000024bc 	xorhi	zero,zero,146
    2490:	000024c8 	cmpgei	zero,zero,147
    2494:	000024d4 	movui	zero,147
    2498:	000024e0 	cmpeqi	zero,zero,147
    249c:	000024ec 	andhi	zero,zero,147
    24a0:	000024f8 	rdprs	zero,zero,147
    24a4:	00002504 	movi	zero,148
    24a8:	00002510 	cmplti	zero,zero,148
    24ac:	0000251c 	xori	zero,zero,148
   case 0: result = 0b00111111; break;
    24b0:	00800fc4 	movi	r2,63
    24b4:	e0bffe05 	stb	r2,-8(fp)
    24b8:	00001b06 	br	2528 <printHEX+0xd8>
   case 1: result = 0b00000110; break;
    24bc:	00800184 	movi	r2,6
    24c0:	e0bffe05 	stb	r2,-8(fp)
    24c4:	00001806 	br	2528 <printHEX+0xd8>
   case 2: result = 0b01011011; break;
    24c8:	008016c4 	movi	r2,91
    24cc:	e0bffe05 	stb	r2,-8(fp)
    24d0:	00001506 	br	2528 <printHEX+0xd8>
   case 3: result = 0b01001111; break;
    24d4:	008013c4 	movi	r2,79
    24d8:	e0bffe05 	stb	r2,-8(fp)
    24dc:	00001206 	br	2528 <printHEX+0xd8>
   case 4: result = 0b01100110; break;
    24e0:	00801984 	movi	r2,102
    24e4:	e0bffe05 	stb	r2,-8(fp)
    24e8:	00000f06 	br	2528 <printHEX+0xd8>
   case 5: result = 0b01101101; break;
    24ec:	00801b44 	movi	r2,109
    24f0:	e0bffe05 	stb	r2,-8(fp)
    24f4:	00000c06 	br	2528 <printHEX+0xd8>
   case 6: result = 0b01111101; break;
    24f8:	00801f44 	movi	r2,125
    24fc:	e0bffe05 	stb	r2,-8(fp)
    2500:	00000906 	br	2528 <printHEX+0xd8>
   case 7: result = 0b00100111; break;
    2504:	008009c4 	movi	r2,39
    2508:	e0bffe05 	stb	r2,-8(fp)
    250c:	00000606 	br	2528 <printHEX+0xd8>
   case 8: result = 0b01111111; break;
    2510:	00801fc4 	movi	r2,127
    2514:	e0bffe05 	stb	r2,-8(fp)
    2518:	00000306 	br	2528 <printHEX+0xd8>
   case 9: result = 0b01101111; break;
    251c:	00801bc4 	movi	r2,111
    2520:	e0bffe05 	stb	r2,-8(fp)
    2524:	0001883a 	nop
   }
   return result;
    2528:	e0bffe03 	ldbu	r2,-8(fp)
}
    252c:	e037883a 	mov	sp,fp
    2530:	df000017 	ldw	fp,0(sp)
    2534:	dec00104 	addi	sp,sp,4
    2538:	f800283a 	ret

0000253c <Audio_ISR>:
unsigned int r_buf[2][BUF_SIZE];
volatile int sr = 0;
volatile int echo = 0;

void Audio_ISR()
{
    253c:	defffb04 	addi	sp,sp,-20
    2540:	dfc00415 	stw	ra,16(sp)
    2544:	df000315 	stw	fp,12(sp)
    2548:	df000304 	addi	fp,sp,12
   ////recored////
   if (record == 1 && mode == 4)
    254c:	d0ba7b17 	ldw	r2,-5652(gp)
    2550:	10800058 	cmpnei	r2,r2,1
    2554:	10003c1e 	bne	r2,zero,2648 <Audio_ISR+0x10c>
    2558:	d0ba8017 	ldw	r2,-5632(gp)
    255c:	10800118 	cmpnei	r2,r2,4
    2560:	1000391e 	bne	r2,zero,2648 <Audio_ISR+0x10c>
   {
      *(pLED) = 0x1;
    2564:	d0a00617 	ldw	r2,-32744(gp)
    2568:	00c00044 	movi	r3,1
    256c:	10c00015 	stw	r3,0(r2)
      if (buffer_index < BUF_SIZE)
    2570:	d0fa7d17 	ldw	r3,-5644(gp)
    2574:	00800234 	movhi	r2,8
    2578:	10a847c4 	addi	r2,r2,-24289
    257c:	10c02416 	blt	r2,r3,2610 <Audio_ISR+0xd4>
      {
         l_buf[sr][buffer_index] = *(pAudio + 2);
    2580:	d17a7e17 	ldw	r5,-5640(gp)
    2584:	d13a7d17 	ldw	r4,-5644(gp)
    2588:	d0a00517 	ldw	r2,-32748(gp)
    258c:	10800204 	addi	r2,r2,8
    2590:	10800017 	ldw	r2,0(r2)
    2594:	100d883a 	mov	r6,r2
    2598:	008011f4 	movhi	r2,71
    259c:	10911d04 	addi	r2,r2,17524
    25a0:	00c00234 	movhi	r3,8
    25a4:	18e84804 	addi	r3,r3,-24288
    25a8:	28c7383a 	mul	r3,r5,r3
    25ac:	1907883a 	add	r3,r3,r4
    25b0:	18c7883a 	add	r3,r3,r3
    25b4:	18c7883a 	add	r3,r3,r3
    25b8:	10c5883a 	add	r2,r2,r3
    25bc:	11800015 	stw	r6,0(r2)
         r_buf[sr][buffer_index] = *(pAudio + 3);
    25c0:	d17a7e17 	ldw	r5,-5640(gp)
    25c4:	d13a7d17 	ldw	r4,-5644(gp)
    25c8:	d0a00517 	ldw	r2,-32748(gp)
    25cc:	10800304 	addi	r2,r2,12
    25d0:	10800017 	ldw	r2,0(r2)
    25d4:	100d883a 	mov	r6,r2
    25d8:	008001b4 	movhi	r2,6
    25dc:	108edd04 	addi	r2,r2,15220
    25e0:	00c00234 	movhi	r3,8
    25e4:	18e84804 	addi	r3,r3,-24288
    25e8:	28c7383a 	mul	r3,r5,r3
    25ec:	1907883a 	add	r3,r3,r4
    25f0:	18c7883a 	add	r3,r3,r3
    25f4:	18c7883a 	add	r3,r3,r3
    25f8:	10c5883a 	add	r2,r2,r3
    25fc:	11800015 	stw	r6,0(r2)
         ++buffer_index;
    2600:	d0ba7d17 	ldw	r2,-5644(gp)
    2604:	10800044 	addi	r2,r2,1
    2608:	d0ba7d15 	stw	r2,-5644(gp)
{
   ////recored////
   if (record == 1 && mode == 4)
   {
      *(pLED) = 0x1;
      if (buffer_index < BUF_SIZE)
    260c:	00013106 	br	2ad4 <Audio_ISR+0x598>
         l_buf[sr][buffer_index] = *(pAudio + 2);
         r_buf[sr][buffer_index] = *(pAudio + 3);
         ++buffer_index;

      }
      else if (buffer_index >= BUF_SIZE)
    2610:	d0fa7d17 	ldw	r3,-5644(gp)
    2614:	00800234 	movhi	r2,8
    2618:	10a847c4 	addi	r2,r2,-24289
    261c:	10c12d0e 	bge	r2,r3,2ad4 <Audio_ISR+0x598>
      {
         *(pAudio) = 0;
    2620:	d0a00517 	ldw	r2,-32748(gp)
    2624:	10000015 	stw	zero,0(r2)
         record = 0;
    2628:	d03a7b15 	stw	zero,-5652(gp)
         *(pLED) = 0;
    262c:	d0a00617 	ldw	r2,-32744(gp)
    2630:	10000015 	stw	zero,0(r2)
         HEX_PrintHEX(40,0,0);
    2634:	000d883a 	mov	r6,zero
    2638:	000b883a 	mov	r5,zero
    263c:	01000a04 	movi	r4,40
    2640:	00022bc0 	call	22bc <HEX_PrintHEX>
{
   ////recored////
   if (record == 1 && mode == 4)
   {
      *(pLED) = 0x1;
      if (buffer_index < BUF_SIZE)
    2644:	00012306 	br	2ad4 <Audio_ISR+0x598>
         *(pLED) = 0;
         HEX_PrintHEX(40,0,0);
      }
   }
   ////audio play////
   else if ((play==1))
    2648:	d0ba7c17 	ldw	r2,-5648(gp)
    264c:	10800058 	cmpnei	r2,r2,1
    2650:	1001211e 	bne	r2,zero,2ad8 <Audio_ISR+0x59c>
   {
      *(pLED) = 0x2;
    2654:	d0a00617 	ldw	r2,-32744(gp)
    2658:	00c00084 	movi	r3,2
    265c:	10c00015 	stw	r3,0(r2)

      if (buffer_index < BUF_SIZE)
    2660:	d0fa7d17 	ldw	r3,-5644(gp)
    2664:	00800234 	movhi	r2,8
    2668:	10a847c4 	addi	r2,r2,-24289
    266c:	10c10816 	blt	r2,r3,2a90 <Audio_ISR+0x554>
      {
         if(echo == 0)
    2670:	d0ba7f17 	ldw	r2,-5636(gp)
    2674:	10001f1e 	bne	r2,zero,26f4 <Audio_ISR+0x1b8>
         {
            *(pAudio + 2) = l_buf[sr][buffer_index];
    2678:	d0a00517 	ldw	r2,-32748(gp)
    267c:	11000204 	addi	r4,r2,8
    2680:	d1ba7e17 	ldw	r6,-5640(gp)
    2684:	d17a7d17 	ldw	r5,-5644(gp)
    2688:	008011f4 	movhi	r2,71
    268c:	10911d04 	addi	r2,r2,17524
    2690:	00c00234 	movhi	r3,8
    2694:	18e84804 	addi	r3,r3,-24288
    2698:	30c7383a 	mul	r3,r6,r3
    269c:	1947883a 	add	r3,r3,r5
    26a0:	18c7883a 	add	r3,r3,r3
    26a4:	18c7883a 	add	r3,r3,r3
    26a8:	10c5883a 	add	r2,r2,r3
    26ac:	10800017 	ldw	r2,0(r2)
    26b0:	20800015 	stw	r2,0(r4)
            *(pAudio + 3) = r_buf[sr][buffer_index];
    26b4:	d0a00517 	ldw	r2,-32748(gp)
    26b8:	11000304 	addi	r4,r2,12
    26bc:	d1ba7e17 	ldw	r6,-5640(gp)
    26c0:	d17a7d17 	ldw	r5,-5644(gp)
    26c4:	008001b4 	movhi	r2,6
    26c8:	108edd04 	addi	r2,r2,15220
    26cc:	00c00234 	movhi	r3,8
    26d0:	18e84804 	addi	r3,r3,-24288
    26d4:	30c7383a 	mul	r3,r6,r3
    26d8:	1947883a 	add	r3,r3,r5
    26dc:	18c7883a 	add	r3,r3,r3
    26e0:	18c7883a 	add	r3,r3,r3
    26e4:	10c5883a 	add	r2,r2,r3
    26e8:	10800017 	ldw	r2,0(r2)
    26ec:	20800015 	stw	r2,0(r4)
    26f0:	0000e306 	br	2a80 <Audio_ISR+0x544>
         }
         else if(echo == 1)
    26f4:	d0ba7f17 	ldw	r2,-5636(gp)
    26f8:	10800058 	cmpnei	r2,r2,1
    26fc:	1000e01e 	bne	r2,zero,2a80 <Audio_ISR+0x544>
         {
            int long audior_temp;
            int long audiol_temp;
            int audio_rst;
            if(buffer_index<8000)
    2700:	d0ba7d17 	ldw	r2,-5644(gp)
    2704:	1087d008 	cmpgei	r2,r2,8000
    2708:	10001f1e 	bne	r2,zero,2788 <Audio_ISR+0x24c>
            {
               *(pAudio + 2) = l_buf[sr][buffer_index];
    270c:	d0a00517 	ldw	r2,-32748(gp)
    2710:	11000204 	addi	r4,r2,8
    2714:	d1ba7e17 	ldw	r6,-5640(gp)
    2718:	d17a7d17 	ldw	r5,-5644(gp)
    271c:	008011f4 	movhi	r2,71
    2720:	10911d04 	addi	r2,r2,17524
    2724:	00c00234 	movhi	r3,8
    2728:	18e84804 	addi	r3,r3,-24288
    272c:	30c7383a 	mul	r3,r6,r3
    2730:	1947883a 	add	r3,r3,r5
    2734:	18c7883a 	add	r3,r3,r3
    2738:	18c7883a 	add	r3,r3,r3
    273c:	10c5883a 	add	r2,r2,r3
    2740:	10800017 	ldw	r2,0(r2)
    2744:	20800015 	stw	r2,0(r4)
               *(pAudio + 3) = r_buf[sr][buffer_index];
    2748:	d0a00517 	ldw	r2,-32748(gp)
    274c:	11000304 	addi	r4,r2,12
    2750:	d1ba7e17 	ldw	r6,-5640(gp)
    2754:	d17a7d17 	ldw	r5,-5644(gp)
    2758:	008001b4 	movhi	r2,6
    275c:	108edd04 	addi	r2,r2,15220
    2760:	00c00234 	movhi	r3,8
    2764:	18e84804 	addi	r3,r3,-24288
    2768:	30c7383a 	mul	r3,r6,r3
    276c:	1947883a 	add	r3,r3,r5
    2770:	18c7883a 	add	r3,r3,r3
    2774:	18c7883a 	add	r3,r3,r3
    2778:	10c5883a 	add	r2,r2,r3
    277c:	10800017 	ldw	r2,0(r2)
    2780:	20800015 	stw	r2,0(r4)
    2784:	0000be06 	br	2a80 <Audio_ISR+0x544>
            }
            else if(buffer_index<16000)
    2788:	d0ba7d17 	ldw	r2,-5644(gp)
    278c:	108fa008 	cmpgei	r2,r2,16000
    2790:	10004f1e 	bne	r2,zero,28d0 <Audio_ISR+0x394>
            {
               audior_temp = r_buf[sr][buffer_index]*4+r_buf[sr][buffer_index-8000]*2;
    2794:	d17a7e17 	ldw	r5,-5640(gp)
    2798:	d13a7d17 	ldw	r4,-5644(gp)
    279c:	008001b4 	movhi	r2,6
    27a0:	108edd04 	addi	r2,r2,15220
    27a4:	00c00234 	movhi	r3,8
    27a8:	18e84804 	addi	r3,r3,-24288
    27ac:	28c7383a 	mul	r3,r5,r3
    27b0:	1907883a 	add	r3,r3,r4
    27b4:	18c7883a 	add	r3,r3,r3
    27b8:	18c7883a 	add	r3,r3,r3
    27bc:	10c5883a 	add	r2,r2,r3
    27c0:	10800017 	ldw	r2,0(r2)
    27c4:	1085883a 	add	r2,r2,r2
    27c8:	100d883a 	mov	r6,r2
    27cc:	d17a7e17 	ldw	r5,-5640(gp)
    27d0:	d0ba7d17 	ldw	r2,-5644(gp)
    27d4:	11383004 	addi	r4,r2,-8000
    27d8:	008001b4 	movhi	r2,6
    27dc:	108edd04 	addi	r2,r2,15220
    27e0:	00c00234 	movhi	r3,8
    27e4:	18e84804 	addi	r3,r3,-24288
    27e8:	28c7383a 	mul	r3,r5,r3
    27ec:	1907883a 	add	r3,r3,r4
    27f0:	18c7883a 	add	r3,r3,r3
    27f4:	18c7883a 	add	r3,r3,r3
    27f8:	10c5883a 	add	r2,r2,r3
    27fc:	10800017 	ldw	r2,0(r2)
    2800:	3085883a 	add	r2,r6,r2
    2804:	1085883a 	add	r2,r2,r2
    2808:	e0bffd15 	stw	r2,-12(fp)
               audior_temp = audior_temp>>3;
    280c:	e0bffd17 	ldw	r2,-12(fp)
    2810:	1005d0fa 	srai	r2,r2,3
    2814:	e0bffd15 	stw	r2,-12(fp)
               audiol_temp = l_buf[sr][buffer_index]*4+l_buf[sr][buffer_index-8000]*2;
    2818:	d17a7e17 	ldw	r5,-5640(gp)
    281c:	d13a7d17 	ldw	r4,-5644(gp)
    2820:	008011f4 	movhi	r2,71
    2824:	10911d04 	addi	r2,r2,17524
    2828:	00c00234 	movhi	r3,8
    282c:	18e84804 	addi	r3,r3,-24288
    2830:	28c7383a 	mul	r3,r5,r3
    2834:	1907883a 	add	r3,r3,r4
    2838:	18c7883a 	add	r3,r3,r3
    283c:	18c7883a 	add	r3,r3,r3
    2840:	10c5883a 	add	r2,r2,r3
    2844:	10800017 	ldw	r2,0(r2)
    2848:	1085883a 	add	r2,r2,r2
    284c:	100d883a 	mov	r6,r2
    2850:	d17a7e17 	ldw	r5,-5640(gp)
    2854:	d0ba7d17 	ldw	r2,-5644(gp)
    2858:	11383004 	addi	r4,r2,-8000
    285c:	008011f4 	movhi	r2,71
    2860:	10911d04 	addi	r2,r2,17524
    2864:	00c00234 	movhi	r3,8
    2868:	18e84804 	addi	r3,r3,-24288
    286c:	28c7383a 	mul	r3,r5,r3
    2870:	1907883a 	add	r3,r3,r4
    2874:	18c7883a 	add	r3,r3,r3
    2878:	18c7883a 	add	r3,r3,r3
    287c:	10c5883a 	add	r2,r2,r3
    2880:	10800017 	ldw	r2,0(r2)
    2884:	3085883a 	add	r2,r6,r2
    2888:	1085883a 	add	r2,r2,r2
    288c:	e0bffe15 	stw	r2,-8(fp)
               audiol_temp = audiol_temp>>3;
    2890:	e0bffe17 	ldw	r2,-8(fp)
    2894:	1005d0fa 	srai	r2,r2,3
    2898:	e0bffe15 	stw	r2,-8(fp)
               audio_rst = (int)audior_temp;
    289c:	e0bffd17 	ldw	r2,-12(fp)
    28a0:	e0bfff15 	stw	r2,-4(fp)
               *(pAudio + 3) = audio_rst;
    28a4:	d0a00517 	ldw	r2,-32748(gp)
    28a8:	10800304 	addi	r2,r2,12
    28ac:	e0ffff17 	ldw	r3,-4(fp)
    28b0:	10c00015 	stw	r3,0(r2)
               audio_rst = (int)audiol_temp;
    28b4:	e0bffe17 	ldw	r2,-8(fp)
    28b8:	e0bfff15 	stw	r2,-4(fp)
               *(pAudio + 2) = audio_rst;
    28bc:	d0a00517 	ldw	r2,-32748(gp)
    28c0:	10800204 	addi	r2,r2,8
    28c4:	e0ffff17 	ldw	r3,-4(fp)
    28c8:	10c00015 	stw	r3,0(r2)
    28cc:	00006c06 	br	2a80 <Audio_ISR+0x544>

            }
            else
            {
               audior_temp = r_buf[sr][buffer_index]*4+r_buf[sr][buffer_index-8000]*2+r_buf[sr][buffer_index-16000];
    28d0:	d17a7e17 	ldw	r5,-5640(gp)
    28d4:	d13a7d17 	ldw	r4,-5644(gp)
    28d8:	008001b4 	movhi	r2,6
    28dc:	108edd04 	addi	r2,r2,15220
    28e0:	00c00234 	movhi	r3,8
    28e4:	18e84804 	addi	r3,r3,-24288
    28e8:	28c7383a 	mul	r3,r5,r3
    28ec:	1907883a 	add	r3,r3,r4
    28f0:	18c7883a 	add	r3,r3,r3
    28f4:	18c7883a 	add	r3,r3,r3
    28f8:	10c5883a 	add	r2,r2,r3
    28fc:	10800017 	ldw	r2,0(r2)
    2900:	1085883a 	add	r2,r2,r2
    2904:	100d883a 	mov	r6,r2
    2908:	d17a7e17 	ldw	r5,-5640(gp)
    290c:	d0ba7d17 	ldw	r2,-5644(gp)
    2910:	11383004 	addi	r4,r2,-8000
    2914:	008001b4 	movhi	r2,6
    2918:	108edd04 	addi	r2,r2,15220
    291c:	00c00234 	movhi	r3,8
    2920:	18e84804 	addi	r3,r3,-24288
    2924:	28c7383a 	mul	r3,r5,r3
    2928:	1907883a 	add	r3,r3,r4
    292c:	18c7883a 	add	r3,r3,r3
    2930:	18c7883a 	add	r3,r3,r3
    2934:	10c5883a 	add	r2,r2,r3
    2938:	10800017 	ldw	r2,0(r2)
    293c:	3085883a 	add	r2,r6,r2
    2940:	1085883a 	add	r2,r2,r2
    2944:	100d883a 	mov	r6,r2
    2948:	d17a7e17 	ldw	r5,-5640(gp)
    294c:	d0ba7d17 	ldw	r2,-5644(gp)
    2950:	11306004 	addi	r4,r2,-16000
    2954:	008001b4 	movhi	r2,6
    2958:	108edd04 	addi	r2,r2,15220
    295c:	00c00234 	movhi	r3,8
    2960:	18e84804 	addi	r3,r3,-24288
    2964:	28c7383a 	mul	r3,r5,r3
    2968:	1907883a 	add	r3,r3,r4
    296c:	18c7883a 	add	r3,r3,r3
    2970:	18c7883a 	add	r3,r3,r3
    2974:	10c5883a 	add	r2,r2,r3
    2978:	10800017 	ldw	r2,0(r2)
    297c:	3085883a 	add	r2,r6,r2
    2980:	e0bffd15 	stw	r2,-12(fp)
               audior_temp = audior_temp>>3;
    2984:	e0bffd17 	ldw	r2,-12(fp)
    2988:	1005d0fa 	srai	r2,r2,3
    298c:	e0bffd15 	stw	r2,-12(fp)
               audiol_temp = l_buf[sr][buffer_index]*4+l_buf[sr][buffer_index-8000]*2+l_buf[sr][buffer_index-16000];
    2990:	d17a7e17 	ldw	r5,-5640(gp)
    2994:	d13a7d17 	ldw	r4,-5644(gp)
    2998:	008011f4 	movhi	r2,71
    299c:	10911d04 	addi	r2,r2,17524
    29a0:	00c00234 	movhi	r3,8
    29a4:	18e84804 	addi	r3,r3,-24288
    29a8:	28c7383a 	mul	r3,r5,r3
    29ac:	1907883a 	add	r3,r3,r4
    29b0:	18c7883a 	add	r3,r3,r3
    29b4:	18c7883a 	add	r3,r3,r3
    29b8:	10c5883a 	add	r2,r2,r3
    29bc:	10800017 	ldw	r2,0(r2)
    29c0:	1085883a 	add	r2,r2,r2
    29c4:	100d883a 	mov	r6,r2
    29c8:	d17a7e17 	ldw	r5,-5640(gp)
    29cc:	d0ba7d17 	ldw	r2,-5644(gp)
    29d0:	11383004 	addi	r4,r2,-8000
    29d4:	008011f4 	movhi	r2,71
    29d8:	10911d04 	addi	r2,r2,17524
    29dc:	00c00234 	movhi	r3,8
    29e0:	18e84804 	addi	r3,r3,-24288
    29e4:	28c7383a 	mul	r3,r5,r3
    29e8:	1907883a 	add	r3,r3,r4
    29ec:	18c7883a 	add	r3,r3,r3
    29f0:	18c7883a 	add	r3,r3,r3
    29f4:	10c5883a 	add	r2,r2,r3
    29f8:	10800017 	ldw	r2,0(r2)
    29fc:	3085883a 	add	r2,r6,r2
    2a00:	1085883a 	add	r2,r2,r2
    2a04:	100d883a 	mov	r6,r2
    2a08:	d17a7e17 	ldw	r5,-5640(gp)
    2a0c:	d0ba7d17 	ldw	r2,-5644(gp)
    2a10:	11306004 	addi	r4,r2,-16000
    2a14:	008011f4 	movhi	r2,71
    2a18:	10911d04 	addi	r2,r2,17524
    2a1c:	00c00234 	movhi	r3,8
    2a20:	18e84804 	addi	r3,r3,-24288
    2a24:	28c7383a 	mul	r3,r5,r3
    2a28:	1907883a 	add	r3,r3,r4
    2a2c:	18c7883a 	add	r3,r3,r3
    2a30:	18c7883a 	add	r3,r3,r3
    2a34:	10c5883a 	add	r2,r2,r3
    2a38:	10800017 	ldw	r2,0(r2)
    2a3c:	3085883a 	add	r2,r6,r2
    2a40:	e0bffe15 	stw	r2,-8(fp)
               audiol_temp = audiol_temp>>3;
    2a44:	e0bffe17 	ldw	r2,-8(fp)
    2a48:	1005d0fa 	srai	r2,r2,3
    2a4c:	e0bffe15 	stw	r2,-8(fp)
               audio_rst = (int)audior_temp;
    2a50:	e0bffd17 	ldw	r2,-12(fp)
    2a54:	e0bfff15 	stw	r2,-4(fp)
               *(pAudio + 3) = audio_rst;
    2a58:	d0a00517 	ldw	r2,-32748(gp)
    2a5c:	10800304 	addi	r2,r2,12
    2a60:	e0ffff17 	ldw	r3,-4(fp)
    2a64:	10c00015 	stw	r3,0(r2)
               audio_rst = (int)audiol_temp;
    2a68:	e0bffe17 	ldw	r2,-8(fp)
    2a6c:	e0bfff15 	stw	r2,-4(fp)
               *(pAudio + 2) = audio_rst;
    2a70:	d0a00517 	ldw	r2,-32748(gp)
    2a74:	10800204 	addi	r2,r2,8
    2a78:	e0ffff17 	ldw	r3,-4(fp)
    2a7c:	10c00015 	stw	r3,0(r2)
            }


         }
         ++buffer_index;
    2a80:	d0ba7d17 	ldw	r2,-5644(gp)
    2a84:	10800044 	addi	r2,r2,1
    2a88:	d0ba7d15 	stw	r2,-5644(gp)
         play = 0;
         *(pLED) = 0;
         if(mode ==4) HEX_PrintHEX(40,0,0);
      }
   }
}
    2a8c:	00001206 	br	2ad8 <Audio_ISR+0x59c>


         }
         ++buffer_index;
      }
      else if (buffer_index >= BUF_SIZE)
    2a90:	d0fa7d17 	ldw	r3,-5644(gp)
    2a94:	00800234 	movhi	r2,8
    2a98:	10a847c4 	addi	r2,r2,-24289
    2a9c:	10c00e0e 	bge	r2,r3,2ad8 <Audio_ISR+0x59c>
      {
         *(pAudio) = 0;
    2aa0:	d0a00517 	ldw	r2,-32748(gp)
    2aa4:	10000015 	stw	zero,0(r2)
         play = 0;
    2aa8:	d03a7c15 	stw	zero,-5648(gp)
         *(pLED) = 0;
    2aac:	d0a00617 	ldw	r2,-32744(gp)
    2ab0:	10000015 	stw	zero,0(r2)
         if(mode ==4) HEX_PrintHEX(40,0,0);
    2ab4:	d0ba8017 	ldw	r2,-5632(gp)
    2ab8:	10800118 	cmpnei	r2,r2,4
    2abc:	1000061e 	bne	r2,zero,2ad8 <Audio_ISR+0x59c>
    2ac0:	000d883a 	mov	r6,zero
    2ac4:	000b883a 	mov	r5,zero
    2ac8:	01000a04 	movi	r4,40
    2acc:	00022bc0 	call	22bc <HEX_PrintHEX>
      }
   }
}
    2ad0:	00000106 	br	2ad8 <Audio_ISR+0x59c>
{
   ////recored////
   if (record == 1 && mode == 4)
   {
      *(pLED) = 0x1;
      if (buffer_index < BUF_SIZE)
    2ad4:	0001883a 	nop
         play = 0;
         *(pLED) = 0;
         if(mode ==4) HEX_PrintHEX(40,0,0);
      }
   }
}
    2ad8:	0001883a 	nop
    2adc:	e037883a 	mov	sp,fp
    2ae0:	dfc00117 	ldw	ra,4(sp)
    2ae4:	df000017 	ldw	fp,0(sp)
    2ae8:	dec00204 	addi	sp,sp,8
    2aec:	f800283a 	ret

00002af0 <Audio_Record>:

void Audio_Record() {
    2af0:	defffe04 	addi	sp,sp,-8
    2af4:	dfc00115 	stw	ra,4(sp)
    2af8:	df000015 	stw	fp,0(sp)
    2afc:	d839883a 	mov	fp,sp
	printf("audio record \n");
    2b00:	01000074 	movhi	r4,1
    2b04:	2118ea04 	addi	r4,r4,25512
    2b08:	00030d00 	call	30d0 <puts>
	buffer_index = 0;
    2b0c:	d03a7d15 	stw	zero,-5644(gp)
	*(pAudio) = 0x1;
    2b10:	d0a00517 	ldw	r2,-32748(gp)
    2b14:	00c00044 	movi	r3,1
    2b18:	10c00015 	stw	r3,0(r2)
	record = 1;
    2b1c:	00800044 	movi	r2,1
    2b20:	d0ba7b15 	stw	r2,-5652(gp)
	HEX_PrintHEX(41, 0, 0);
    2b24:	000d883a 	mov	r6,zero
    2b28:	000b883a 	mov	r5,zero
    2b2c:	01000a44 	movi	r4,41
    2b30:	00022bc0 	call	22bc <HEX_PrintHEX>
}
    2b34:	0001883a 	nop
    2b38:	e037883a 	mov	sp,fp
    2b3c:	dfc00117 	ldw	ra,4(sp)
    2b40:	df000017 	ldw	fp,0(sp)
    2b44:	dec00204 	addi	sp,sp,8
    2b48:	f800283a 	ret

00002b4c <Audio_Echo>:

void Audio_Echo() {
    2b4c:	defffe04 	addi	sp,sp,-8
    2b50:	dfc00115 	stw	ra,4(sp)
    2b54:	df000015 	stw	fp,0(sp)
    2b58:	d839883a 	mov	fp,sp
	printf("audio play\n");
    2b5c:	01000074 	movhi	r4,1
    2b60:	2118ee04 	addi	r4,r4,25528
    2b64:	00030d00 	call	30d0 <puts>
	echo = echo ^ 1;
    2b68:	d0ba7f17 	ldw	r2,-5636(gp)
    2b6c:	1080005c 	xori	r2,r2,1
    2b70:	d0ba7f15 	stw	r2,-5636(gp)
	HEX_PrintHEX(43, (sr + 1), 0);
    2b74:	d0ba7e17 	ldw	r2,-5640(gp)
    2b78:	10800044 	addi	r2,r2,1
    2b7c:	000d883a 	mov	r6,zero
    2b80:	100b883a 	mov	r5,r2
    2b84:	01000ac4 	movi	r4,43
    2b88:	00022bc0 	call	22bc <HEX_PrintHEX>
}
    2b8c:	0001883a 	nop
    2b90:	e037883a 	mov	sp,fp
    2b94:	dfc00117 	ldw	ra,4(sp)
    2b98:	df000017 	ldw	fp,0(sp)
    2b9c:	dec00204 	addi	sp,sp,8
    2ba0:	f800283a 	ret

00002ba4 <Audio_Change>:

void Audio_Change() {
    2ba4:	defffe04 	addi	sp,sp,-8
    2ba8:	dfc00115 	stw	ra,4(sp)
    2bac:	df000015 	stw	fp,0(sp)
    2bb0:	d839883a 	mov	fp,sp
	printf("audio change 2\n");
    2bb4:	01000074 	movhi	r4,1
    2bb8:	2118f104 	addi	r4,r4,25540
    2bbc:	00030d00 	call	30d0 <puts>
	sr = (sr==0)? 1:0;
    2bc0:	d0ba7e17 	ldw	r2,-5640(gp)
    2bc4:	1005003a 	cmpeq	r2,r2,zero
    2bc8:	10803fcc 	andi	r2,r2,255
    2bcc:	d0ba7e15 	stw	r2,-5640(gp)
	HEX_PrintHEX(43, (sr + 1), 0);
    2bd0:	d0ba7e17 	ldw	r2,-5640(gp)
    2bd4:	10800044 	addi	r2,r2,1
    2bd8:	000d883a 	mov	r6,zero
    2bdc:	100b883a 	mov	r5,r2
    2be0:	01000ac4 	movi	r4,43
    2be4:	00022bc0 	call	22bc <HEX_PrintHEX>
}
    2be8:	0001883a 	nop
    2bec:	e037883a 	mov	sp,fp
    2bf0:	dfc00117 	ldw	ra,4(sp)
    2bf4:	df000017 	ldw	fp,0(sp)
    2bf8:	dec00204 	addi	sp,sp,8
    2bfc:	f800283a 	ret

00002c00 <Audio_Mute>:

void Audio_Mute() {
    2c00:	defffe04 	addi	sp,sp,-8
    2c04:	dfc00115 	stw	ra,4(sp)
    2c08:	df000015 	stw	fp,0(sp)
    2c0c:	d839883a 	mov	fp,sp
	printf("audio x\n");
    2c10:	01000074 	movhi	r4,1
    2c14:	2118f504 	addi	r4,r4,25556
    2c18:	00030d00 	call	30d0 <puts>
}
    2c1c:	0001883a 	nop
    2c20:	e037883a 	mov	sp,fp
    2c24:	dfc00117 	ldw	ra,4(sp)
    2c28:	df000017 	ldw	fp,0(sp)
    2c2c:	dec00204 	addi	sp,sp,8
    2c30:	f800283a 	ret

00002c34 <Audio_Play>:

void Audio_Play() {
    2c34:	deffff04 	addi	sp,sp,-4
    2c38:	df000015 	stw	fp,0(sp)
    2c3c:	d839883a 	mov	fp,sp
	buffer_index = 0;
    2c40:	d03a7d15 	stw	zero,-5644(gp)
	*(pAudio) = 0x2;
    2c44:	d0a00517 	ldw	r2,-32748(gp)
    2c48:	00c00084 	movi	r3,2
    2c4c:	10c00015 	stw	r3,0(r2)
	play = 1;
    2c50:	00800044 	movi	r2,1
    2c54:	d0ba7c15 	stw	r2,-5648(gp)
}
    2c58:	0001883a 	nop
    2c5c:	e037883a 	mov	sp,fp
    2c60:	df000017 	ldw	fp,0(sp)
    2c64:	dec00104 	addi	sp,sp,4
    2c68:	f800283a 	ret

00002c6c <Init_KEY_SW>:
//==========================================================================

void Pushbutton_ISR();
int mode = 0;

void Init_KEY_SW() {
    2c6c:	defffd04 	addi	sp,sp,-12
    2c70:	dfc00215 	stw	ra,8(sp)
    2c74:	df000115 	stw	fp,4(sp)
    2c78:	df000104 	addi	fp,sp,4
	*(pKEY+2) = 0b1111;
    2c7c:	d0a00717 	ldw	r2,-32740(gp)
    2c80:	10800204 	addi	r2,r2,8
    2c84:	00c003c4 	movi	r3,15
    2c88:	10c00015 	stw	r3,0(r2)
	int pb_ctxt = 0;
    2c8c:	e03fff15 	stw	zero,-4(fp)
	alt_irq_register(1, (void *)&pb_ctxt, (void *)Pushbutton_ISR);
    2c90:	01800034 	movhi	r6,0
    2c94:	318b2f04 	addi	r6,r6,11452
    2c98:	e17fff04 	addi	r5,fp,-4
    2c9c:	01000044 	movi	r4,1
    2ca0:	000fae80 	call	fae8 <alt_irq_register>
}
    2ca4:	0001883a 	nop
    2ca8:	e037883a 	mov	sp,fp
    2cac:	dfc00117 	ldw	ra,4(sp)
    2cb0:	df000017 	ldw	fp,0(sp)
    2cb4:	dec00204 	addi	sp,sp,8
    2cb8:	f800283a 	ret

00002cbc <Pushbutton_ISR>:

void Pushbutton_ISR()
{
    2cbc:	defffc04 	addi	sp,sp,-16
    2cc0:	dfc00315 	stw	ra,12(sp)
    2cc4:	df000215 	stw	fp,8(sp)
    2cc8:	df000204 	addi	fp,sp,8
   ////update and reset key value////
   int key_value;
   key_value = *(pKEY + 3);
    2ccc:	d0a00717 	ldw	r2,-32740(gp)
    2cd0:	10800317 	ldw	r2,12(r2)
    2cd4:	e0bffe15 	stw	r2,-8(fp)
   *(pKEY + 3) = key_value;
    2cd8:	d0a00717 	ldw	r2,-32740(gp)
    2cdc:	10800304 	addi	r2,r2,12
    2ce0:	e0fffe17 	ldw	r3,-8(fp)
    2ce4:	10c00015 	stw	r3,0(r2)
   int swval = *pSwitch;
    2ce8:	d0a00817 	ldw	r2,-32736(gp)
    2cec:	10800017 	ldw	r2,0(r2)
    2cf0:	e0bfff15 	stw	r2,-4(fp)


   //========================================================================================
   //	MODE 99 CONTROL
   //========================================================================================
   if (mode == 99) {
    2cf4:	d0ba8017 	ldw	r2,-5632(gp)
    2cf8:	108018d8 	cmpnei	r2,r2,99
    2cfc:	1000301e 	bne	r2,zero,2dc0 <Pushbutton_ISR+0x104>
	   if ((swval == 0) && (key_value == 8))      mode = 0;
    2d00:	e0bfff17 	ldw	r2,-4(fp)
    2d04:	1000051e 	bne	r2,zero,2d1c <Pushbutton_ISR+0x60>
    2d08:	e0bffe17 	ldw	r2,-8(fp)
    2d0c:	10800218 	cmpnei	r2,r2,8
    2d10:	1000021e 	bne	r2,zero,2d1c <Pushbutton_ISR+0x60>
    2d14:	d03a8015 	stw	zero,-5632(gp)
    2d18:	00002306 	br	2da8 <Pushbutton_ISR+0xec>
	   else if ((swval == 1) && (key_value == 8)) mode = 1;
    2d1c:	e0bfff17 	ldw	r2,-4(fp)
    2d20:	10800058 	cmpnei	r2,r2,1
    2d24:	1000061e 	bne	r2,zero,2d40 <Pushbutton_ISR+0x84>
    2d28:	e0bffe17 	ldw	r2,-8(fp)
    2d2c:	10800218 	cmpnei	r2,r2,8
    2d30:	1000031e 	bne	r2,zero,2d40 <Pushbutton_ISR+0x84>
    2d34:	00800044 	movi	r2,1
    2d38:	d0ba8015 	stw	r2,-5632(gp)
    2d3c:	00001a06 	br	2da8 <Pushbutton_ISR+0xec>
	   else if ((swval == 2) && (key_value == 8)) mode = 2;
    2d40:	e0bfff17 	ldw	r2,-4(fp)
    2d44:	10800098 	cmpnei	r2,r2,2
    2d48:	1000061e 	bne	r2,zero,2d64 <Pushbutton_ISR+0xa8>
    2d4c:	e0bffe17 	ldw	r2,-8(fp)
    2d50:	10800218 	cmpnei	r2,r2,8
    2d54:	1000031e 	bne	r2,zero,2d64 <Pushbutton_ISR+0xa8>
    2d58:	00800084 	movi	r2,2
    2d5c:	d0ba8015 	stw	r2,-5632(gp)
    2d60:	00001106 	br	2da8 <Pushbutton_ISR+0xec>
	   else if ((swval == 4) && (key_value == 8)) mode = 3;
    2d64:	e0bfff17 	ldw	r2,-4(fp)
    2d68:	10800118 	cmpnei	r2,r2,4
    2d6c:	1000061e 	bne	r2,zero,2d88 <Pushbutton_ISR+0xcc>
    2d70:	e0bffe17 	ldw	r2,-8(fp)
    2d74:	10800218 	cmpnei	r2,r2,8
    2d78:	1000031e 	bne	r2,zero,2d88 <Pushbutton_ISR+0xcc>
    2d7c:	008000c4 	movi	r2,3
    2d80:	d0ba8015 	stw	r2,-5632(gp)
    2d84:	00000806 	br	2da8 <Pushbutton_ISR+0xec>
	   else if ((swval == 8) && (key_value == 8)) mode = 4;
    2d88:	e0bfff17 	ldw	r2,-4(fp)
    2d8c:	10800218 	cmpnei	r2,r2,8
    2d90:	1000051e 	bne	r2,zero,2da8 <Pushbutton_ISR+0xec>
    2d94:	e0bffe17 	ldw	r2,-8(fp)
    2d98:	10800218 	cmpnei	r2,r2,8
    2d9c:	1000021e 	bne	r2,zero,2da8 <Pushbutton_ISR+0xec>
    2da0:	00800104 	movi	r2,4
    2da4:	d0ba8015 	stw	r2,-5632(gp)

	   if (mode == 2) VGA_IsAlarmSettingMode = 1;
    2da8:	d0ba8017 	ldw	r2,-5632(gp)
    2dac:	10800098 	cmpnei	r2,r2,2
    2db0:	10006f1e 	bne	r2,zero,2f70 <Pushbutton_ISR+0x2b4>
    2db4:	00800044 	movi	r2,1
    2db8:	d0ba7815 	stw	r2,-5664(gp)
	   return;
    2dbc:	00006c06 	br	2f70 <Pushbutton_ISR+0x2b4>
   }

   //========================================================================================
   //	MODE 0 - MODE 4 CONTROL
   //========================================================================================
   else if ( mode >= 0 ) {
    2dc0:	d0ba8017 	ldw	r2,-5632(gp)
    2dc4:	10006b16 	blt	r2,zero,2f74 <Pushbutton_ISR+0x2b8>

	   //====================================================================================
	   //	MODE 0 :  
       //====================================================================================
	   if(mode == 0 ) {
    2dc8:	d0ba8017 	ldw	r2,-5632(gp)
    2dcc:	10001b1e 	bne	r2,zero,2e3c <Pushbutton_ISR+0x180>
		   if (key_value == 1)
    2dd0:	e0bffe17 	ldw	r2,-8(fp)
    2dd4:	10800058 	cmpnei	r2,r2,1
    2dd8:	1000041e 	bne	r2,zero,2dec <Pushbutton_ISR+0x130>
			   VGA_MonitorPower = VGA_MonitorPower ^ 1;
    2ddc:	d0a00417 	ldw	r2,-32752(gp)
    2de0:	1080005c 	xori	r2,r2,1
    2de4:	d0a00415 	stw	r2,-32752(gp)
    2de8:	00006206 	br	2f74 <Pushbutton_ISR+0x2b8>
		  else if(key_value == 2) {
    2dec:	e0bffe17 	ldw	r2,-8(fp)
    2df0:	10800098 	cmpnei	r2,r2,2
    2df4:	1000041e 	bne	r2,zero,2e08 <Pushbutton_ISR+0x14c>
			 // TO-DO : Tem / Hum read
			 printf("common key 1\n");
    2df8:	01000074 	movhi	r4,1
    2dfc:	2118f704 	addi	r4,r4,25564
    2e00:	00030d00 	call	30d0 <puts>
    2e04:	00005b06 	br	2f74 <Pushbutton_ISR+0x2b8>
		  }
		  else if(key_value == 4)
    2e08:	e0bffe17 	ldw	r2,-8(fp)
    2e0c:	10800118 	cmpnei	r2,r2,4
    2e10:	1000041e 	bne	r2,zero,2e24 <Pushbutton_ISR+0x168>
			 VGA_IsAlarmMode = VGA_IsAlarmMode ^ 1;
    2e14:	d0ba7917 	ldw	r2,-5660(gp)
    2e18:	1080005c 	xori	r2,r2,1
    2e1c:	d0ba7915 	stw	r2,-5660(gp)
    2e20:	00005406 	br	2f74 <Pushbutton_ISR+0x2b8>
		  else if(key_value == 8)
    2e24:	e0bffe17 	ldw	r2,-8(fp)
    2e28:	10800218 	cmpnei	r2,r2,8
    2e2c:	1000511e 	bne	r2,zero,2f74 <Pushbutton_ISR+0x2b8>
			  mode = 99;
    2e30:	008018c4 	movi	r2,99
    2e34:	d0ba8015 	stw	r2,-5632(gp)
    2e38:	00004e06 	br	2f74 <Pushbutton_ISR+0x2b8>
	   }

	   //====================================================================================
	   //	MODE 1 :   
	   //====================================================================================
	   else if(mode == 1 ) {
    2e3c:	d0ba8017 	ldw	r2,-5632(gp)
    2e40:	10800058 	cmpnei	r2,r2,1
    2e44:	1000141e 	bne	r2,zero,2e98 <Pushbutton_ISR+0x1dc>
		  if(key_value == 1)
    2e48:	e0bffe17 	ldw	r2,-8(fp)
    2e4c:	10800058 	cmpnei	r2,r2,1
    2e50:	1000021e 	bne	r2,zero,2e5c <Pushbutton_ISR+0x1a0>
			  CLOCK_SettingUp();
    2e54:	0000a180 	call	a18 <CLOCK_SettingUp>
    2e58:	00004606 	br	2f74 <Pushbutton_ISR+0x2b8>
		  else if(key_value == 2)
    2e5c:	e0bffe17 	ldw	r2,-8(fp)
    2e60:	10800098 	cmpnei	r2,r2,2
    2e64:	1000021e 	bne	r2,zero,2e70 <Pushbutton_ISR+0x1b4>
			  CLOCK_SettingDown();
    2e68:	0000bfc0 	call	bfc <CLOCK_SettingDown>
    2e6c:	00004106 	br	2f74 <Pushbutton_ISR+0x2b8>
		  else if(key_value == 4)
    2e70:	e0bffe17 	ldw	r2,-8(fp)
    2e74:	10800118 	cmpnei	r2,r2,4
    2e78:	1000021e 	bne	r2,zero,2e84 <Pushbutton_ISR+0x1c8>
			  CLOCK_SettingMove();
    2e7c:	0000de00 	call	de0 <CLOCK_SettingMove>
    2e80:	00003c06 	br	2f74 <Pushbutton_ISR+0x2b8>
		  else if(key_value == 8)
    2e84:	e0bffe17 	ldw	r2,-8(fp)
    2e88:	10800218 	cmpnei	r2,r2,8
    2e8c:	1000391e 	bne	r2,zero,2f74 <Pushbutton_ISR+0x2b8>
			  CLOCK_SettingSave();
    2e90:	0000e1c0 	call	e1c <CLOCK_SettingSave>
    2e94:	00003706 	br	2f74 <Pushbutton_ISR+0x2b8>
	   }

	   //====================================================================================
	   //	MODE 2 :   
	   //====================================================================================
	   else if(mode == 2 ) {
    2e98:	d0ba8017 	ldw	r2,-5632(gp)
    2e9c:	10800098 	cmpnei	r2,r2,2
    2ea0:	1000141e 	bne	r2,zero,2ef4 <Pushbutton_ISR+0x238>
		   if (key_value == 1)
    2ea4:	e0bffe17 	ldw	r2,-8(fp)
    2ea8:	10800058 	cmpnei	r2,r2,1
    2eac:	1000021e 	bne	r2,zero,2eb8 <Pushbutton_ISR+0x1fc>
			   ALARM_SettingUp();
    2eb0:	00005e40 	call	5e4 <ALARM_SettingUp>
    2eb4:	00002f06 	br	2f74 <Pushbutton_ISR+0x2b8>
		   else if (key_value == 2)
    2eb8:	e0bffe17 	ldw	r2,-8(fp)
    2ebc:	10800098 	cmpnei	r2,r2,2
    2ec0:	1000021e 	bne	r2,zero,2ecc <Pushbutton_ISR+0x210>
			   ALARM_SettingDown();
    2ec4:	00007c80 	call	7c8 <ALARM_SettingDown>
    2ec8:	00002a06 	br	2f74 <Pushbutton_ISR+0x2b8>
		   else if (key_value == 4)
    2ecc:	e0bffe17 	ldw	r2,-8(fp)
    2ed0:	10800118 	cmpnei	r2,r2,4
    2ed4:	1000021e 	bne	r2,zero,2ee0 <Pushbutton_ISR+0x224>
			   ALARM_SettingMove();
    2ed8:	00009ac0 	call	9ac <ALARM_SettingMove>
    2edc:	00002506 	br	2f74 <Pushbutton_ISR+0x2b8>
		   else if (key_value == 8)
    2ee0:	e0bffe17 	ldw	r2,-8(fp)
    2ee4:	10800218 	cmpnei	r2,r2,8
    2ee8:	1000221e 	bne	r2,zero,2f74 <Pushbutton_ISR+0x2b8>
			   ALARM_SettingSave();
    2eec:	00009e80 	call	9e8 <ALARM_SettingSave>
    2ef0:	00002006 	br	2f74 <Pushbutton_ISR+0x2b8>
	   } 
	   
	   //====================================================================================
	   //	MODE 3 :    (    )
	   //====================================================================================
	   else if (mode == 3) {
    2ef4:	d0ba8017 	ldw	r2,-5632(gp)
    2ef8:	108000e0 	cmpeqi	r2,r2,3
    2efc:	10001d1e 	bne	r2,zero,2f74 <Pushbutton_ISR+0x2b8>
	   }
	   
	   //====================================================================================
	   //	MODE 4 :   
	   //====================================================================================
	   else if(mode == 3 ) {
    2f00:	d0ba8017 	ldw	r2,-5632(gp)
    2f04:	108000d8 	cmpnei	r2,r2,3
    2f08:	1000151e 	bne	r2,zero,2f60 <Pushbutton_ISR+0x2a4>
		   if (key_value == 1)
    2f0c:	e0bffe17 	ldw	r2,-8(fp)
    2f10:	10800058 	cmpnei	r2,r2,1
    2f14:	1000021e 	bne	r2,zero,2f20 <Pushbutton_ISR+0x264>
			   Audio_Record();
    2f18:	0002af00 	call	2af0 <Audio_Record>
    2f1c:	00001506 	br	2f74 <Pushbutton_ISR+0x2b8>
		   else if (key_value == 2)
    2f20:	e0bffe17 	ldw	r2,-8(fp)
    2f24:	10800098 	cmpnei	r2,r2,2
    2f28:	1000021e 	bne	r2,zero,2f34 <Pushbutton_ISR+0x278>
			   Audio_Play();
    2f2c:	0002c340 	call	2c34 <Audio_Play>
    2f30:	00001006 	br	2f74 <Pushbutton_ISR+0x2b8>
		   else if (key_value == 4)
    2f34:	e0bffe17 	ldw	r2,-8(fp)
    2f38:	10800118 	cmpnei	r2,r2,4
    2f3c:	1000021e 	bne	r2,zero,2f48 <Pushbutton_ISR+0x28c>
			   Audio_Change();
    2f40:	0002ba40 	call	2ba4 <Audio_Change>
    2f44:	00000b06 	br	2f74 <Pushbutton_ISR+0x2b8>
		   else if (key_value == 8) {
    2f48:	e0bffe17 	ldw	r2,-8(fp)
    2f4c:	10800218 	cmpnei	r2,r2,8
    2f50:	1000081e 	bne	r2,zero,2f74 <Pushbutton_ISR+0x2b8>
			   Audio_Mute();
    2f54:	0002c000 	call	2c00 <Audio_Mute>
			   mode = 0;
    2f58:	d03a8015 	stw	zero,-5632(gp)
    2f5c:	00000506 	br	2f74 <Pushbutton_ISR+0x2b8>
		   }
	   } else printf("change sw"); 
    2f60:	01000074 	movhi	r4,1
    2f64:	2118fb04 	addi	r4,r4,25580
    2f68:	0002fd40 	call	2fd4 <printf>
    2f6c:	00000106 	br	2f74 <Pushbutton_ISR+0x2b8>
	   else if ((swval == 2) && (key_value == 8)) mode = 2;
	   else if ((swval == 4) && (key_value == 8)) mode = 3;
	   else if ((swval == 8) && (key_value == 8)) mode = 4;

	   if (mode == 2) VGA_IsAlarmSettingMode = 1;
	   return;
    2f70:	0001883a 	nop
			   Audio_Mute();
			   mode = 0;
		   }
	   } else printf("change sw"); 
   }
}
    2f74:	e037883a 	mov	sp,fp
    2f78:	dfc00117 	ldw	ra,4(sp)
    2f7c:	df000017 	ldw	fp,0(sp)
    2f80:	dec00204 	addi	sp,sp,8
    2f84:	f800283a 	ret

00002f88 <main>:
volatile int * pKEY 	= (int *)0xff200050;
volatile int * pSwitch 	= (int *)0xff200040;
volatile int * pHEX0_3  = (int *)0xFF200020;
volatile int * pHEX4_5  = (int *)0xFF200030;

int main() {
    2f88:	defffe04 	addi	sp,sp,-8
    2f8c:	dfc00115 	stw	ra,4(sp)
    2f90:	df000015 	stw	fp,0(sp)
    2f94:	d839883a 	mov	fp,sp
	Init_VGA();
    2f98:	00010540 	call	1054 <Init_VGA>
	Init_KEY_SW();
    2f9c:	0002c6c0 	call	2c6c <Init_KEY_SW>

	while(1);
    2fa0:	003fff06 	br	2fa0 <__alt_mem_ARM_A9_HPS_axi_sdram+0xc0002fa0>

00002fa4 <_printf_r>:
    2fa4:	defffd04 	addi	sp,sp,-12
    2fa8:	2805883a 	mov	r2,r5
    2fac:	dfc00015 	stw	ra,0(sp)
    2fb0:	d9800115 	stw	r6,4(sp)
    2fb4:	d9c00215 	stw	r7,8(sp)
    2fb8:	21400217 	ldw	r5,8(r4)
    2fbc:	d9c00104 	addi	r7,sp,4
    2fc0:	100d883a 	mov	r6,r2
    2fc4:	000317c0 	call	317c <___vfprintf_internal_r>
    2fc8:	dfc00017 	ldw	ra,0(sp)
    2fcc:	dec00304 	addi	sp,sp,12
    2fd0:	f800283a 	ret

00002fd4 <printf>:
    2fd4:	defffc04 	addi	sp,sp,-16
    2fd8:	dfc00015 	stw	ra,0(sp)
    2fdc:	d9400115 	stw	r5,4(sp)
    2fe0:	d9800215 	stw	r6,8(sp)
    2fe4:	d9c00315 	stw	r7,12(sp)
    2fe8:	008000b4 	movhi	r2,2
    2fec:	10b44004 	addi	r2,r2,-12032
    2ff0:	10800017 	ldw	r2,0(r2)
    2ff4:	200b883a 	mov	r5,r4
    2ff8:	d9800104 	addi	r6,sp,4
    2ffc:	11000217 	ldw	r4,8(r2)
    3000:	00053740 	call	5374 <__vfprintf_internal>
    3004:	dfc00017 	ldw	ra,0(sp)
    3008:	dec00404 	addi	sp,sp,16
    300c:	f800283a 	ret

00003010 <_puts_r>:
    3010:	defff604 	addi	sp,sp,-40
    3014:	dc000715 	stw	r16,28(sp)
    3018:	2021883a 	mov	r16,r4
    301c:	2809883a 	mov	r4,r5
    3020:	dc400815 	stw	r17,32(sp)
    3024:	dfc00915 	stw	ra,36(sp)
    3028:	2823883a 	mov	r17,r5
    302c:	00030e40 	call	30e4 <strlen>
    3030:	10c00044 	addi	r3,r2,1
    3034:	d8800115 	stw	r2,4(sp)
    3038:	00800074 	movhi	r2,1
    303c:	1098fe04 	addi	r2,r2,25592
    3040:	d8800215 	stw	r2,8(sp)
    3044:	00800044 	movi	r2,1
    3048:	d8800315 	stw	r2,12(sp)
    304c:	00800084 	movi	r2,2
    3050:	dc400015 	stw	r17,0(sp)
    3054:	d8c00615 	stw	r3,24(sp)
    3058:	dec00415 	stw	sp,16(sp)
    305c:	d8800515 	stw	r2,20(sp)
    3060:	80000226 	beq	r16,zero,306c <_puts_r+0x5c>
    3064:	80800e17 	ldw	r2,56(r16)
    3068:	10001426 	beq	r2,zero,30bc <_puts_r+0xac>
    306c:	81400217 	ldw	r5,8(r16)
    3070:	2880030b 	ldhu	r2,12(r5)
    3074:	10c8000c 	andi	r3,r2,8192
    3078:	1800061e 	bne	r3,zero,3094 <_puts_r+0x84>
    307c:	29001917 	ldw	r4,100(r5)
    3080:	00f7ffc4 	movi	r3,-8193
    3084:	10880014 	ori	r2,r2,8192
    3088:	20c6703a 	and	r3,r4,r3
    308c:	2880030d 	sth	r2,12(r5)
    3090:	28c01915 	stw	r3,100(r5)
    3094:	d9800404 	addi	r6,sp,16
    3098:	8009883a 	mov	r4,r16
    309c:	00078a40 	call	78a4 <__sfvwrite_r>
    30a0:	1000091e 	bne	r2,zero,30c8 <_puts_r+0xb8>
    30a4:	00800284 	movi	r2,10
    30a8:	dfc00917 	ldw	ra,36(sp)
    30ac:	dc400817 	ldw	r17,32(sp)
    30b0:	dc000717 	ldw	r16,28(sp)
    30b4:	dec00a04 	addi	sp,sp,40
    30b8:	f800283a 	ret
    30bc:	8009883a 	mov	r4,r16
    30c0:	00074200 	call	7420 <__sinit>
    30c4:	003fe906 	br	306c <__alt_mem_ARM_A9_HPS_axi_sdram+0xc000306c>
    30c8:	00bfffc4 	movi	r2,-1
    30cc:	003ff606 	br	30a8 <__alt_mem_ARM_A9_HPS_axi_sdram+0xc00030a8>

000030d0 <puts>:
    30d0:	008000b4 	movhi	r2,2
    30d4:	10b44004 	addi	r2,r2,-12032
    30d8:	200b883a 	mov	r5,r4
    30dc:	11000017 	ldw	r4,0(r2)
    30e0:	00030101 	jmpi	3010 <_puts_r>

000030e4 <strlen>:
    30e4:	208000cc 	andi	r2,r4,3
    30e8:	10002026 	beq	r2,zero,316c <strlen+0x88>
    30ec:	20800007 	ldb	r2,0(r4)
    30f0:	10002026 	beq	r2,zero,3174 <strlen+0x90>
    30f4:	2005883a 	mov	r2,r4
    30f8:	00000206 	br	3104 <strlen+0x20>
    30fc:	10c00007 	ldb	r3,0(r2)
    3100:	18001826 	beq	r3,zero,3164 <strlen+0x80>
    3104:	10800044 	addi	r2,r2,1
    3108:	10c000cc 	andi	r3,r2,3
    310c:	183ffb1e 	bne	r3,zero,30fc <__alt_mem_ARM_A9_HPS_axi_sdram+0xc00030fc>
    3110:	10c00017 	ldw	r3,0(r2)
    3114:	01ffbff4 	movhi	r7,65279
    3118:	39ffbfc4 	addi	r7,r7,-257
    311c:	00ca303a 	nor	r5,zero,r3
    3120:	01a02074 	movhi	r6,32897
    3124:	19c7883a 	add	r3,r3,r7
    3128:	31a02004 	addi	r6,r6,-32640
    312c:	1946703a 	and	r3,r3,r5
    3130:	1986703a 	and	r3,r3,r6
    3134:	1800091e 	bne	r3,zero,315c <strlen+0x78>
    3138:	10800104 	addi	r2,r2,4
    313c:	10c00017 	ldw	r3,0(r2)
    3140:	19cb883a 	add	r5,r3,r7
    3144:	00c6303a 	nor	r3,zero,r3
    3148:	28c6703a 	and	r3,r5,r3
    314c:	1986703a 	and	r3,r3,r6
    3150:	183ff926 	beq	r3,zero,3138 <__alt_mem_ARM_A9_HPS_axi_sdram+0xc0003138>
    3154:	00000106 	br	315c <strlen+0x78>
    3158:	10800044 	addi	r2,r2,1
    315c:	10c00007 	ldb	r3,0(r2)
    3160:	183ffd1e 	bne	r3,zero,3158 <__alt_mem_ARM_A9_HPS_axi_sdram+0xc0003158>
    3164:	1105c83a 	sub	r2,r2,r4
    3168:	f800283a 	ret
    316c:	2005883a 	mov	r2,r4
    3170:	003fe706 	br	3110 <__alt_mem_ARM_A9_HPS_axi_sdram+0xc0003110>
    3174:	0005883a 	mov	r2,zero
    3178:	f800283a 	ret

0000317c <___vfprintf_internal_r>:
    317c:	deffb804 	addi	sp,sp,-288
    3180:	dfc04715 	stw	ra,284(sp)
    3184:	ddc04515 	stw	r23,276(sp)
    3188:	dd404315 	stw	r21,268(sp)
    318c:	d9002c15 	stw	r4,176(sp)
    3190:	282f883a 	mov	r23,r5
    3194:	302b883a 	mov	r21,r6
    3198:	d9c02d15 	stw	r7,180(sp)
    319c:	df004615 	stw	fp,280(sp)
    31a0:	dd804415 	stw	r22,272(sp)
    31a4:	dd004215 	stw	r20,264(sp)
    31a8:	dcc04115 	stw	r19,260(sp)
    31ac:	dc804015 	stw	r18,256(sp)
    31b0:	dc403f15 	stw	r17,252(sp)
    31b4:	dc003e15 	stw	r16,248(sp)
    31b8:	0007f940 	call	7f94 <_localeconv_r>
    31bc:	10800017 	ldw	r2,0(r2)
    31c0:	1009883a 	mov	r4,r2
    31c4:	d8803415 	stw	r2,208(sp)
    31c8:	00030e40 	call	30e4 <strlen>
    31cc:	d8803715 	stw	r2,220(sp)
    31d0:	d8802c17 	ldw	r2,176(sp)
    31d4:	10000226 	beq	r2,zero,31e0 <___vfprintf_internal_r+0x64>
    31d8:	10800e17 	ldw	r2,56(r2)
    31dc:	1000f926 	beq	r2,zero,35c4 <___vfprintf_internal_r+0x448>
    31e0:	b880030b 	ldhu	r2,12(r23)
    31e4:	10c8000c 	andi	r3,r2,8192
    31e8:	1800061e 	bne	r3,zero,3204 <___vfprintf_internal_r+0x88>
    31ec:	b9001917 	ldw	r4,100(r23)
    31f0:	00f7ffc4 	movi	r3,-8193
    31f4:	10880014 	ori	r2,r2,8192
    31f8:	20c6703a 	and	r3,r4,r3
    31fc:	b880030d 	sth	r2,12(r23)
    3200:	b8c01915 	stw	r3,100(r23)
    3204:	10c0020c 	andi	r3,r2,8
    3208:	1800c126 	beq	r3,zero,3510 <___vfprintf_internal_r+0x394>
    320c:	b8c00417 	ldw	r3,16(r23)
    3210:	1800bf26 	beq	r3,zero,3510 <___vfprintf_internal_r+0x394>
    3214:	1080068c 	andi	r2,r2,26
    3218:	00c00284 	movi	r3,10
    321c:	10c0c426 	beq	r2,r3,3530 <___vfprintf_internal_r+0x3b4>
    3220:	d8c00404 	addi	r3,sp,16
    3224:	05000074 	movhi	r20,1
    3228:	d9001e04 	addi	r4,sp,120
    322c:	a5190f84 	addi	r20,r20,25662
    3230:	d8c01e15 	stw	r3,120(sp)
    3234:	d8002015 	stw	zero,128(sp)
    3238:	d8001f15 	stw	zero,124(sp)
    323c:	d8003315 	stw	zero,204(sp)
    3240:	d8003615 	stw	zero,216(sp)
    3244:	d8003815 	stw	zero,224(sp)
    3248:	1811883a 	mov	r8,r3
    324c:	d8003915 	stw	zero,228(sp)
    3250:	d8003a15 	stw	zero,232(sp)
    3254:	d8002f15 	stw	zero,188(sp)
    3258:	d9002815 	stw	r4,160(sp)
    325c:	a8800007 	ldb	r2,0(r21)
    3260:	10027b26 	beq	r2,zero,3c50 <___vfprintf_internal_r+0xad4>
    3264:	00c00944 	movi	r3,37
    3268:	a821883a 	mov	r16,r21
    326c:	10c0021e 	bne	r2,r3,3278 <___vfprintf_internal_r+0xfc>
    3270:	00001406 	br	32c4 <___vfprintf_internal_r+0x148>
    3274:	10c00326 	beq	r2,r3,3284 <___vfprintf_internal_r+0x108>
    3278:	84000044 	addi	r16,r16,1
    327c:	80800007 	ldb	r2,0(r16)
    3280:	103ffc1e 	bne	r2,zero,3274 <__alt_mem_ARM_A9_HPS_axi_sdram+0xc0003274>
    3284:	8563c83a 	sub	r17,r16,r21
    3288:	88000e26 	beq	r17,zero,32c4 <___vfprintf_internal_r+0x148>
    328c:	d8c02017 	ldw	r3,128(sp)
    3290:	d8801f17 	ldw	r2,124(sp)
    3294:	45400015 	stw	r21,0(r8)
    3298:	1c47883a 	add	r3,r3,r17
    329c:	10800044 	addi	r2,r2,1
    32a0:	d8c02015 	stw	r3,128(sp)
    32a4:	44400115 	stw	r17,4(r8)
    32a8:	d8801f15 	stw	r2,124(sp)
    32ac:	00c001c4 	movi	r3,7
    32b0:	1880a716 	blt	r3,r2,3550 <___vfprintf_internal_r+0x3d4>
    32b4:	42000204 	addi	r8,r8,8
    32b8:	d9402f17 	ldw	r5,188(sp)
    32bc:	2c4b883a 	add	r5,r5,r17
    32c0:	d9402f15 	stw	r5,188(sp)
    32c4:	80800007 	ldb	r2,0(r16)
    32c8:	1000a826 	beq	r2,zero,356c <___vfprintf_internal_r+0x3f0>
    32cc:	84400047 	ldb	r17,1(r16)
    32d0:	00bfffc4 	movi	r2,-1
    32d4:	85400044 	addi	r21,r16,1
    32d8:	d8002785 	stb	zero,158(sp)
    32dc:	0007883a 	mov	r3,zero
    32e0:	000f883a 	mov	r7,zero
    32e4:	d8802915 	stw	r2,164(sp)
    32e8:	d8003115 	stw	zero,196(sp)
    32ec:	0025883a 	mov	r18,zero
    32f0:	01401604 	movi	r5,88
    32f4:	01800244 	movi	r6,9
    32f8:	02800a84 	movi	r10,42
    32fc:	02401b04 	movi	r9,108
    3300:	ad400044 	addi	r21,r21,1
    3304:	88bff804 	addi	r2,r17,-32
    3308:	28830436 	bltu	r5,r2,3f1c <___vfprintf_internal_r+0xda0>
    330c:	100490ba 	slli	r2,r2,2
    3310:	01000034 	movhi	r4,0
    3314:	210cc904 	addi	r4,r4,13092
    3318:	1105883a 	add	r2,r2,r4
    331c:	10800017 	ldw	r2,0(r2)
    3320:	1000683a 	jmp	r2
    3324:	00003e3c 	xorhi	zero,zero,248
    3328:	00003f1c 	xori	zero,zero,252
    332c:	00003f1c 	xori	zero,zero,252
    3330:	00003e5c 	xori	zero,zero,249
    3334:	00003f1c 	xori	zero,zero,252
    3338:	00003f1c 	xori	zero,zero,252
    333c:	00003f1c 	xori	zero,zero,252
    3340:	00003f1c 	xori	zero,zero,252
    3344:	00003f1c 	xori	zero,zero,252
    3348:	00003f1c 	xori	zero,zero,252
    334c:	000035d0 	cmplti	zero,zero,215
    3350:	00003d78 	rdprs	zero,zero,245
    3354:	00003f1c 	xori	zero,zero,252
    3358:	00003498 	cmpnei	zero,zero,210
    335c:	000035f8 	rdprs	zero,zero,215
    3360:	00003f1c 	xori	zero,zero,252
    3364:	00003638 	rdprs	zero,zero,216
    3368:	00003644 	movi	zero,217
    336c:	00003644 	movi	zero,217
    3370:	00003644 	movi	zero,217
    3374:	00003644 	movi	zero,217
    3378:	00003644 	movi	zero,217
    337c:	00003644 	movi	zero,217
    3380:	00003644 	movi	zero,217
    3384:	00003644 	movi	zero,217
    3388:	00003644 	movi	zero,217
    338c:	00003f1c 	xori	zero,zero,252
    3390:	00003f1c 	xori	zero,zero,252
    3394:	00003f1c 	xori	zero,zero,252
    3398:	00003f1c 	xori	zero,zero,252
    339c:	00003f1c 	xori	zero,zero,252
    33a0:	00003f1c 	xori	zero,zero,252
    33a4:	00003f1c 	xori	zero,zero,252
    33a8:	00003f1c 	xori	zero,zero,252
    33ac:	00003f1c 	xori	zero,zero,252
    33b0:	00003f1c 	xori	zero,zero,252
    33b4:	00003678 	rdprs	zero,zero,217
    33b8:	00003734 	movhi	zero,220
    33bc:	00003f1c 	xori	zero,zero,252
    33c0:	00003734 	movhi	zero,220
    33c4:	00003f1c 	xori	zero,zero,252
    33c8:	00003f1c 	xori	zero,zero,252
    33cc:	00003f1c 	xori	zero,zero,252
    33d0:	00003f1c 	xori	zero,zero,252
    33d4:	000037d4 	movui	zero,223
    33d8:	00003f1c 	xori	zero,zero,252
    33dc:	00003f1c 	xori	zero,zero,252
    33e0:	000037e0 	cmpeqi	zero,zero,223
    33e4:	00003f1c 	xori	zero,zero,252
    33e8:	00003f1c 	xori	zero,zero,252
    33ec:	00003f1c 	xori	zero,zero,252
    33f0:	00003f1c 	xori	zero,zero,252
    33f4:	00003f1c 	xori	zero,zero,252
    33f8:	00003c58 	cmpnei	zero,zero,241
    33fc:	00003f1c 	xori	zero,zero,252
    3400:	00003f1c 	xori	zero,zero,252
    3404:	00003cb8 	rdprs	zero,zero,242
    3408:	00003f1c 	xori	zero,zero,252
    340c:	00003f1c 	xori	zero,zero,252
    3410:	00003f1c 	xori	zero,zero,252
    3414:	00003f1c 	xori	zero,zero,252
    3418:	00003f1c 	xori	zero,zero,252
    341c:	00003f1c 	xori	zero,zero,252
    3420:	00003f1c 	xori	zero,zero,252
    3424:	00003f1c 	xori	zero,zero,252
    3428:	00003f1c 	xori	zero,zero,252
    342c:	00003f1c 	xori	zero,zero,252
    3430:	00003ec8 	cmpgei	zero,zero,251
    3434:	00003e68 	cmpgeui	zero,zero,249
    3438:	00003734 	movhi	zero,220
    343c:	00003734 	movhi	zero,220
    3440:	00003734 	movhi	zero,220
    3444:	00003e78 	rdprs	zero,zero,249
    3448:	00003e68 	cmpgeui	zero,zero,249
    344c:	00003f1c 	xori	zero,zero,252
    3450:	00003f1c 	xori	zero,zero,252
    3454:	00003e84 	movi	zero,250
    3458:	00003f1c 	xori	zero,zero,252
    345c:	00003e94 	movui	zero,250
    3460:	00003d68 	cmpgeui	zero,zero,245
    3464:	000034a4 	muli	zero,zero,210
    3468:	00003d88 	cmpgei	zero,zero,246
    346c:	00003f1c 	xori	zero,zero,252
    3470:	00003d94 	movui	zero,246
    3474:	00003f1c 	xori	zero,zero,252
    3478:	00003df0 	cmpltui	zero,zero,247
    347c:	00003f1c 	xori	zero,zero,252
    3480:	00003f1c 	xori	zero,zero,252
    3484:	00003e00 	call	3e0 <Init_timer+0x44>
    3488:	d9003117 	ldw	r4,196(sp)
    348c:	d8802d15 	stw	r2,180(sp)
    3490:	0109c83a 	sub	r4,zero,r4
    3494:	d9003115 	stw	r4,196(sp)
    3498:	94800114 	ori	r18,r18,4
    349c:	ac400007 	ldb	r17,0(r21)
    34a0:	003f9706 	br	3300 <__alt_mem_ARM_A9_HPS_axi_sdram+0xc0003300>
    34a4:	00800c04 	movi	r2,48
    34a8:	d9002d17 	ldw	r4,180(sp)
    34ac:	d9402917 	ldw	r5,164(sp)
    34b0:	d8802705 	stb	r2,156(sp)
    34b4:	00801e04 	movi	r2,120
    34b8:	d8802745 	stb	r2,157(sp)
    34bc:	d8002785 	stb	zero,158(sp)
    34c0:	20c00104 	addi	r3,r4,4
    34c4:	24c00017 	ldw	r19,0(r4)
    34c8:	002d883a 	mov	r22,zero
    34cc:	90800094 	ori	r2,r18,2
    34d0:	28029a16 	blt	r5,zero,3f3c <___vfprintf_internal_r+0xdc0>
    34d4:	00bfdfc4 	movi	r2,-129
    34d8:	90a4703a 	and	r18,r18,r2
    34dc:	d8c02d15 	stw	r3,180(sp)
    34e0:	94800094 	ori	r18,r18,2
    34e4:	9802871e 	bne	r19,zero,3f04 <___vfprintf_internal_r+0xd88>
    34e8:	00800074 	movhi	r2,1
    34ec:	10990804 	addi	r2,r2,25632
    34f0:	d8803915 	stw	r2,228(sp)
    34f4:	04401e04 	movi	r17,120
    34f8:	d8802917 	ldw	r2,164(sp)
    34fc:	0039883a 	mov	fp,zero
    3500:	1001e926 	beq	r2,zero,3ca8 <___vfprintf_internal_r+0xb2c>
    3504:	0027883a 	mov	r19,zero
    3508:	002d883a 	mov	r22,zero
    350c:	00020506 	br	3d24 <___vfprintf_internal_r+0xba8>
    3510:	d9002c17 	ldw	r4,176(sp)
    3514:	b80b883a 	mov	r5,r23
    3518:	000544c0 	call	544c <__swsetup_r>
    351c:	1005ac1e 	bne	r2,zero,4bd0 <___vfprintf_internal_r+0x1a54>
    3520:	b880030b 	ldhu	r2,12(r23)
    3524:	00c00284 	movi	r3,10
    3528:	1080068c 	andi	r2,r2,26
    352c:	10ff3c1e 	bne	r2,r3,3220 <__alt_mem_ARM_A9_HPS_axi_sdram+0xc0003220>
    3530:	b880038f 	ldh	r2,14(r23)
    3534:	103f3a16 	blt	r2,zero,3220 <__alt_mem_ARM_A9_HPS_axi_sdram+0xc0003220>
    3538:	d9c02d17 	ldw	r7,180(sp)
    353c:	d9002c17 	ldw	r4,176(sp)
    3540:	a80d883a 	mov	r6,r21
    3544:	b80b883a 	mov	r5,r23
    3548:	00053900 	call	5390 <__sbprintf>
    354c:	00001106 	br	3594 <___vfprintf_internal_r+0x418>
    3550:	d9002c17 	ldw	r4,176(sp)
    3554:	d9801e04 	addi	r6,sp,120
    3558:	b80b883a 	mov	r5,r23
    355c:	000a7780 	call	a778 <__sprint_r>
    3560:	1000081e 	bne	r2,zero,3584 <___vfprintf_internal_r+0x408>
    3564:	da000404 	addi	r8,sp,16
    3568:	003f5306 	br	32b8 <__alt_mem_ARM_A9_HPS_axi_sdram+0xc00032b8>
    356c:	d8802017 	ldw	r2,128(sp)
    3570:	10000426 	beq	r2,zero,3584 <___vfprintf_internal_r+0x408>
    3574:	d9002c17 	ldw	r4,176(sp)
    3578:	d9801e04 	addi	r6,sp,120
    357c:	b80b883a 	mov	r5,r23
    3580:	000a7780 	call	a778 <__sprint_r>
    3584:	b880030b 	ldhu	r2,12(r23)
    3588:	1080100c 	andi	r2,r2,64
    358c:	1005901e 	bne	r2,zero,4bd0 <___vfprintf_internal_r+0x1a54>
    3590:	d8802f17 	ldw	r2,188(sp)
    3594:	dfc04717 	ldw	ra,284(sp)
    3598:	df004617 	ldw	fp,280(sp)
    359c:	ddc04517 	ldw	r23,276(sp)
    35a0:	dd804417 	ldw	r22,272(sp)
    35a4:	dd404317 	ldw	r21,268(sp)
    35a8:	dd004217 	ldw	r20,264(sp)
    35ac:	dcc04117 	ldw	r19,260(sp)
    35b0:	dc804017 	ldw	r18,256(sp)
    35b4:	dc403f17 	ldw	r17,252(sp)
    35b8:	dc003e17 	ldw	r16,248(sp)
    35bc:	dec04804 	addi	sp,sp,288
    35c0:	f800283a 	ret
    35c4:	d9002c17 	ldw	r4,176(sp)
    35c8:	00074200 	call	7420 <__sinit>
    35cc:	003f0406 	br	31e0 <__alt_mem_ARM_A9_HPS_axi_sdram+0xc00031e0>
    35d0:	d8802d17 	ldw	r2,180(sp)
    35d4:	d9002d17 	ldw	r4,180(sp)
    35d8:	10800017 	ldw	r2,0(r2)
    35dc:	d8803115 	stw	r2,196(sp)
    35e0:	20800104 	addi	r2,r4,4
    35e4:	d9003117 	ldw	r4,196(sp)
    35e8:	203fa716 	blt	r4,zero,3488 <__alt_mem_ARM_A9_HPS_axi_sdram+0xc0003488>
    35ec:	d8802d15 	stw	r2,180(sp)
    35f0:	ac400007 	ldb	r17,0(r21)
    35f4:	003f4206 	br	3300 <__alt_mem_ARM_A9_HPS_axi_sdram+0xc0003300>
    35f8:	ac400007 	ldb	r17,0(r21)
    35fc:	aac00044 	addi	r11,r21,1
    3600:	8a872826 	beq	r17,r10,52a4 <___vfprintf_internal_r+0x2128>
    3604:	88bff404 	addi	r2,r17,-48
    3608:	0009883a 	mov	r4,zero
    360c:	30867d36 	bltu	r6,r2,5004 <___vfprintf_internal_r+0x1e88>
    3610:	5c400007 	ldb	r17,0(r11)
    3614:	210002a4 	muli	r4,r4,10
    3618:	5d400044 	addi	r21,r11,1
    361c:	a817883a 	mov	r11,r21
    3620:	2089883a 	add	r4,r4,r2
    3624:	88bff404 	addi	r2,r17,-48
    3628:	30bff92e 	bgeu	r6,r2,3610 <__alt_mem_ARM_A9_HPS_axi_sdram+0xc0003610>
    362c:	2005c916 	blt	r4,zero,4d54 <___vfprintf_internal_r+0x1bd8>
    3630:	d9002915 	stw	r4,164(sp)
    3634:	003f3306 	br	3304 <__alt_mem_ARM_A9_HPS_axi_sdram+0xc0003304>
    3638:	94802014 	ori	r18,r18,128
    363c:	ac400007 	ldb	r17,0(r21)
    3640:	003f2f06 	br	3300 <__alt_mem_ARM_A9_HPS_axi_sdram+0xc0003300>
    3644:	a809883a 	mov	r4,r21
    3648:	d8003115 	stw	zero,196(sp)
    364c:	88bff404 	addi	r2,r17,-48
    3650:	0017883a 	mov	r11,zero
    3654:	24400007 	ldb	r17,0(r4)
    3658:	5ac002a4 	muli	r11,r11,10
    365c:	ad400044 	addi	r21,r21,1
    3660:	a809883a 	mov	r4,r21
    3664:	12d7883a 	add	r11,r2,r11
    3668:	88bff404 	addi	r2,r17,-48
    366c:	30bff92e 	bgeu	r6,r2,3654 <__alt_mem_ARM_A9_HPS_axi_sdram+0xc0003654>
    3670:	dac03115 	stw	r11,196(sp)
    3674:	003f2306 	br	3304 <__alt_mem_ARM_A9_HPS_axi_sdram+0xc0003304>
    3678:	18c03fcc 	andi	r3,r3,255
    367c:	18072b1e 	bne	r3,zero,532c <___vfprintf_internal_r+0x21b0>
    3680:	94800414 	ori	r18,r18,16
    3684:	9080080c 	andi	r2,r18,32
    3688:	10037b26 	beq	r2,zero,4478 <___vfprintf_internal_r+0x12fc>
    368c:	d9402d17 	ldw	r5,180(sp)
    3690:	28800117 	ldw	r2,4(r5)
    3694:	2cc00017 	ldw	r19,0(r5)
    3698:	29400204 	addi	r5,r5,8
    369c:	d9402d15 	stw	r5,180(sp)
    36a0:	102d883a 	mov	r22,r2
    36a4:	10044b16 	blt	r2,zero,47d4 <___vfprintf_internal_r+0x1658>
    36a8:	d9402917 	ldw	r5,164(sp)
    36ac:	df002783 	ldbu	fp,158(sp)
    36b0:	2803bc16 	blt	r5,zero,45a4 <___vfprintf_internal_r+0x1428>
    36b4:	00ffdfc4 	movi	r3,-129
    36b8:	9d84b03a 	or	r2,r19,r22
    36bc:	90e4703a 	and	r18,r18,r3
    36c0:	10017726 	beq	r2,zero,3ca0 <___vfprintf_internal_r+0xb24>
    36c4:	b0038326 	beq	r22,zero,44d4 <___vfprintf_internal_r+0x1358>
    36c8:	dc402a15 	stw	r17,168(sp)
    36cc:	dc001e04 	addi	r16,sp,120
    36d0:	b023883a 	mov	r17,r22
    36d4:	402d883a 	mov	r22,r8
    36d8:	9809883a 	mov	r4,r19
    36dc:	880b883a 	mov	r5,r17
    36e0:	01800284 	movi	r6,10
    36e4:	000f883a 	mov	r7,zero
    36e8:	000cb700 	call	cb70 <__umoddi3>
    36ec:	10800c04 	addi	r2,r2,48
    36f0:	843fffc4 	addi	r16,r16,-1
    36f4:	9809883a 	mov	r4,r19
    36f8:	880b883a 	mov	r5,r17
    36fc:	80800005 	stb	r2,0(r16)
    3700:	01800284 	movi	r6,10
    3704:	000f883a 	mov	r7,zero
    3708:	000c5f80 	call	c5f8 <__udivdi3>
    370c:	1027883a 	mov	r19,r2
    3710:	10c4b03a 	or	r2,r2,r3
    3714:	1823883a 	mov	r17,r3
    3718:	103fef1e 	bne	r2,zero,36d8 <__alt_mem_ARM_A9_HPS_axi_sdram+0xc00036d8>
    371c:	d8c02817 	ldw	r3,160(sp)
    3720:	dc402a17 	ldw	r17,168(sp)
    3724:	b011883a 	mov	r8,r22
    3728:	1c07c83a 	sub	r3,r3,r16
    372c:	d8c02e15 	stw	r3,184(sp)
    3730:	00005906 	br	3898 <___vfprintf_internal_r+0x71c>
    3734:	18c03fcc 	andi	r3,r3,255
    3738:	1806fa1e 	bne	r3,zero,5324 <___vfprintf_internal_r+0x21a8>
    373c:	9080020c 	andi	r2,r18,8
    3740:	10048a26 	beq	r2,zero,496c <___vfprintf_internal_r+0x17f0>
    3744:	d8c02d17 	ldw	r3,180(sp)
    3748:	d9002d17 	ldw	r4,180(sp)
    374c:	d9402d17 	ldw	r5,180(sp)
    3750:	18c00017 	ldw	r3,0(r3)
    3754:	21000117 	ldw	r4,4(r4)
    3758:	29400204 	addi	r5,r5,8
    375c:	d8c03615 	stw	r3,216(sp)
    3760:	d9003815 	stw	r4,224(sp)
    3764:	d9402d15 	stw	r5,180(sp)
    3768:	d9003617 	ldw	r4,216(sp)
    376c:	d9403817 	ldw	r5,224(sp)
    3770:	da003d15 	stw	r8,244(sp)
    3774:	04000044 	movi	r16,1
    3778:	000a39c0 	call	a39c <__fpclassifyd>
    377c:	da003d17 	ldw	r8,244(sp)
    3780:	14041f1e 	bne	r2,r16,4800 <___vfprintf_internal_r+0x1684>
    3784:	d9003617 	ldw	r4,216(sp)
    3788:	d9403817 	ldw	r5,224(sp)
    378c:	000d883a 	mov	r6,zero
    3790:	000f883a 	mov	r7,zero
    3794:	000e5540 	call	e554 <__ledf2>
    3798:	da003d17 	ldw	r8,244(sp)
    379c:	1005be16 	blt	r2,zero,4e98 <___vfprintf_internal_r+0x1d1c>
    37a0:	df002783 	ldbu	fp,158(sp)
    37a4:	008011c4 	movi	r2,71
    37a8:	1445330e 	bge	r2,r17,4c78 <___vfprintf_internal_r+0x1afc>
    37ac:	04000074 	movhi	r16,1
    37b0:	84190004 	addi	r16,r16,25600
    37b4:	00c000c4 	movi	r3,3
    37b8:	00bfdfc4 	movi	r2,-129
    37bc:	d8c02a15 	stw	r3,168(sp)
    37c0:	90a4703a 	and	r18,r18,r2
    37c4:	d8c02e15 	stw	r3,184(sp)
    37c8:	d8002915 	stw	zero,164(sp)
    37cc:	d8003215 	stw	zero,200(sp)
    37d0:	00003706 	br	38b0 <___vfprintf_internal_r+0x734>
    37d4:	94800214 	ori	r18,r18,8
    37d8:	ac400007 	ldb	r17,0(r21)
    37dc:	003ec806 	br	3300 <__alt_mem_ARM_A9_HPS_axi_sdram+0xc0003300>
    37e0:	18c03fcc 	andi	r3,r3,255
    37e4:	1806db1e 	bne	r3,zero,5354 <___vfprintf_internal_r+0x21d8>
    37e8:	94800414 	ori	r18,r18,16
    37ec:	9080080c 	andi	r2,r18,32
    37f0:	1002d826 	beq	r2,zero,4354 <___vfprintf_internal_r+0x11d8>
    37f4:	d9402d17 	ldw	r5,180(sp)
    37f8:	d8c02917 	ldw	r3,164(sp)
    37fc:	d8002785 	stb	zero,158(sp)
    3800:	28800204 	addi	r2,r5,8
    3804:	2cc00017 	ldw	r19,0(r5)
    3808:	2d800117 	ldw	r22,4(r5)
    380c:	18048f16 	blt	r3,zero,4a4c <___vfprintf_internal_r+0x18d0>
    3810:	013fdfc4 	movi	r4,-129
    3814:	9d86b03a 	or	r3,r19,r22
    3818:	d8802d15 	stw	r2,180(sp)
    381c:	9124703a 	and	r18,r18,r4
    3820:	1802d91e 	bne	r3,zero,4388 <___vfprintf_internal_r+0x120c>
    3824:	d8c02917 	ldw	r3,164(sp)
    3828:	0039883a 	mov	fp,zero
    382c:	1805c326 	beq	r3,zero,4f3c <___vfprintf_internal_r+0x1dc0>
    3830:	0027883a 	mov	r19,zero
    3834:	002d883a 	mov	r22,zero
    3838:	dc001e04 	addi	r16,sp,120
    383c:	9806d0fa 	srli	r3,r19,3
    3840:	b008977a 	slli	r4,r22,29
    3844:	b02cd0fa 	srli	r22,r22,3
    3848:	9cc001cc 	andi	r19,r19,7
    384c:	98800c04 	addi	r2,r19,48
    3850:	843fffc4 	addi	r16,r16,-1
    3854:	20e6b03a 	or	r19,r4,r3
    3858:	80800005 	stb	r2,0(r16)
    385c:	9d86b03a 	or	r3,r19,r22
    3860:	183ff61e 	bne	r3,zero,383c <__alt_mem_ARM_A9_HPS_axi_sdram+0xc000383c>
    3864:	90c0004c 	andi	r3,r18,1
    3868:	18013b26 	beq	r3,zero,3d58 <___vfprintf_internal_r+0xbdc>
    386c:	10803fcc 	andi	r2,r2,255
    3870:	1080201c 	xori	r2,r2,128
    3874:	10bfe004 	addi	r2,r2,-128
    3878:	00c00c04 	movi	r3,48
    387c:	10c13626 	beq	r2,r3,3d58 <___vfprintf_internal_r+0xbdc>
    3880:	80ffffc5 	stb	r3,-1(r16)
    3884:	d8c02817 	ldw	r3,160(sp)
    3888:	80bfffc4 	addi	r2,r16,-1
    388c:	1021883a 	mov	r16,r2
    3890:	1887c83a 	sub	r3,r3,r2
    3894:	d8c02e15 	stw	r3,184(sp)
    3898:	d8802e17 	ldw	r2,184(sp)
    389c:	d9002917 	ldw	r4,164(sp)
    38a0:	1100010e 	bge	r2,r4,38a8 <___vfprintf_internal_r+0x72c>
    38a4:	2005883a 	mov	r2,r4
    38a8:	d8802a15 	stw	r2,168(sp)
    38ac:	d8003215 	stw	zero,200(sp)
    38b0:	e7003fcc 	andi	fp,fp,255
    38b4:	e700201c 	xori	fp,fp,128
    38b8:	e73fe004 	addi	fp,fp,-128
    38bc:	e0000326 	beq	fp,zero,38cc <___vfprintf_internal_r+0x750>
    38c0:	d8c02a17 	ldw	r3,168(sp)
    38c4:	18c00044 	addi	r3,r3,1
    38c8:	d8c02a15 	stw	r3,168(sp)
    38cc:	90c0008c 	andi	r3,r18,2
    38d0:	d8c02b15 	stw	r3,172(sp)
    38d4:	18000326 	beq	r3,zero,38e4 <___vfprintf_internal_r+0x768>
    38d8:	d8c02a17 	ldw	r3,168(sp)
    38dc:	18c00084 	addi	r3,r3,2
    38e0:	d8c02a15 	stw	r3,168(sp)
    38e4:	90c0210c 	andi	r3,r18,132
    38e8:	d8c03015 	stw	r3,192(sp)
    38ec:	1801a31e 	bne	r3,zero,3f7c <___vfprintf_internal_r+0xe00>
    38f0:	d9003117 	ldw	r4,196(sp)
    38f4:	d8c02a17 	ldw	r3,168(sp)
    38f8:	20e7c83a 	sub	r19,r4,r3
    38fc:	04c19f0e 	bge	zero,r19,3f7c <___vfprintf_internal_r+0xe00>
    3900:	02400404 	movi	r9,16
    3904:	d8c02017 	ldw	r3,128(sp)
    3908:	d8801f17 	ldw	r2,124(sp)
    390c:	4cc50d0e 	bge	r9,r19,4d44 <___vfprintf_internal_r+0x1bc8>
    3910:	01400074 	movhi	r5,1
    3914:	29591384 	addi	r5,r5,25678
    3918:	dc403b15 	stw	r17,236(sp)
    391c:	d9403515 	stw	r5,212(sp)
    3920:	9823883a 	mov	r17,r19
    3924:	482d883a 	mov	r22,r9
    3928:	9027883a 	mov	r19,r18
    392c:	070001c4 	movi	fp,7
    3930:	8025883a 	mov	r18,r16
    3934:	dc002c17 	ldw	r16,176(sp)
    3938:	00000306 	br	3948 <___vfprintf_internal_r+0x7cc>
    393c:	8c7ffc04 	addi	r17,r17,-16
    3940:	42000204 	addi	r8,r8,8
    3944:	b440130e 	bge	r22,r17,3994 <___vfprintf_internal_r+0x818>
    3948:	01000074 	movhi	r4,1
    394c:	18c00404 	addi	r3,r3,16
    3950:	10800044 	addi	r2,r2,1
    3954:	21191384 	addi	r4,r4,25678
    3958:	41000015 	stw	r4,0(r8)
    395c:	45800115 	stw	r22,4(r8)
    3960:	d8c02015 	stw	r3,128(sp)
    3964:	d8801f15 	stw	r2,124(sp)
    3968:	e0bff40e 	bge	fp,r2,393c <__alt_mem_ARM_A9_HPS_axi_sdram+0xc000393c>
    396c:	d9801e04 	addi	r6,sp,120
    3970:	b80b883a 	mov	r5,r23
    3974:	8009883a 	mov	r4,r16
    3978:	000a7780 	call	a778 <__sprint_r>
    397c:	103f011e 	bne	r2,zero,3584 <__alt_mem_ARM_A9_HPS_axi_sdram+0xc0003584>
    3980:	8c7ffc04 	addi	r17,r17,-16
    3984:	d8c02017 	ldw	r3,128(sp)
    3988:	d8801f17 	ldw	r2,124(sp)
    398c:	da000404 	addi	r8,sp,16
    3990:	b47fed16 	blt	r22,r17,3948 <__alt_mem_ARM_A9_HPS_axi_sdram+0xc0003948>
    3994:	9021883a 	mov	r16,r18
    3998:	9825883a 	mov	r18,r19
    399c:	8827883a 	mov	r19,r17
    39a0:	dc403b17 	ldw	r17,236(sp)
    39a4:	d9403517 	ldw	r5,212(sp)
    39a8:	98c7883a 	add	r3,r19,r3
    39ac:	10800044 	addi	r2,r2,1
    39b0:	41400015 	stw	r5,0(r8)
    39b4:	44c00115 	stw	r19,4(r8)
    39b8:	d8c02015 	stw	r3,128(sp)
    39bc:	d8801f15 	stw	r2,124(sp)
    39c0:	010001c4 	movi	r4,7
    39c4:	2082a316 	blt	r4,r2,4454 <___vfprintf_internal_r+0x12d8>
    39c8:	df002787 	ldb	fp,158(sp)
    39cc:	42000204 	addi	r8,r8,8
    39d0:	e0000c26 	beq	fp,zero,3a04 <___vfprintf_internal_r+0x888>
    39d4:	d8801f17 	ldw	r2,124(sp)
    39d8:	d9002784 	addi	r4,sp,158
    39dc:	18c00044 	addi	r3,r3,1
    39e0:	10800044 	addi	r2,r2,1
    39e4:	41000015 	stw	r4,0(r8)
    39e8:	01000044 	movi	r4,1
    39ec:	41000115 	stw	r4,4(r8)
    39f0:	d8c02015 	stw	r3,128(sp)
    39f4:	d8801f15 	stw	r2,124(sp)
    39f8:	010001c4 	movi	r4,7
    39fc:	20823c16 	blt	r4,r2,42f0 <___vfprintf_internal_r+0x1174>
    3a00:	42000204 	addi	r8,r8,8
    3a04:	d8802b17 	ldw	r2,172(sp)
    3a08:	10000c26 	beq	r2,zero,3a3c <___vfprintf_internal_r+0x8c0>
    3a0c:	d8801f17 	ldw	r2,124(sp)
    3a10:	d9002704 	addi	r4,sp,156
    3a14:	18c00084 	addi	r3,r3,2
    3a18:	10800044 	addi	r2,r2,1
    3a1c:	41000015 	stw	r4,0(r8)
    3a20:	01000084 	movi	r4,2
    3a24:	41000115 	stw	r4,4(r8)
    3a28:	d8c02015 	stw	r3,128(sp)
    3a2c:	d8801f15 	stw	r2,124(sp)
    3a30:	010001c4 	movi	r4,7
    3a34:	20823616 	blt	r4,r2,4310 <___vfprintf_internal_r+0x1194>
    3a38:	42000204 	addi	r8,r8,8
    3a3c:	d9003017 	ldw	r4,192(sp)
    3a40:	00802004 	movi	r2,128
    3a44:	20819926 	beq	r4,r2,40ac <___vfprintf_internal_r+0xf30>
    3a48:	d9402917 	ldw	r5,164(sp)
    3a4c:	d8802e17 	ldw	r2,184(sp)
    3a50:	28adc83a 	sub	r22,r5,r2
    3a54:	0580310e 	bge	zero,r22,3b1c <___vfprintf_internal_r+0x9a0>
    3a58:	07000404 	movi	fp,16
    3a5c:	d8801f17 	ldw	r2,124(sp)
    3a60:	e584140e 	bge	fp,r22,4ab4 <___vfprintf_internal_r+0x1938>
    3a64:	01400074 	movhi	r5,1
    3a68:	29590f84 	addi	r5,r5,25662
    3a6c:	dc402915 	stw	r17,164(sp)
    3a70:	d9402b15 	stw	r5,172(sp)
    3a74:	b023883a 	mov	r17,r22
    3a78:	04c001c4 	movi	r19,7
    3a7c:	a82d883a 	mov	r22,r21
    3a80:	902b883a 	mov	r21,r18
    3a84:	8025883a 	mov	r18,r16
    3a88:	dc002c17 	ldw	r16,176(sp)
    3a8c:	00000306 	br	3a9c <___vfprintf_internal_r+0x920>
    3a90:	8c7ffc04 	addi	r17,r17,-16
    3a94:	42000204 	addi	r8,r8,8
    3a98:	e440110e 	bge	fp,r17,3ae0 <___vfprintf_internal_r+0x964>
    3a9c:	18c00404 	addi	r3,r3,16
    3aa0:	10800044 	addi	r2,r2,1
    3aa4:	45000015 	stw	r20,0(r8)
    3aa8:	47000115 	stw	fp,4(r8)
    3aac:	d8c02015 	stw	r3,128(sp)
    3ab0:	d8801f15 	stw	r2,124(sp)
    3ab4:	98bff60e 	bge	r19,r2,3a90 <__alt_mem_ARM_A9_HPS_axi_sdram+0xc0003a90>
    3ab8:	d9801e04 	addi	r6,sp,120
    3abc:	b80b883a 	mov	r5,r23
    3ac0:	8009883a 	mov	r4,r16
    3ac4:	000a7780 	call	a778 <__sprint_r>
    3ac8:	103eae1e 	bne	r2,zero,3584 <__alt_mem_ARM_A9_HPS_axi_sdram+0xc0003584>
    3acc:	8c7ffc04 	addi	r17,r17,-16
    3ad0:	d8c02017 	ldw	r3,128(sp)
    3ad4:	d8801f17 	ldw	r2,124(sp)
    3ad8:	da000404 	addi	r8,sp,16
    3adc:	e47fef16 	blt	fp,r17,3a9c <__alt_mem_ARM_A9_HPS_axi_sdram+0xc0003a9c>
    3ae0:	9021883a 	mov	r16,r18
    3ae4:	a825883a 	mov	r18,r21
    3ae8:	b02b883a 	mov	r21,r22
    3aec:	882d883a 	mov	r22,r17
    3af0:	dc402917 	ldw	r17,164(sp)
    3af4:	d9002b17 	ldw	r4,172(sp)
    3af8:	1d87883a 	add	r3,r3,r22
    3afc:	10800044 	addi	r2,r2,1
    3b00:	41000015 	stw	r4,0(r8)
    3b04:	45800115 	stw	r22,4(r8)
    3b08:	d8c02015 	stw	r3,128(sp)
    3b0c:	d8801f15 	stw	r2,124(sp)
    3b10:	010001c4 	movi	r4,7
    3b14:	2081ee16 	blt	r4,r2,42d0 <___vfprintf_internal_r+0x1154>
    3b18:	42000204 	addi	r8,r8,8
    3b1c:	9080400c 	andi	r2,r18,256
    3b20:	1001181e 	bne	r2,zero,3f84 <___vfprintf_internal_r+0xe08>
    3b24:	d9402e17 	ldw	r5,184(sp)
    3b28:	d8801f17 	ldw	r2,124(sp)
    3b2c:	44000015 	stw	r16,0(r8)
    3b30:	1947883a 	add	r3,r3,r5
    3b34:	10800044 	addi	r2,r2,1
    3b38:	41400115 	stw	r5,4(r8)
    3b3c:	d8c02015 	stw	r3,128(sp)
    3b40:	d8801f15 	stw	r2,124(sp)
    3b44:	010001c4 	movi	r4,7
    3b48:	2081d316 	blt	r4,r2,4298 <___vfprintf_internal_r+0x111c>
    3b4c:	42000204 	addi	r8,r8,8
    3b50:	9480010c 	andi	r18,r18,4
    3b54:	90003226 	beq	r18,zero,3c20 <___vfprintf_internal_r+0xaa4>
    3b58:	d9403117 	ldw	r5,196(sp)
    3b5c:	d8802a17 	ldw	r2,168(sp)
    3b60:	28a1c83a 	sub	r16,r5,r2
    3b64:	04002e0e 	bge	zero,r16,3c20 <___vfprintf_internal_r+0xaa4>
    3b68:	04400404 	movi	r17,16
    3b6c:	d8801f17 	ldw	r2,124(sp)
    3b70:	8c04a20e 	bge	r17,r16,4dfc <___vfprintf_internal_r+0x1c80>
    3b74:	01400074 	movhi	r5,1
    3b78:	29591384 	addi	r5,r5,25678
    3b7c:	d9403515 	stw	r5,212(sp)
    3b80:	048001c4 	movi	r18,7
    3b84:	dcc02c17 	ldw	r19,176(sp)
    3b88:	00000306 	br	3b98 <___vfprintf_internal_r+0xa1c>
    3b8c:	843ffc04 	addi	r16,r16,-16
    3b90:	42000204 	addi	r8,r8,8
    3b94:	8c00130e 	bge	r17,r16,3be4 <___vfprintf_internal_r+0xa68>
    3b98:	01000074 	movhi	r4,1
    3b9c:	18c00404 	addi	r3,r3,16
    3ba0:	10800044 	addi	r2,r2,1
    3ba4:	21191384 	addi	r4,r4,25678
    3ba8:	41000015 	stw	r4,0(r8)
    3bac:	44400115 	stw	r17,4(r8)
    3bb0:	d8c02015 	stw	r3,128(sp)
    3bb4:	d8801f15 	stw	r2,124(sp)
    3bb8:	90bff40e 	bge	r18,r2,3b8c <__alt_mem_ARM_A9_HPS_axi_sdram+0xc0003b8c>
    3bbc:	d9801e04 	addi	r6,sp,120
    3bc0:	b80b883a 	mov	r5,r23
    3bc4:	9809883a 	mov	r4,r19
    3bc8:	000a7780 	call	a778 <__sprint_r>
    3bcc:	103e6d1e 	bne	r2,zero,3584 <__alt_mem_ARM_A9_HPS_axi_sdram+0xc0003584>
    3bd0:	843ffc04 	addi	r16,r16,-16
    3bd4:	d8c02017 	ldw	r3,128(sp)
    3bd8:	d8801f17 	ldw	r2,124(sp)
    3bdc:	da000404 	addi	r8,sp,16
    3be0:	8c3fed16 	blt	r17,r16,3b98 <__alt_mem_ARM_A9_HPS_axi_sdram+0xc0003b98>
    3be4:	d9403517 	ldw	r5,212(sp)
    3be8:	1c07883a 	add	r3,r3,r16
    3bec:	10800044 	addi	r2,r2,1
    3bf0:	41400015 	stw	r5,0(r8)
    3bf4:	44000115 	stw	r16,4(r8)
    3bf8:	d8c02015 	stw	r3,128(sp)
    3bfc:	d8801f15 	stw	r2,124(sp)
    3c00:	010001c4 	movi	r4,7
    3c04:	2080060e 	bge	r4,r2,3c20 <___vfprintf_internal_r+0xaa4>
    3c08:	d9002c17 	ldw	r4,176(sp)
    3c0c:	d9801e04 	addi	r6,sp,120
    3c10:	b80b883a 	mov	r5,r23
    3c14:	000a7780 	call	a778 <__sprint_r>
    3c18:	103e5a1e 	bne	r2,zero,3584 <__alt_mem_ARM_A9_HPS_axi_sdram+0xc0003584>
    3c1c:	d8c02017 	ldw	r3,128(sp)
    3c20:	d8803117 	ldw	r2,196(sp)
    3c24:	d9002a17 	ldw	r4,168(sp)
    3c28:	1100010e 	bge	r2,r4,3c30 <___vfprintf_internal_r+0xab4>
    3c2c:	2005883a 	mov	r2,r4
    3c30:	d9402f17 	ldw	r5,188(sp)
    3c34:	288b883a 	add	r5,r5,r2
    3c38:	d9402f15 	stw	r5,188(sp)
    3c3c:	18019e1e 	bne	r3,zero,42b8 <___vfprintf_internal_r+0x113c>
    3c40:	a8800007 	ldb	r2,0(r21)
    3c44:	d8001f15 	stw	zero,124(sp)
    3c48:	da000404 	addi	r8,sp,16
    3c4c:	103d851e 	bne	r2,zero,3264 <__alt_mem_ARM_A9_HPS_axi_sdram+0xc0003264>
    3c50:	a821883a 	mov	r16,r21
    3c54:	003d9b06 	br	32c4 <__alt_mem_ARM_A9_HPS_axi_sdram+0xc00032c4>
    3c58:	18c03fcc 	andi	r3,r3,255
    3c5c:	1805c11e 	bne	r3,zero,5364 <___vfprintf_internal_r+0x21e8>
    3c60:	94800414 	ori	r18,r18,16
    3c64:	9080080c 	andi	r2,r18,32
    3c68:	10020c26 	beq	r2,zero,449c <___vfprintf_internal_r+0x1320>
    3c6c:	d8802d17 	ldw	r2,180(sp)
    3c70:	d9002917 	ldw	r4,164(sp)
    3c74:	d8002785 	stb	zero,158(sp)
    3c78:	10c00204 	addi	r3,r2,8
    3c7c:	14c00017 	ldw	r19,0(r2)
    3c80:	15800117 	ldw	r22,4(r2)
    3c84:	20040f16 	blt	r4,zero,4cc4 <___vfprintf_internal_r+0x1b48>
    3c88:	013fdfc4 	movi	r4,-129
    3c8c:	9d84b03a 	or	r2,r19,r22
    3c90:	d8c02d15 	stw	r3,180(sp)
    3c94:	9124703a 	and	r18,r18,r4
    3c98:	0039883a 	mov	fp,zero
    3c9c:	103e891e 	bne	r2,zero,36c4 <__alt_mem_ARM_A9_HPS_axi_sdram+0xc00036c4>
    3ca0:	d9002917 	ldw	r4,164(sp)
    3ca4:	2002c11e 	bne	r4,zero,47ac <___vfprintf_internal_r+0x1630>
    3ca8:	d8002915 	stw	zero,164(sp)
    3cac:	d8002e15 	stw	zero,184(sp)
    3cb0:	dc001e04 	addi	r16,sp,120
    3cb4:	003ef806 	br	3898 <__alt_mem_ARM_A9_HPS_axi_sdram+0xc0003898>
    3cb8:	18c03fcc 	andi	r3,r3,255
    3cbc:	18059d1e 	bne	r3,zero,5334 <___vfprintf_internal_r+0x21b8>
    3cc0:	01400074 	movhi	r5,1
    3cc4:	29590304 	addi	r5,r5,25612
    3cc8:	d9403915 	stw	r5,228(sp)
    3ccc:	9080080c 	andi	r2,r18,32
    3cd0:	10005226 	beq	r2,zero,3e1c <___vfprintf_internal_r+0xca0>
    3cd4:	d8802d17 	ldw	r2,180(sp)
    3cd8:	14c00017 	ldw	r19,0(r2)
    3cdc:	15800117 	ldw	r22,4(r2)
    3ce0:	10800204 	addi	r2,r2,8
    3ce4:	d8802d15 	stw	r2,180(sp)
    3ce8:	9080004c 	andi	r2,r18,1
    3cec:	10019026 	beq	r2,zero,4330 <___vfprintf_internal_r+0x11b4>
    3cf0:	9d84b03a 	or	r2,r19,r22
    3cf4:	10036926 	beq	r2,zero,4a9c <___vfprintf_internal_r+0x1920>
    3cf8:	d8c02917 	ldw	r3,164(sp)
    3cfc:	00800c04 	movi	r2,48
    3d00:	d8802705 	stb	r2,156(sp)
    3d04:	dc402745 	stb	r17,157(sp)
    3d08:	d8002785 	stb	zero,158(sp)
    3d0c:	90800094 	ori	r2,r18,2
    3d10:	18045d16 	blt	r3,zero,4e88 <___vfprintf_internal_r+0x1d0c>
    3d14:	00bfdfc4 	movi	r2,-129
    3d18:	90a4703a 	and	r18,r18,r2
    3d1c:	94800094 	ori	r18,r18,2
    3d20:	0039883a 	mov	fp,zero
    3d24:	d9003917 	ldw	r4,228(sp)
    3d28:	dc001e04 	addi	r16,sp,120
    3d2c:	988003cc 	andi	r2,r19,15
    3d30:	b006973a 	slli	r3,r22,28
    3d34:	2085883a 	add	r2,r4,r2
    3d38:	9826d13a 	srli	r19,r19,4
    3d3c:	10800003 	ldbu	r2,0(r2)
    3d40:	b02cd13a 	srli	r22,r22,4
    3d44:	843fffc4 	addi	r16,r16,-1
    3d48:	1ce6b03a 	or	r19,r3,r19
    3d4c:	80800005 	stb	r2,0(r16)
    3d50:	9d84b03a 	or	r2,r19,r22
    3d54:	103ff51e 	bne	r2,zero,3d2c <__alt_mem_ARM_A9_HPS_axi_sdram+0xc0003d2c>
    3d58:	d8c02817 	ldw	r3,160(sp)
    3d5c:	1c07c83a 	sub	r3,r3,r16
    3d60:	d8c02e15 	stw	r3,184(sp)
    3d64:	003ecc06 	br	3898 <__alt_mem_ARM_A9_HPS_axi_sdram+0xc0003898>
    3d68:	18c03fcc 	andi	r3,r3,255
    3d6c:	183e9f26 	beq	r3,zero,37ec <__alt_mem_ARM_A9_HPS_axi_sdram+0xc00037ec>
    3d70:	d9c02785 	stb	r7,158(sp)
    3d74:	003e9d06 	br	37ec <__alt_mem_ARM_A9_HPS_axi_sdram+0xc00037ec>
    3d78:	00c00044 	movi	r3,1
    3d7c:	01c00ac4 	movi	r7,43
    3d80:	ac400007 	ldb	r17,0(r21)
    3d84:	003d5e06 	br	3300 <__alt_mem_ARM_A9_HPS_axi_sdram+0xc0003300>
    3d88:	94800814 	ori	r18,r18,32
    3d8c:	ac400007 	ldb	r17,0(r21)
    3d90:	003d5b06 	br	3300 <__alt_mem_ARM_A9_HPS_axi_sdram+0xc0003300>
    3d94:	d8c02d17 	ldw	r3,180(sp)
    3d98:	d8002785 	stb	zero,158(sp)
    3d9c:	1c000017 	ldw	r16,0(r3)
    3da0:	1cc00104 	addi	r19,r3,4
    3da4:	80041926 	beq	r16,zero,4e0c <___vfprintf_internal_r+0x1c90>
    3da8:	d9002917 	ldw	r4,164(sp)
    3dac:	2003d016 	blt	r4,zero,4cf0 <___vfprintf_internal_r+0x1b74>
    3db0:	200d883a 	mov	r6,r4
    3db4:	000b883a 	mov	r5,zero
    3db8:	8009883a 	mov	r4,r16
    3dbc:	da003d15 	stw	r8,244(sp)
    3dc0:	000898c0 	call	898c <memchr>
    3dc4:	da003d17 	ldw	r8,244(sp)
    3dc8:	10045426 	beq	r2,zero,4f1c <___vfprintf_internal_r+0x1da0>
    3dcc:	1405c83a 	sub	r2,r2,r16
    3dd0:	d8802e15 	stw	r2,184(sp)
    3dd4:	1003cc16 	blt	r2,zero,4d08 <___vfprintf_internal_r+0x1b8c>
    3dd8:	df002783 	ldbu	fp,158(sp)
    3ddc:	d8802a15 	stw	r2,168(sp)
    3de0:	dcc02d15 	stw	r19,180(sp)
    3de4:	d8002915 	stw	zero,164(sp)
    3de8:	d8003215 	stw	zero,200(sp)
    3dec:	003eb006 	br	38b0 <__alt_mem_ARM_A9_HPS_axi_sdram+0xc00038b0>
    3df0:	18c03fcc 	andi	r3,r3,255
    3df4:	183f9b26 	beq	r3,zero,3c64 <__alt_mem_ARM_A9_HPS_axi_sdram+0xc0003c64>
    3df8:	d9c02785 	stb	r7,158(sp)
    3dfc:	003f9906 	br	3c64 <__alt_mem_ARM_A9_HPS_axi_sdram+0xc0003c64>
    3e00:	18c03fcc 	andi	r3,r3,255
    3e04:	1805551e 	bne	r3,zero,535c <___vfprintf_internal_r+0x21e0>
    3e08:	01400074 	movhi	r5,1
    3e0c:	29590804 	addi	r5,r5,25632
    3e10:	d9403915 	stw	r5,228(sp)
    3e14:	9080080c 	andi	r2,r18,32
    3e18:	103fae1e 	bne	r2,zero,3cd4 <__alt_mem_ARM_A9_HPS_axi_sdram+0xc0003cd4>
    3e1c:	9080040c 	andi	r2,r18,16
    3e20:	1002de26 	beq	r2,zero,499c <___vfprintf_internal_r+0x1820>
    3e24:	d8c02d17 	ldw	r3,180(sp)
    3e28:	002d883a 	mov	r22,zero
    3e2c:	1cc00017 	ldw	r19,0(r3)
    3e30:	18c00104 	addi	r3,r3,4
    3e34:	d8c02d15 	stw	r3,180(sp)
    3e38:	003fab06 	br	3ce8 <__alt_mem_ARM_A9_HPS_axi_sdram+0xc0003ce8>
    3e3c:	38803fcc 	andi	r2,r7,255
    3e40:	1080201c 	xori	r2,r2,128
    3e44:	10bfe004 	addi	r2,r2,-128
    3e48:	1002d21e 	bne	r2,zero,4994 <___vfprintf_internal_r+0x1818>
    3e4c:	00c00044 	movi	r3,1
    3e50:	01c00804 	movi	r7,32
    3e54:	ac400007 	ldb	r17,0(r21)
    3e58:	003d2906 	br	3300 <__alt_mem_ARM_A9_HPS_axi_sdram+0xc0003300>
    3e5c:	94800054 	ori	r18,r18,1
    3e60:	ac400007 	ldb	r17,0(r21)
    3e64:	003d2606 	br	3300 <__alt_mem_ARM_A9_HPS_axi_sdram+0xc0003300>
    3e68:	18c03fcc 	andi	r3,r3,255
    3e6c:	183e0526 	beq	r3,zero,3684 <__alt_mem_ARM_A9_HPS_axi_sdram+0xc0003684>
    3e70:	d9c02785 	stb	r7,158(sp)
    3e74:	003e0306 	br	3684 <__alt_mem_ARM_A9_HPS_axi_sdram+0xc0003684>
    3e78:	94801014 	ori	r18,r18,64
    3e7c:	ac400007 	ldb	r17,0(r21)
    3e80:	003d1f06 	br	3300 <__alt_mem_ARM_A9_HPS_axi_sdram+0xc0003300>
    3e84:	ac400007 	ldb	r17,0(r21)
    3e88:	8a438726 	beq	r17,r9,4ca8 <___vfprintf_internal_r+0x1b2c>
    3e8c:	94800414 	ori	r18,r18,16
    3e90:	003d1b06 	br	3300 <__alt_mem_ARM_A9_HPS_axi_sdram+0xc0003300>
    3e94:	18c03fcc 	andi	r3,r3,255
    3e98:	1805341e 	bne	r3,zero,536c <___vfprintf_internal_r+0x21f0>
    3e9c:	9080080c 	andi	r2,r18,32
    3ea0:	1002cd26 	beq	r2,zero,49d8 <___vfprintf_internal_r+0x185c>
    3ea4:	d9402d17 	ldw	r5,180(sp)
    3ea8:	d9002f17 	ldw	r4,188(sp)
    3eac:	28800017 	ldw	r2,0(r5)
    3eb0:	2007d7fa 	srai	r3,r4,31
    3eb4:	29400104 	addi	r5,r5,4
    3eb8:	d9402d15 	stw	r5,180(sp)
    3ebc:	11000015 	stw	r4,0(r2)
    3ec0:	10c00115 	stw	r3,4(r2)
    3ec4:	003ce506 	br	325c <__alt_mem_ARM_A9_HPS_axi_sdram+0xc000325c>
    3ec8:	d8c02d17 	ldw	r3,180(sp)
    3ecc:	d9002d17 	ldw	r4,180(sp)
    3ed0:	d8002785 	stb	zero,158(sp)
    3ed4:	18800017 	ldw	r2,0(r3)
    3ed8:	21000104 	addi	r4,r4,4
    3edc:	00c00044 	movi	r3,1
    3ee0:	d8c02a15 	stw	r3,168(sp)
    3ee4:	d8801405 	stb	r2,80(sp)
    3ee8:	d9002d15 	stw	r4,180(sp)
    3eec:	d8c02e15 	stw	r3,184(sp)
    3ef0:	d8002915 	stw	zero,164(sp)
    3ef4:	d8003215 	stw	zero,200(sp)
    3ef8:	dc001404 	addi	r16,sp,80
    3efc:	0039883a 	mov	fp,zero
    3f00:	003e7206 	br	38cc <__alt_mem_ARM_A9_HPS_axi_sdram+0xc00038cc>
    3f04:	01000074 	movhi	r4,1
    3f08:	21190804 	addi	r4,r4,25632
    3f0c:	0039883a 	mov	fp,zero
    3f10:	d9003915 	stw	r4,228(sp)
    3f14:	04401e04 	movi	r17,120
    3f18:	003f8206 	br	3d24 <__alt_mem_ARM_A9_HPS_axi_sdram+0xc0003d24>
    3f1c:	18c03fcc 	andi	r3,r3,255
    3f20:	1805061e 	bne	r3,zero,533c <___vfprintf_internal_r+0x21c0>
    3f24:	883d9126 	beq	r17,zero,356c <__alt_mem_ARM_A9_HPS_axi_sdram+0xc000356c>
    3f28:	00c00044 	movi	r3,1
    3f2c:	d8c02a15 	stw	r3,168(sp)
    3f30:	dc401405 	stb	r17,80(sp)
    3f34:	d8002785 	stb	zero,158(sp)
    3f38:	003fec06 	br	3eec <__alt_mem_ARM_A9_HPS_axi_sdram+0xc0003eec>
    3f3c:	01400074 	movhi	r5,1
    3f40:	29590804 	addi	r5,r5,25632
    3f44:	d9403915 	stw	r5,228(sp)
    3f48:	d8c02d15 	stw	r3,180(sp)
    3f4c:	1025883a 	mov	r18,r2
    3f50:	04401e04 	movi	r17,120
    3f54:	9d84b03a 	or	r2,r19,r22
    3f58:	1000fc1e 	bne	r2,zero,434c <___vfprintf_internal_r+0x11d0>
    3f5c:	0039883a 	mov	fp,zero
    3f60:	00800084 	movi	r2,2
    3f64:	10803fcc 	andi	r2,r2,255
    3f68:	00c00044 	movi	r3,1
    3f6c:	10c20f26 	beq	r2,r3,47ac <___vfprintf_internal_r+0x1630>
    3f70:	00c00084 	movi	r3,2
    3f74:	10fd6326 	beq	r2,r3,3504 <__alt_mem_ARM_A9_HPS_axi_sdram+0xc0003504>
    3f78:	003e2d06 	br	3830 <__alt_mem_ARM_A9_HPS_axi_sdram+0xc0003830>
    3f7c:	d8c02017 	ldw	r3,128(sp)
    3f80:	003e9306 	br	39d0 <__alt_mem_ARM_A9_HPS_axi_sdram+0xc00039d0>
    3f84:	00801944 	movi	r2,101
    3f88:	14407e0e 	bge	r2,r17,4184 <___vfprintf_internal_r+0x1008>
    3f8c:	d9003617 	ldw	r4,216(sp)
    3f90:	d9403817 	ldw	r5,224(sp)
    3f94:	000d883a 	mov	r6,zero
    3f98:	000f883a 	mov	r7,zero
    3f9c:	d8c03c15 	stw	r3,240(sp)
    3fa0:	da003d15 	stw	r8,244(sp)
    3fa4:	000e3f00 	call	e3f0 <__eqdf2>
    3fa8:	d8c03c17 	ldw	r3,240(sp)
    3fac:	da003d17 	ldw	r8,244(sp)
    3fb0:	1000f71e 	bne	r2,zero,4390 <___vfprintf_internal_r+0x1214>
    3fb4:	d8801f17 	ldw	r2,124(sp)
    3fb8:	01000074 	movhi	r4,1
    3fbc:	21190f04 	addi	r4,r4,25660
    3fc0:	18c00044 	addi	r3,r3,1
    3fc4:	10800044 	addi	r2,r2,1
    3fc8:	41000015 	stw	r4,0(r8)
    3fcc:	01000044 	movi	r4,1
    3fd0:	41000115 	stw	r4,4(r8)
    3fd4:	d8c02015 	stw	r3,128(sp)
    3fd8:	d8801f15 	stw	r2,124(sp)
    3fdc:	010001c4 	movi	r4,7
    3fe0:	2082b816 	blt	r4,r2,4ac4 <___vfprintf_internal_r+0x1948>
    3fe4:	42000204 	addi	r8,r8,8
    3fe8:	d8802617 	ldw	r2,152(sp)
    3fec:	d9403317 	ldw	r5,204(sp)
    3ff0:	11400216 	blt	r2,r5,3ffc <___vfprintf_internal_r+0xe80>
    3ff4:	9080004c 	andi	r2,r18,1
    3ff8:	103ed526 	beq	r2,zero,3b50 <__alt_mem_ARM_A9_HPS_axi_sdram+0xc0003b50>
    3ffc:	d8803717 	ldw	r2,220(sp)
    4000:	d9003417 	ldw	r4,208(sp)
    4004:	d9403717 	ldw	r5,220(sp)
    4008:	1887883a 	add	r3,r3,r2
    400c:	d8801f17 	ldw	r2,124(sp)
    4010:	41000015 	stw	r4,0(r8)
    4014:	41400115 	stw	r5,4(r8)
    4018:	10800044 	addi	r2,r2,1
    401c:	d8c02015 	stw	r3,128(sp)
    4020:	d8801f15 	stw	r2,124(sp)
    4024:	010001c4 	movi	r4,7
    4028:	20832916 	blt	r4,r2,4cd0 <___vfprintf_internal_r+0x1b54>
    402c:	42000204 	addi	r8,r8,8
    4030:	d8803317 	ldw	r2,204(sp)
    4034:	143fffc4 	addi	r16,r2,-1
    4038:	043ec50e 	bge	zero,r16,3b50 <__alt_mem_ARM_A9_HPS_axi_sdram+0xc0003b50>
    403c:	04400404 	movi	r17,16
    4040:	d8801f17 	ldw	r2,124(sp)
    4044:	8c00880e 	bge	r17,r16,4268 <___vfprintf_internal_r+0x10ec>
    4048:	01400074 	movhi	r5,1
    404c:	29590f84 	addi	r5,r5,25662
    4050:	d9402b15 	stw	r5,172(sp)
    4054:	058001c4 	movi	r22,7
    4058:	dcc02c17 	ldw	r19,176(sp)
    405c:	00000306 	br	406c <___vfprintf_internal_r+0xef0>
    4060:	42000204 	addi	r8,r8,8
    4064:	843ffc04 	addi	r16,r16,-16
    4068:	8c00820e 	bge	r17,r16,4274 <___vfprintf_internal_r+0x10f8>
    406c:	18c00404 	addi	r3,r3,16
    4070:	10800044 	addi	r2,r2,1
    4074:	45000015 	stw	r20,0(r8)
    4078:	44400115 	stw	r17,4(r8)
    407c:	d8c02015 	stw	r3,128(sp)
    4080:	d8801f15 	stw	r2,124(sp)
    4084:	b0bff60e 	bge	r22,r2,4060 <__alt_mem_ARM_A9_HPS_axi_sdram+0xc0004060>
    4088:	d9801e04 	addi	r6,sp,120
    408c:	b80b883a 	mov	r5,r23
    4090:	9809883a 	mov	r4,r19
    4094:	000a7780 	call	a778 <__sprint_r>
    4098:	103d3a1e 	bne	r2,zero,3584 <__alt_mem_ARM_A9_HPS_axi_sdram+0xc0003584>
    409c:	d8c02017 	ldw	r3,128(sp)
    40a0:	d8801f17 	ldw	r2,124(sp)
    40a4:	da000404 	addi	r8,sp,16
    40a8:	003fee06 	br	4064 <__alt_mem_ARM_A9_HPS_axi_sdram+0xc0004064>
    40ac:	d9403117 	ldw	r5,196(sp)
    40b0:	d8802a17 	ldw	r2,168(sp)
    40b4:	28adc83a 	sub	r22,r5,r2
    40b8:	05be630e 	bge	zero,r22,3a48 <__alt_mem_ARM_A9_HPS_axi_sdram+0xc0003a48>
    40bc:	07000404 	movi	fp,16
    40c0:	d8801f17 	ldw	r2,124(sp)
    40c4:	e5838f0e 	bge	fp,r22,4f04 <___vfprintf_internal_r+0x1d88>
    40c8:	01400074 	movhi	r5,1
    40cc:	29590f84 	addi	r5,r5,25662
    40d0:	dc403015 	stw	r17,192(sp)
    40d4:	d9402b15 	stw	r5,172(sp)
    40d8:	b023883a 	mov	r17,r22
    40dc:	04c001c4 	movi	r19,7
    40e0:	a82d883a 	mov	r22,r21
    40e4:	902b883a 	mov	r21,r18
    40e8:	8025883a 	mov	r18,r16
    40ec:	dc002c17 	ldw	r16,176(sp)
    40f0:	00000306 	br	4100 <___vfprintf_internal_r+0xf84>
    40f4:	8c7ffc04 	addi	r17,r17,-16
    40f8:	42000204 	addi	r8,r8,8
    40fc:	e440110e 	bge	fp,r17,4144 <___vfprintf_internal_r+0xfc8>
    4100:	18c00404 	addi	r3,r3,16
    4104:	10800044 	addi	r2,r2,1
    4108:	45000015 	stw	r20,0(r8)
    410c:	47000115 	stw	fp,4(r8)
    4110:	d8c02015 	stw	r3,128(sp)
    4114:	d8801f15 	stw	r2,124(sp)
    4118:	98bff60e 	bge	r19,r2,40f4 <__alt_mem_ARM_A9_HPS_axi_sdram+0xc00040f4>
    411c:	d9801e04 	addi	r6,sp,120
    4120:	b80b883a 	mov	r5,r23
    4124:	8009883a 	mov	r4,r16
    4128:	000a7780 	call	a778 <__sprint_r>
    412c:	103d151e 	bne	r2,zero,3584 <__alt_mem_ARM_A9_HPS_axi_sdram+0xc0003584>
    4130:	8c7ffc04 	addi	r17,r17,-16
    4134:	d8c02017 	ldw	r3,128(sp)
    4138:	d8801f17 	ldw	r2,124(sp)
    413c:	da000404 	addi	r8,sp,16
    4140:	e47fef16 	blt	fp,r17,4100 <__alt_mem_ARM_A9_HPS_axi_sdram+0xc0004100>
    4144:	9021883a 	mov	r16,r18
    4148:	a825883a 	mov	r18,r21
    414c:	b02b883a 	mov	r21,r22
    4150:	882d883a 	mov	r22,r17
    4154:	dc403017 	ldw	r17,192(sp)
    4158:	d9002b17 	ldw	r4,172(sp)
    415c:	1d87883a 	add	r3,r3,r22
    4160:	10800044 	addi	r2,r2,1
    4164:	41000015 	stw	r4,0(r8)
    4168:	45800115 	stw	r22,4(r8)
    416c:	d8c02015 	stw	r3,128(sp)
    4170:	d8801f15 	stw	r2,124(sp)
    4174:	010001c4 	movi	r4,7
    4178:	20818e16 	blt	r4,r2,47b4 <___vfprintf_internal_r+0x1638>
    417c:	42000204 	addi	r8,r8,8
    4180:	003e3106 	br	3a48 <__alt_mem_ARM_A9_HPS_axi_sdram+0xc0003a48>
    4184:	d9403317 	ldw	r5,204(sp)
    4188:	00800044 	movi	r2,1
    418c:	18c00044 	addi	r3,r3,1
    4190:	1141530e 	bge	r2,r5,46e0 <___vfprintf_internal_r+0x1564>
    4194:	dc401f17 	ldw	r17,124(sp)
    4198:	00800044 	movi	r2,1
    419c:	40800115 	stw	r2,4(r8)
    41a0:	8c400044 	addi	r17,r17,1
    41a4:	44000015 	stw	r16,0(r8)
    41a8:	d8c02015 	stw	r3,128(sp)
    41ac:	dc401f15 	stw	r17,124(sp)
    41b0:	008001c4 	movi	r2,7
    41b4:	14416b16 	blt	r2,r17,4764 <___vfprintf_internal_r+0x15e8>
    41b8:	42000204 	addi	r8,r8,8
    41bc:	d8803717 	ldw	r2,220(sp)
    41c0:	d9003417 	ldw	r4,208(sp)
    41c4:	8c400044 	addi	r17,r17,1
    41c8:	10c7883a 	add	r3,r2,r3
    41cc:	40800115 	stw	r2,4(r8)
    41d0:	41000015 	stw	r4,0(r8)
    41d4:	d8c02015 	stw	r3,128(sp)
    41d8:	dc401f15 	stw	r17,124(sp)
    41dc:	008001c4 	movi	r2,7
    41e0:	14416916 	blt	r2,r17,4788 <___vfprintf_internal_r+0x160c>
    41e4:	45800204 	addi	r22,r8,8
    41e8:	d9003617 	ldw	r4,216(sp)
    41ec:	d9403817 	ldw	r5,224(sp)
    41f0:	000d883a 	mov	r6,zero
    41f4:	000f883a 	mov	r7,zero
    41f8:	d8c03c15 	stw	r3,240(sp)
    41fc:	000e3f00 	call	e3f0 <__eqdf2>
    4200:	d8c03c17 	ldw	r3,240(sp)
    4204:	1000bc26 	beq	r2,zero,44f8 <___vfprintf_internal_r+0x137c>
    4208:	d9403317 	ldw	r5,204(sp)
    420c:	84000044 	addi	r16,r16,1
    4210:	8c400044 	addi	r17,r17,1
    4214:	28bfffc4 	addi	r2,r5,-1
    4218:	1887883a 	add	r3,r3,r2
    421c:	b0800115 	stw	r2,4(r22)
    4220:	b4000015 	stw	r16,0(r22)
    4224:	d8c02015 	stw	r3,128(sp)
    4228:	dc401f15 	stw	r17,124(sp)
    422c:	008001c4 	movi	r2,7
    4230:	14414316 	blt	r2,r17,4740 <___vfprintf_internal_r+0x15c4>
    4234:	b5800204 	addi	r22,r22,8
    4238:	d9003a17 	ldw	r4,232(sp)
    423c:	df0022c4 	addi	fp,sp,139
    4240:	8c400044 	addi	r17,r17,1
    4244:	20c7883a 	add	r3,r4,r3
    4248:	b7000015 	stw	fp,0(r22)
    424c:	b1000115 	stw	r4,4(r22)
    4250:	d8c02015 	stw	r3,128(sp)
    4254:	dc401f15 	stw	r17,124(sp)
    4258:	008001c4 	movi	r2,7
    425c:	14400e16 	blt	r2,r17,4298 <___vfprintf_internal_r+0x111c>
    4260:	b2000204 	addi	r8,r22,8
    4264:	003e3a06 	br	3b50 <__alt_mem_ARM_A9_HPS_axi_sdram+0xc0003b50>
    4268:	01000074 	movhi	r4,1
    426c:	21190f84 	addi	r4,r4,25662
    4270:	d9002b15 	stw	r4,172(sp)
    4274:	d9002b17 	ldw	r4,172(sp)
    4278:	1c07883a 	add	r3,r3,r16
    427c:	44000115 	stw	r16,4(r8)
    4280:	41000015 	stw	r4,0(r8)
    4284:	10800044 	addi	r2,r2,1
    4288:	d8c02015 	stw	r3,128(sp)
    428c:	d8801f15 	stw	r2,124(sp)
    4290:	010001c4 	movi	r4,7
    4294:	20be2d0e 	bge	r4,r2,3b4c <__alt_mem_ARM_A9_HPS_axi_sdram+0xc0003b4c>
    4298:	d9002c17 	ldw	r4,176(sp)
    429c:	d9801e04 	addi	r6,sp,120
    42a0:	b80b883a 	mov	r5,r23
    42a4:	000a7780 	call	a778 <__sprint_r>
    42a8:	103cb61e 	bne	r2,zero,3584 <__alt_mem_ARM_A9_HPS_axi_sdram+0xc0003584>
    42ac:	d8c02017 	ldw	r3,128(sp)
    42b0:	da000404 	addi	r8,sp,16
    42b4:	003e2606 	br	3b50 <__alt_mem_ARM_A9_HPS_axi_sdram+0xc0003b50>
    42b8:	d9002c17 	ldw	r4,176(sp)
    42bc:	d9801e04 	addi	r6,sp,120
    42c0:	b80b883a 	mov	r5,r23
    42c4:	000a7780 	call	a778 <__sprint_r>
    42c8:	103e5d26 	beq	r2,zero,3c40 <__alt_mem_ARM_A9_HPS_axi_sdram+0xc0003c40>
    42cc:	003cad06 	br	3584 <__alt_mem_ARM_A9_HPS_axi_sdram+0xc0003584>
    42d0:	d9002c17 	ldw	r4,176(sp)
    42d4:	d9801e04 	addi	r6,sp,120
    42d8:	b80b883a 	mov	r5,r23
    42dc:	000a7780 	call	a778 <__sprint_r>
    42e0:	103ca81e 	bne	r2,zero,3584 <__alt_mem_ARM_A9_HPS_axi_sdram+0xc0003584>
    42e4:	d8c02017 	ldw	r3,128(sp)
    42e8:	da000404 	addi	r8,sp,16
    42ec:	003e0b06 	br	3b1c <__alt_mem_ARM_A9_HPS_axi_sdram+0xc0003b1c>
    42f0:	d9002c17 	ldw	r4,176(sp)
    42f4:	d9801e04 	addi	r6,sp,120
    42f8:	b80b883a 	mov	r5,r23
    42fc:	000a7780 	call	a778 <__sprint_r>
    4300:	103ca01e 	bne	r2,zero,3584 <__alt_mem_ARM_A9_HPS_axi_sdram+0xc0003584>
    4304:	d8c02017 	ldw	r3,128(sp)
    4308:	da000404 	addi	r8,sp,16
    430c:	003dbd06 	br	3a04 <__alt_mem_ARM_A9_HPS_axi_sdram+0xc0003a04>
    4310:	d9002c17 	ldw	r4,176(sp)
    4314:	d9801e04 	addi	r6,sp,120
    4318:	b80b883a 	mov	r5,r23
    431c:	000a7780 	call	a778 <__sprint_r>
    4320:	103c981e 	bne	r2,zero,3584 <__alt_mem_ARM_A9_HPS_axi_sdram+0xc0003584>
    4324:	d8c02017 	ldw	r3,128(sp)
    4328:	da000404 	addi	r8,sp,16
    432c:	003dc306 	br	3a3c <__alt_mem_ARM_A9_HPS_axi_sdram+0xc0003a3c>
    4330:	d8802917 	ldw	r2,164(sp)
    4334:	d8002785 	stb	zero,158(sp)
    4338:	103f0616 	blt	r2,zero,3f54 <__alt_mem_ARM_A9_HPS_axi_sdram+0xc0003f54>
    433c:	00ffdfc4 	movi	r3,-129
    4340:	9d84b03a 	or	r2,r19,r22
    4344:	90e4703a 	and	r18,r18,r3
    4348:	103c6b26 	beq	r2,zero,34f8 <__alt_mem_ARM_A9_HPS_axi_sdram+0xc00034f8>
    434c:	0039883a 	mov	fp,zero
    4350:	003e7406 	br	3d24 <__alt_mem_ARM_A9_HPS_axi_sdram+0xc0003d24>
    4354:	9080040c 	andi	r2,r18,16
    4358:	1001b326 	beq	r2,zero,4a28 <___vfprintf_internal_r+0x18ac>
    435c:	d9002d17 	ldw	r4,180(sp)
    4360:	d9402917 	ldw	r5,164(sp)
    4364:	d8002785 	stb	zero,158(sp)
    4368:	20800104 	addi	r2,r4,4
    436c:	24c00017 	ldw	r19,0(r4)
    4370:	002d883a 	mov	r22,zero
    4374:	2801b516 	blt	r5,zero,4a4c <___vfprintf_internal_r+0x18d0>
    4378:	00ffdfc4 	movi	r3,-129
    437c:	d8802d15 	stw	r2,180(sp)
    4380:	90e4703a 	and	r18,r18,r3
    4384:	983d2726 	beq	r19,zero,3824 <__alt_mem_ARM_A9_HPS_axi_sdram+0xc0003824>
    4388:	0039883a 	mov	fp,zero
    438c:	003d2a06 	br	3838 <__alt_mem_ARM_A9_HPS_axi_sdram+0xc0003838>
    4390:	dc402617 	ldw	r17,152(sp)
    4394:	0441d30e 	bge	zero,r17,4ae4 <___vfprintf_internal_r+0x1968>
    4398:	dc403217 	ldw	r17,200(sp)
    439c:	d8803317 	ldw	r2,204(sp)
    43a0:	1440010e 	bge	r2,r17,43a8 <___vfprintf_internal_r+0x122c>
    43a4:	1023883a 	mov	r17,r2
    43a8:	04400a0e 	bge	zero,r17,43d4 <___vfprintf_internal_r+0x1258>
    43ac:	d8801f17 	ldw	r2,124(sp)
    43b0:	1c47883a 	add	r3,r3,r17
    43b4:	44000015 	stw	r16,0(r8)
    43b8:	10800044 	addi	r2,r2,1
    43bc:	44400115 	stw	r17,4(r8)
    43c0:	d8c02015 	stw	r3,128(sp)
    43c4:	d8801f15 	stw	r2,124(sp)
    43c8:	010001c4 	movi	r4,7
    43cc:	20826516 	blt	r4,r2,4d64 <___vfprintf_internal_r+0x1be8>
    43d0:	42000204 	addi	r8,r8,8
    43d4:	88026116 	blt	r17,zero,4d5c <___vfprintf_internal_r+0x1be0>
    43d8:	d9003217 	ldw	r4,200(sp)
    43dc:	2463c83a 	sub	r17,r4,r17
    43e0:	04407b0e 	bge	zero,r17,45d0 <___vfprintf_internal_r+0x1454>
    43e4:	05800404 	movi	r22,16
    43e8:	d8801f17 	ldw	r2,124(sp)
    43ec:	b4419d0e 	bge	r22,r17,4a64 <___vfprintf_internal_r+0x18e8>
    43f0:	01000074 	movhi	r4,1
    43f4:	21190f84 	addi	r4,r4,25662
    43f8:	d9002b15 	stw	r4,172(sp)
    43fc:	070001c4 	movi	fp,7
    4400:	dcc02c17 	ldw	r19,176(sp)
    4404:	00000306 	br	4414 <___vfprintf_internal_r+0x1298>
    4408:	42000204 	addi	r8,r8,8
    440c:	8c7ffc04 	addi	r17,r17,-16
    4410:	b441970e 	bge	r22,r17,4a70 <___vfprintf_internal_r+0x18f4>
    4414:	18c00404 	addi	r3,r3,16
    4418:	10800044 	addi	r2,r2,1
    441c:	45000015 	stw	r20,0(r8)
    4420:	45800115 	stw	r22,4(r8)
    4424:	d8c02015 	stw	r3,128(sp)
    4428:	d8801f15 	stw	r2,124(sp)
    442c:	e0bff60e 	bge	fp,r2,4408 <__alt_mem_ARM_A9_HPS_axi_sdram+0xc0004408>
    4430:	d9801e04 	addi	r6,sp,120
    4434:	b80b883a 	mov	r5,r23
    4438:	9809883a 	mov	r4,r19
    443c:	000a7780 	call	a778 <__sprint_r>
    4440:	103c501e 	bne	r2,zero,3584 <__alt_mem_ARM_A9_HPS_axi_sdram+0xc0003584>
    4444:	d8c02017 	ldw	r3,128(sp)
    4448:	d8801f17 	ldw	r2,124(sp)
    444c:	da000404 	addi	r8,sp,16
    4450:	003fee06 	br	440c <__alt_mem_ARM_A9_HPS_axi_sdram+0xc000440c>
    4454:	d9002c17 	ldw	r4,176(sp)
    4458:	d9801e04 	addi	r6,sp,120
    445c:	b80b883a 	mov	r5,r23
    4460:	000a7780 	call	a778 <__sprint_r>
    4464:	103c471e 	bne	r2,zero,3584 <__alt_mem_ARM_A9_HPS_axi_sdram+0xc0003584>
    4468:	d8c02017 	ldw	r3,128(sp)
    446c:	df002787 	ldb	fp,158(sp)
    4470:	da000404 	addi	r8,sp,16
    4474:	003d5606 	br	39d0 <__alt_mem_ARM_A9_HPS_axi_sdram+0xc00039d0>
    4478:	9080040c 	andi	r2,r18,16
    447c:	10016126 	beq	r2,zero,4a04 <___vfprintf_internal_r+0x1888>
    4480:	d8802d17 	ldw	r2,180(sp)
    4484:	14c00017 	ldw	r19,0(r2)
    4488:	10800104 	addi	r2,r2,4
    448c:	d8802d15 	stw	r2,180(sp)
    4490:	982dd7fa 	srai	r22,r19,31
    4494:	b005883a 	mov	r2,r22
    4498:	003c8206 	br	36a4 <__alt_mem_ARM_A9_HPS_axi_sdram+0xc00036a4>
    449c:	9080040c 	andi	r2,r18,16
    44a0:	10003526 	beq	r2,zero,4578 <___vfprintf_internal_r+0x13fc>
    44a4:	d9402d17 	ldw	r5,180(sp)
    44a8:	d8c02917 	ldw	r3,164(sp)
    44ac:	d8002785 	stb	zero,158(sp)
    44b0:	28800104 	addi	r2,r5,4
    44b4:	2cc00017 	ldw	r19,0(r5)
    44b8:	002d883a 	mov	r22,zero
    44bc:	18003716 	blt	r3,zero,459c <___vfprintf_internal_r+0x1420>
    44c0:	00ffdfc4 	movi	r3,-129
    44c4:	d8802d15 	stw	r2,180(sp)
    44c8:	90e4703a 	and	r18,r18,r3
    44cc:	0039883a 	mov	fp,zero
    44d0:	983df326 	beq	r19,zero,3ca0 <__alt_mem_ARM_A9_HPS_axi_sdram+0xc0003ca0>
    44d4:	00800244 	movi	r2,9
    44d8:	14fc7b36 	bltu	r2,r19,36c8 <__alt_mem_ARM_A9_HPS_axi_sdram+0xc00036c8>
    44dc:	d8c02817 	ldw	r3,160(sp)
    44e0:	dc001dc4 	addi	r16,sp,119
    44e4:	9cc00c04 	addi	r19,r19,48
    44e8:	1c07c83a 	sub	r3,r3,r16
    44ec:	dcc01dc5 	stb	r19,119(sp)
    44f0:	d8c02e15 	stw	r3,184(sp)
    44f4:	003ce806 	br	3898 <__alt_mem_ARM_A9_HPS_axi_sdram+0xc0003898>
    44f8:	d8803317 	ldw	r2,204(sp)
    44fc:	143fffc4 	addi	r16,r2,-1
    4500:	043f4d0e 	bge	zero,r16,4238 <__alt_mem_ARM_A9_HPS_axi_sdram+0xc0004238>
    4504:	07000404 	movi	fp,16
    4508:	e400810e 	bge	fp,r16,4710 <___vfprintf_internal_r+0x1594>
    450c:	01400074 	movhi	r5,1
    4510:	29590f84 	addi	r5,r5,25662
    4514:	d9402b15 	stw	r5,172(sp)
    4518:	01c001c4 	movi	r7,7
    451c:	dcc02c17 	ldw	r19,176(sp)
    4520:	00000306 	br	4530 <___vfprintf_internal_r+0x13b4>
    4524:	b5800204 	addi	r22,r22,8
    4528:	843ffc04 	addi	r16,r16,-16
    452c:	e4007b0e 	bge	fp,r16,471c <___vfprintf_internal_r+0x15a0>
    4530:	18c00404 	addi	r3,r3,16
    4534:	8c400044 	addi	r17,r17,1
    4538:	b5000015 	stw	r20,0(r22)
    453c:	b7000115 	stw	fp,4(r22)
    4540:	d8c02015 	stw	r3,128(sp)
    4544:	dc401f15 	stw	r17,124(sp)
    4548:	3c7ff60e 	bge	r7,r17,4524 <__alt_mem_ARM_A9_HPS_axi_sdram+0xc0004524>
    454c:	d9801e04 	addi	r6,sp,120
    4550:	b80b883a 	mov	r5,r23
    4554:	9809883a 	mov	r4,r19
    4558:	d9c03c15 	stw	r7,240(sp)
    455c:	000a7780 	call	a778 <__sprint_r>
    4560:	d9c03c17 	ldw	r7,240(sp)
    4564:	103c071e 	bne	r2,zero,3584 <__alt_mem_ARM_A9_HPS_axi_sdram+0xc0003584>
    4568:	d8c02017 	ldw	r3,128(sp)
    456c:	dc401f17 	ldw	r17,124(sp)
    4570:	dd800404 	addi	r22,sp,16
    4574:	003fec06 	br	4528 <__alt_mem_ARM_A9_HPS_axi_sdram+0xc0004528>
    4578:	9080100c 	andi	r2,r18,64
    457c:	d8002785 	stb	zero,158(sp)
    4580:	10010e26 	beq	r2,zero,49bc <___vfprintf_internal_r+0x1840>
    4584:	d9002d17 	ldw	r4,180(sp)
    4588:	d9402917 	ldw	r5,164(sp)
    458c:	002d883a 	mov	r22,zero
    4590:	20800104 	addi	r2,r4,4
    4594:	24c0000b 	ldhu	r19,0(r4)
    4598:	283fc90e 	bge	r5,zero,44c0 <__alt_mem_ARM_A9_HPS_axi_sdram+0xc00044c0>
    459c:	d8802d15 	stw	r2,180(sp)
    45a0:	0039883a 	mov	fp,zero
    45a4:	9d84b03a 	or	r2,r19,r22
    45a8:	103c461e 	bne	r2,zero,36c4 <__alt_mem_ARM_A9_HPS_axi_sdram+0xc00036c4>
    45ac:	00800044 	movi	r2,1
    45b0:	003e6c06 	br	3f64 <__alt_mem_ARM_A9_HPS_axi_sdram+0xc0003f64>
    45b4:	d9002c17 	ldw	r4,176(sp)
    45b8:	d9801e04 	addi	r6,sp,120
    45bc:	b80b883a 	mov	r5,r23
    45c0:	000a7780 	call	a778 <__sprint_r>
    45c4:	103bef1e 	bne	r2,zero,3584 <__alt_mem_ARM_A9_HPS_axi_sdram+0xc0003584>
    45c8:	d8c02017 	ldw	r3,128(sp)
    45cc:	da000404 	addi	r8,sp,16
    45d0:	d9003217 	ldw	r4,200(sp)
    45d4:	d8802617 	ldw	r2,152(sp)
    45d8:	d9403317 	ldw	r5,204(sp)
    45dc:	8123883a 	add	r17,r16,r4
    45e0:	11400216 	blt	r2,r5,45ec <___vfprintf_internal_r+0x1470>
    45e4:	9100004c 	andi	r4,r18,1
    45e8:	20000d26 	beq	r4,zero,4620 <___vfprintf_internal_r+0x14a4>
    45ec:	d9003717 	ldw	r4,220(sp)
    45f0:	d9403417 	ldw	r5,208(sp)
    45f4:	1907883a 	add	r3,r3,r4
    45f8:	d9001f17 	ldw	r4,124(sp)
    45fc:	41400015 	stw	r5,0(r8)
    4600:	d9403717 	ldw	r5,220(sp)
    4604:	21000044 	addi	r4,r4,1
    4608:	d8c02015 	stw	r3,128(sp)
    460c:	41400115 	stw	r5,4(r8)
    4610:	d9001f15 	stw	r4,124(sp)
    4614:	014001c4 	movi	r5,7
    4618:	2901e816 	blt	r5,r4,4dbc <___vfprintf_internal_r+0x1c40>
    461c:	42000204 	addi	r8,r8,8
    4620:	d9003317 	ldw	r4,204(sp)
    4624:	8121883a 	add	r16,r16,r4
    4628:	2085c83a 	sub	r2,r4,r2
    462c:	8461c83a 	sub	r16,r16,r17
    4630:	1400010e 	bge	r2,r16,4638 <___vfprintf_internal_r+0x14bc>
    4634:	1021883a 	mov	r16,r2
    4638:	04000a0e 	bge	zero,r16,4664 <___vfprintf_internal_r+0x14e8>
    463c:	d9001f17 	ldw	r4,124(sp)
    4640:	1c07883a 	add	r3,r3,r16
    4644:	44400015 	stw	r17,0(r8)
    4648:	21000044 	addi	r4,r4,1
    464c:	44000115 	stw	r16,4(r8)
    4650:	d8c02015 	stw	r3,128(sp)
    4654:	d9001f15 	stw	r4,124(sp)
    4658:	014001c4 	movi	r5,7
    465c:	2901fb16 	blt	r5,r4,4e4c <___vfprintf_internal_r+0x1cd0>
    4660:	42000204 	addi	r8,r8,8
    4664:	8001f716 	blt	r16,zero,4e44 <___vfprintf_internal_r+0x1cc8>
    4668:	1421c83a 	sub	r16,r2,r16
    466c:	043d380e 	bge	zero,r16,3b50 <__alt_mem_ARM_A9_HPS_axi_sdram+0xc0003b50>
    4670:	04400404 	movi	r17,16
    4674:	d8801f17 	ldw	r2,124(sp)
    4678:	8c3efb0e 	bge	r17,r16,4268 <__alt_mem_ARM_A9_HPS_axi_sdram+0xc0004268>
    467c:	01400074 	movhi	r5,1
    4680:	29590f84 	addi	r5,r5,25662
    4684:	d9402b15 	stw	r5,172(sp)
    4688:	058001c4 	movi	r22,7
    468c:	dcc02c17 	ldw	r19,176(sp)
    4690:	00000306 	br	46a0 <___vfprintf_internal_r+0x1524>
    4694:	42000204 	addi	r8,r8,8
    4698:	843ffc04 	addi	r16,r16,-16
    469c:	8c3ef50e 	bge	r17,r16,4274 <__alt_mem_ARM_A9_HPS_axi_sdram+0xc0004274>
    46a0:	18c00404 	addi	r3,r3,16
    46a4:	10800044 	addi	r2,r2,1
    46a8:	45000015 	stw	r20,0(r8)
    46ac:	44400115 	stw	r17,4(r8)
    46b0:	d8c02015 	stw	r3,128(sp)
    46b4:	d8801f15 	stw	r2,124(sp)
    46b8:	b0bff60e 	bge	r22,r2,4694 <__alt_mem_ARM_A9_HPS_axi_sdram+0xc0004694>
    46bc:	d9801e04 	addi	r6,sp,120
    46c0:	b80b883a 	mov	r5,r23
    46c4:	9809883a 	mov	r4,r19
    46c8:	000a7780 	call	a778 <__sprint_r>
    46cc:	103bad1e 	bne	r2,zero,3584 <__alt_mem_ARM_A9_HPS_axi_sdram+0xc0003584>
    46d0:	d8c02017 	ldw	r3,128(sp)
    46d4:	d8801f17 	ldw	r2,124(sp)
    46d8:	da000404 	addi	r8,sp,16
    46dc:	003fee06 	br	4698 <__alt_mem_ARM_A9_HPS_axi_sdram+0xc0004698>
    46e0:	9088703a 	and	r4,r18,r2
    46e4:	203eab1e 	bne	r4,zero,4194 <__alt_mem_ARM_A9_HPS_axi_sdram+0xc0004194>
    46e8:	dc401f17 	ldw	r17,124(sp)
    46ec:	40800115 	stw	r2,4(r8)
    46f0:	44000015 	stw	r16,0(r8)
    46f4:	8c400044 	addi	r17,r17,1
    46f8:	d8c02015 	stw	r3,128(sp)
    46fc:	dc401f15 	stw	r17,124(sp)
    4700:	008001c4 	movi	r2,7
    4704:	14400e16 	blt	r2,r17,4740 <___vfprintf_internal_r+0x15c4>
    4708:	45800204 	addi	r22,r8,8
    470c:	003eca06 	br	4238 <__alt_mem_ARM_A9_HPS_axi_sdram+0xc0004238>
    4710:	01000074 	movhi	r4,1
    4714:	21190f84 	addi	r4,r4,25662
    4718:	d9002b15 	stw	r4,172(sp)
    471c:	d8802b17 	ldw	r2,172(sp)
    4720:	1c07883a 	add	r3,r3,r16
    4724:	8c400044 	addi	r17,r17,1
    4728:	b0800015 	stw	r2,0(r22)
    472c:	b4000115 	stw	r16,4(r22)
    4730:	d8c02015 	stw	r3,128(sp)
    4734:	dc401f15 	stw	r17,124(sp)
    4738:	008001c4 	movi	r2,7
    473c:	147ebd0e 	bge	r2,r17,4234 <__alt_mem_ARM_A9_HPS_axi_sdram+0xc0004234>
    4740:	d9002c17 	ldw	r4,176(sp)
    4744:	d9801e04 	addi	r6,sp,120
    4748:	b80b883a 	mov	r5,r23
    474c:	000a7780 	call	a778 <__sprint_r>
    4750:	103b8c1e 	bne	r2,zero,3584 <__alt_mem_ARM_A9_HPS_axi_sdram+0xc0003584>
    4754:	d8c02017 	ldw	r3,128(sp)
    4758:	dc401f17 	ldw	r17,124(sp)
    475c:	dd800404 	addi	r22,sp,16
    4760:	003eb506 	br	4238 <__alt_mem_ARM_A9_HPS_axi_sdram+0xc0004238>
    4764:	d9002c17 	ldw	r4,176(sp)
    4768:	d9801e04 	addi	r6,sp,120
    476c:	b80b883a 	mov	r5,r23
    4770:	000a7780 	call	a778 <__sprint_r>
    4774:	103b831e 	bne	r2,zero,3584 <__alt_mem_ARM_A9_HPS_axi_sdram+0xc0003584>
    4778:	d8c02017 	ldw	r3,128(sp)
    477c:	dc401f17 	ldw	r17,124(sp)
    4780:	da000404 	addi	r8,sp,16
    4784:	003e8d06 	br	41bc <__alt_mem_ARM_A9_HPS_axi_sdram+0xc00041bc>
    4788:	d9002c17 	ldw	r4,176(sp)
    478c:	d9801e04 	addi	r6,sp,120
    4790:	b80b883a 	mov	r5,r23
    4794:	000a7780 	call	a778 <__sprint_r>
    4798:	103b7a1e 	bne	r2,zero,3584 <__alt_mem_ARM_A9_HPS_axi_sdram+0xc0003584>
    479c:	d8c02017 	ldw	r3,128(sp)
    47a0:	dc401f17 	ldw	r17,124(sp)
    47a4:	dd800404 	addi	r22,sp,16
    47a8:	003e8f06 	br	41e8 <__alt_mem_ARM_A9_HPS_axi_sdram+0xc00041e8>
    47ac:	0027883a 	mov	r19,zero
    47b0:	003f4a06 	br	44dc <__alt_mem_ARM_A9_HPS_axi_sdram+0xc00044dc>
    47b4:	d9002c17 	ldw	r4,176(sp)
    47b8:	d9801e04 	addi	r6,sp,120
    47bc:	b80b883a 	mov	r5,r23
    47c0:	000a7780 	call	a778 <__sprint_r>
    47c4:	103b6f1e 	bne	r2,zero,3584 <__alt_mem_ARM_A9_HPS_axi_sdram+0xc0003584>
    47c8:	d8c02017 	ldw	r3,128(sp)
    47cc:	da000404 	addi	r8,sp,16
    47d0:	003c9d06 	br	3a48 <__alt_mem_ARM_A9_HPS_axi_sdram+0xc0003a48>
    47d4:	04e7c83a 	sub	r19,zero,r19
    47d8:	9804c03a 	cmpne	r2,r19,zero
    47dc:	05adc83a 	sub	r22,zero,r22
    47e0:	b0adc83a 	sub	r22,r22,r2
    47e4:	d8802917 	ldw	r2,164(sp)
    47e8:	07000b44 	movi	fp,45
    47ec:	df002785 	stb	fp,158(sp)
    47f0:	10017b16 	blt	r2,zero,4de0 <___vfprintf_internal_r+0x1c64>
    47f4:	00bfdfc4 	movi	r2,-129
    47f8:	90a4703a 	and	r18,r18,r2
    47fc:	003bb106 	br	36c4 <__alt_mem_ARM_A9_HPS_axi_sdram+0xc00036c4>
    4800:	d9003617 	ldw	r4,216(sp)
    4804:	d9403817 	ldw	r5,224(sp)
    4808:	da003d15 	stw	r8,244(sp)
    480c:	000a39c0 	call	a39c <__fpclassifyd>
    4810:	da003d17 	ldw	r8,244(sp)
    4814:	1000f026 	beq	r2,zero,4bd8 <___vfprintf_internal_r+0x1a5c>
    4818:	d9002917 	ldw	r4,164(sp)
    481c:	05bff7c4 	movi	r22,-33
    4820:	00bfffc4 	movi	r2,-1
    4824:	8dac703a 	and	r22,r17,r22
    4828:	20820026 	beq	r4,r2,502c <___vfprintf_internal_r+0x1eb0>
    482c:	008011c4 	movi	r2,71
    4830:	b081f726 	beq	r22,r2,5010 <___vfprintf_internal_r+0x1e94>
    4834:	d9003817 	ldw	r4,224(sp)
    4838:	90c04014 	ori	r3,r18,256
    483c:	d8c02b15 	stw	r3,172(sp)
    4840:	20021516 	blt	r4,zero,5098 <___vfprintf_internal_r+0x1f1c>
    4844:	dcc03817 	ldw	r19,224(sp)
    4848:	d8002a05 	stb	zero,168(sp)
    484c:	00801984 	movi	r2,102
    4850:	8881f926 	beq	r17,r2,5038 <___vfprintf_internal_r+0x1ebc>
    4854:	00801184 	movi	r2,70
    4858:	88821c26 	beq	r17,r2,50cc <___vfprintf_internal_r+0x1f50>
    485c:	00801144 	movi	r2,69
    4860:	b081ef26 	beq	r22,r2,5020 <___vfprintf_internal_r+0x1ea4>
    4864:	d8c02917 	ldw	r3,164(sp)
    4868:	d8802104 	addi	r2,sp,132
    486c:	d8800315 	stw	r2,12(sp)
    4870:	d9403617 	ldw	r5,216(sp)
    4874:	d8802504 	addi	r2,sp,148
    4878:	d9002c17 	ldw	r4,176(sp)
    487c:	d8800215 	stw	r2,8(sp)
    4880:	d8802604 	addi	r2,sp,152
    4884:	d8c00015 	stw	r3,0(sp)
    4888:	d8800115 	stw	r2,4(sp)
    488c:	01c00084 	movi	r7,2
    4890:	980d883a 	mov	r6,r19
    4894:	d8c03c15 	stw	r3,240(sp)
    4898:	da003d15 	stw	r8,244(sp)
    489c:	00057a00 	call	57a0 <_dtoa_r>
    48a0:	1021883a 	mov	r16,r2
    48a4:	008019c4 	movi	r2,103
    48a8:	d8c03c17 	ldw	r3,240(sp)
    48ac:	da003d17 	ldw	r8,244(sp)
    48b0:	88817126 	beq	r17,r2,4e78 <___vfprintf_internal_r+0x1cfc>
    48b4:	008011c4 	movi	r2,71
    48b8:	88829226 	beq	r17,r2,5304 <___vfprintf_internal_r+0x2188>
    48bc:	80f9883a 	add	fp,r16,r3
    48c0:	d9003617 	ldw	r4,216(sp)
    48c4:	000d883a 	mov	r6,zero
    48c8:	000f883a 	mov	r7,zero
    48cc:	980b883a 	mov	r5,r19
    48d0:	da003d15 	stw	r8,244(sp)
    48d4:	000e3f00 	call	e3f0 <__eqdf2>
    48d8:	da003d17 	ldw	r8,244(sp)
    48dc:	10018d26 	beq	r2,zero,4f14 <___vfprintf_internal_r+0x1d98>
    48e0:	d8802117 	ldw	r2,132(sp)
    48e4:	1700062e 	bgeu	r2,fp,4900 <___vfprintf_internal_r+0x1784>
    48e8:	01000c04 	movi	r4,48
    48ec:	10c00044 	addi	r3,r2,1
    48f0:	d8c02115 	stw	r3,132(sp)
    48f4:	11000005 	stb	r4,0(r2)
    48f8:	d8802117 	ldw	r2,132(sp)
    48fc:	173ffb36 	bltu	r2,fp,48ec <__alt_mem_ARM_A9_HPS_axi_sdram+0xc00048ec>
    4900:	1405c83a 	sub	r2,r2,r16
    4904:	d8803315 	stw	r2,204(sp)
    4908:	008011c4 	movi	r2,71
    490c:	b0817626 	beq	r22,r2,4ee8 <___vfprintf_internal_r+0x1d6c>
    4910:	00801944 	movi	r2,101
    4914:	1442810e 	bge	r2,r17,531c <___vfprintf_internal_r+0x21a0>
    4918:	d8c02617 	ldw	r3,152(sp)
    491c:	00801984 	movi	r2,102
    4920:	d8c03215 	stw	r3,200(sp)
    4924:	8881fe26 	beq	r17,r2,5120 <___vfprintf_internal_r+0x1fa4>
    4928:	d8c03217 	ldw	r3,200(sp)
    492c:	d9003317 	ldw	r4,204(sp)
    4930:	1901dd16 	blt	r3,r4,50a8 <___vfprintf_internal_r+0x1f2c>
    4934:	9480004c 	andi	r18,r18,1
    4938:	90022b1e 	bne	r18,zero,51e8 <___vfprintf_internal_r+0x206c>
    493c:	1805883a 	mov	r2,r3
    4940:	18028016 	blt	r3,zero,5344 <___vfprintf_internal_r+0x21c8>
    4944:	d8c03217 	ldw	r3,200(sp)
    4948:	044019c4 	movi	r17,103
    494c:	d8c02e15 	stw	r3,184(sp)
    4950:	df002a07 	ldb	fp,168(sp)
    4954:	e001531e 	bne	fp,zero,4ea4 <___vfprintf_internal_r+0x1d28>
    4958:	df002783 	ldbu	fp,158(sp)
    495c:	d8802a15 	stw	r2,168(sp)
    4960:	dc802b17 	ldw	r18,172(sp)
    4964:	d8002915 	stw	zero,164(sp)
    4968:	003bd106 	br	38b0 <__alt_mem_ARM_A9_HPS_axi_sdram+0xc00038b0>
    496c:	d8802d17 	ldw	r2,180(sp)
    4970:	d8c02d17 	ldw	r3,180(sp)
    4974:	d9002d17 	ldw	r4,180(sp)
    4978:	10800017 	ldw	r2,0(r2)
    497c:	18c00117 	ldw	r3,4(r3)
    4980:	21000204 	addi	r4,r4,8
    4984:	d8803615 	stw	r2,216(sp)
    4988:	d8c03815 	stw	r3,224(sp)
    498c:	d9002d15 	stw	r4,180(sp)
    4990:	003b7506 	br	3768 <__alt_mem_ARM_A9_HPS_axi_sdram+0xc0003768>
    4994:	ac400007 	ldb	r17,0(r21)
    4998:	003a5906 	br	3300 <__alt_mem_ARM_A9_HPS_axi_sdram+0xc0003300>
    499c:	9080100c 	andi	r2,r18,64
    49a0:	1000a826 	beq	r2,zero,4c44 <___vfprintf_internal_r+0x1ac8>
    49a4:	d9002d17 	ldw	r4,180(sp)
    49a8:	002d883a 	mov	r22,zero
    49ac:	24c0000b 	ldhu	r19,0(r4)
    49b0:	21000104 	addi	r4,r4,4
    49b4:	d9002d15 	stw	r4,180(sp)
    49b8:	003ccb06 	br	3ce8 <__alt_mem_ARM_A9_HPS_axi_sdram+0xc0003ce8>
    49bc:	d8c02d17 	ldw	r3,180(sp)
    49c0:	d9002917 	ldw	r4,164(sp)
    49c4:	002d883a 	mov	r22,zero
    49c8:	18800104 	addi	r2,r3,4
    49cc:	1cc00017 	ldw	r19,0(r3)
    49d0:	203ebb0e 	bge	r4,zero,44c0 <__alt_mem_ARM_A9_HPS_axi_sdram+0xc00044c0>
    49d4:	003ef106 	br	459c <__alt_mem_ARM_A9_HPS_axi_sdram+0xc000459c>
    49d8:	9080040c 	andi	r2,r18,16
    49dc:	1000921e 	bne	r2,zero,4c28 <___vfprintf_internal_r+0x1aac>
    49e0:	9480100c 	andi	r18,r18,64
    49e4:	90013926 	beq	r18,zero,4ecc <___vfprintf_internal_r+0x1d50>
    49e8:	d9002d17 	ldw	r4,180(sp)
    49ec:	d9402f17 	ldw	r5,188(sp)
    49f0:	20800017 	ldw	r2,0(r4)
    49f4:	21000104 	addi	r4,r4,4
    49f8:	d9002d15 	stw	r4,180(sp)
    49fc:	1140000d 	sth	r5,0(r2)
    4a00:	003a1606 	br	325c <__alt_mem_ARM_A9_HPS_axi_sdram+0xc000325c>
    4a04:	9080100c 	andi	r2,r18,64
    4a08:	10008026 	beq	r2,zero,4c0c <___vfprintf_internal_r+0x1a90>
    4a0c:	d8c02d17 	ldw	r3,180(sp)
    4a10:	1cc0000f 	ldh	r19,0(r3)
    4a14:	18c00104 	addi	r3,r3,4
    4a18:	d8c02d15 	stw	r3,180(sp)
    4a1c:	982dd7fa 	srai	r22,r19,31
    4a20:	b005883a 	mov	r2,r22
    4a24:	003b1f06 	br	36a4 <__alt_mem_ARM_A9_HPS_axi_sdram+0xc00036a4>
    4a28:	9080100c 	andi	r2,r18,64
    4a2c:	d8002785 	stb	zero,158(sp)
    4a30:	10008a1e 	bne	r2,zero,4c5c <___vfprintf_internal_r+0x1ae0>
    4a34:	d9402d17 	ldw	r5,180(sp)
    4a38:	d8c02917 	ldw	r3,164(sp)
    4a3c:	002d883a 	mov	r22,zero
    4a40:	28800104 	addi	r2,r5,4
    4a44:	2cc00017 	ldw	r19,0(r5)
    4a48:	183e4b0e 	bge	r3,zero,4378 <__alt_mem_ARM_A9_HPS_axi_sdram+0xc0004378>
    4a4c:	9d86b03a 	or	r3,r19,r22
    4a50:	d8802d15 	stw	r2,180(sp)
    4a54:	183e4c1e 	bne	r3,zero,4388 <__alt_mem_ARM_A9_HPS_axi_sdram+0xc0004388>
    4a58:	0039883a 	mov	fp,zero
    4a5c:	0005883a 	mov	r2,zero
    4a60:	003d4006 	br	3f64 <__alt_mem_ARM_A9_HPS_axi_sdram+0xc0003f64>
    4a64:	01400074 	movhi	r5,1
    4a68:	29590f84 	addi	r5,r5,25662
    4a6c:	d9402b15 	stw	r5,172(sp)
    4a70:	d9402b17 	ldw	r5,172(sp)
    4a74:	1c47883a 	add	r3,r3,r17
    4a78:	10800044 	addi	r2,r2,1
    4a7c:	41400015 	stw	r5,0(r8)
    4a80:	44400115 	stw	r17,4(r8)
    4a84:	d8c02015 	stw	r3,128(sp)
    4a88:	d8801f15 	stw	r2,124(sp)
    4a8c:	010001c4 	movi	r4,7
    4a90:	20bec816 	blt	r4,r2,45b4 <__alt_mem_ARM_A9_HPS_axi_sdram+0xc00045b4>
    4a94:	42000204 	addi	r8,r8,8
    4a98:	003ecd06 	br	45d0 <__alt_mem_ARM_A9_HPS_axi_sdram+0xc00045d0>
    4a9c:	d9002917 	ldw	r4,164(sp)
    4aa0:	d8002785 	stb	zero,158(sp)
    4aa4:	203d2d16 	blt	r4,zero,3f5c <__alt_mem_ARM_A9_HPS_axi_sdram+0xc0003f5c>
    4aa8:	00bfdfc4 	movi	r2,-129
    4aac:	90a4703a 	and	r18,r18,r2
    4ab0:	003a9106 	br	34f8 <__alt_mem_ARM_A9_HPS_axi_sdram+0xc00034f8>
    4ab4:	01000074 	movhi	r4,1
    4ab8:	21190f84 	addi	r4,r4,25662
    4abc:	d9002b15 	stw	r4,172(sp)
    4ac0:	003c0c06 	br	3af4 <__alt_mem_ARM_A9_HPS_axi_sdram+0xc0003af4>
    4ac4:	d9002c17 	ldw	r4,176(sp)
    4ac8:	d9801e04 	addi	r6,sp,120
    4acc:	b80b883a 	mov	r5,r23
    4ad0:	000a7780 	call	a778 <__sprint_r>
    4ad4:	103aab1e 	bne	r2,zero,3584 <__alt_mem_ARM_A9_HPS_axi_sdram+0xc0003584>
    4ad8:	d8c02017 	ldw	r3,128(sp)
    4adc:	da000404 	addi	r8,sp,16
    4ae0:	003d4106 	br	3fe8 <__alt_mem_ARM_A9_HPS_axi_sdram+0xc0003fe8>
    4ae4:	d8801f17 	ldw	r2,124(sp)
    4ae8:	01400074 	movhi	r5,1
    4aec:	01000044 	movi	r4,1
    4af0:	18c00044 	addi	r3,r3,1
    4af4:	10800044 	addi	r2,r2,1
    4af8:	29590f04 	addi	r5,r5,25660
    4afc:	41000115 	stw	r4,4(r8)
    4b00:	41400015 	stw	r5,0(r8)
    4b04:	d8c02015 	stw	r3,128(sp)
    4b08:	d8801f15 	stw	r2,124(sp)
    4b0c:	010001c4 	movi	r4,7
    4b10:	20805c16 	blt	r4,r2,4c84 <___vfprintf_internal_r+0x1b08>
    4b14:	42000204 	addi	r8,r8,8
    4b18:	8800041e 	bne	r17,zero,4b2c <___vfprintf_internal_r+0x19b0>
    4b1c:	d8803317 	ldw	r2,204(sp)
    4b20:	1000021e 	bne	r2,zero,4b2c <___vfprintf_internal_r+0x19b0>
    4b24:	9080004c 	andi	r2,r18,1
    4b28:	103c0926 	beq	r2,zero,3b50 <__alt_mem_ARM_A9_HPS_axi_sdram+0xc0003b50>
    4b2c:	d9003717 	ldw	r4,220(sp)
    4b30:	d8801f17 	ldw	r2,124(sp)
    4b34:	d9403417 	ldw	r5,208(sp)
    4b38:	20c7883a 	add	r3,r4,r3
    4b3c:	10800044 	addi	r2,r2,1
    4b40:	41000115 	stw	r4,4(r8)
    4b44:	41400015 	stw	r5,0(r8)
    4b48:	d8c02015 	stw	r3,128(sp)
    4b4c:	d8801f15 	stw	r2,124(sp)
    4b50:	010001c4 	movi	r4,7
    4b54:	20812116 	blt	r4,r2,4fdc <___vfprintf_internal_r+0x1e60>
    4b58:	42000204 	addi	r8,r8,8
    4b5c:	0463c83a 	sub	r17,zero,r17
    4b60:	0440730e 	bge	zero,r17,4d30 <___vfprintf_internal_r+0x1bb4>
    4b64:	05800404 	movi	r22,16
    4b68:	b440860e 	bge	r22,r17,4d84 <___vfprintf_internal_r+0x1c08>
    4b6c:	01400074 	movhi	r5,1
    4b70:	29590f84 	addi	r5,r5,25662
    4b74:	d9402b15 	stw	r5,172(sp)
    4b78:	070001c4 	movi	fp,7
    4b7c:	dcc02c17 	ldw	r19,176(sp)
    4b80:	00000306 	br	4b90 <___vfprintf_internal_r+0x1a14>
    4b84:	42000204 	addi	r8,r8,8
    4b88:	8c7ffc04 	addi	r17,r17,-16
    4b8c:	b440800e 	bge	r22,r17,4d90 <___vfprintf_internal_r+0x1c14>
    4b90:	18c00404 	addi	r3,r3,16
    4b94:	10800044 	addi	r2,r2,1
    4b98:	45000015 	stw	r20,0(r8)
    4b9c:	45800115 	stw	r22,4(r8)
    4ba0:	d8c02015 	stw	r3,128(sp)
    4ba4:	d8801f15 	stw	r2,124(sp)
    4ba8:	e0bff60e 	bge	fp,r2,4b84 <__alt_mem_ARM_A9_HPS_axi_sdram+0xc0004b84>
    4bac:	d9801e04 	addi	r6,sp,120
    4bb0:	b80b883a 	mov	r5,r23
    4bb4:	9809883a 	mov	r4,r19
    4bb8:	000a7780 	call	a778 <__sprint_r>
    4bbc:	103a711e 	bne	r2,zero,3584 <__alt_mem_ARM_A9_HPS_axi_sdram+0xc0003584>
    4bc0:	d8c02017 	ldw	r3,128(sp)
    4bc4:	d8801f17 	ldw	r2,124(sp)
    4bc8:	da000404 	addi	r8,sp,16
    4bcc:	003fee06 	br	4b88 <__alt_mem_ARM_A9_HPS_axi_sdram+0xc0004b88>
    4bd0:	00bfffc4 	movi	r2,-1
    4bd4:	003a6f06 	br	3594 <__alt_mem_ARM_A9_HPS_axi_sdram+0xc0003594>
    4bd8:	008011c4 	movi	r2,71
    4bdc:	1440b816 	blt	r2,r17,4ec0 <___vfprintf_internal_r+0x1d44>
    4be0:	04000074 	movhi	r16,1
    4be4:	84190104 	addi	r16,r16,25604
    4be8:	00c000c4 	movi	r3,3
    4bec:	00bfdfc4 	movi	r2,-129
    4bf0:	d8c02a15 	stw	r3,168(sp)
    4bf4:	90a4703a 	and	r18,r18,r2
    4bf8:	df002783 	ldbu	fp,158(sp)
    4bfc:	d8c02e15 	stw	r3,184(sp)
    4c00:	d8002915 	stw	zero,164(sp)
    4c04:	d8003215 	stw	zero,200(sp)
    4c08:	003b2906 	br	38b0 <__alt_mem_ARM_A9_HPS_axi_sdram+0xc00038b0>
    4c0c:	d9002d17 	ldw	r4,180(sp)
    4c10:	24c00017 	ldw	r19,0(r4)
    4c14:	21000104 	addi	r4,r4,4
    4c18:	d9002d15 	stw	r4,180(sp)
    4c1c:	982dd7fa 	srai	r22,r19,31
    4c20:	b005883a 	mov	r2,r22
    4c24:	003a9f06 	br	36a4 <__alt_mem_ARM_A9_HPS_axi_sdram+0xc00036a4>
    4c28:	d9402d17 	ldw	r5,180(sp)
    4c2c:	d8c02f17 	ldw	r3,188(sp)
    4c30:	28800017 	ldw	r2,0(r5)
    4c34:	29400104 	addi	r5,r5,4
    4c38:	d9402d15 	stw	r5,180(sp)
    4c3c:	10c00015 	stw	r3,0(r2)
    4c40:	00398606 	br	325c <__alt_mem_ARM_A9_HPS_axi_sdram+0xc000325c>
    4c44:	d9402d17 	ldw	r5,180(sp)
    4c48:	002d883a 	mov	r22,zero
    4c4c:	2cc00017 	ldw	r19,0(r5)
    4c50:	29400104 	addi	r5,r5,4
    4c54:	d9402d15 	stw	r5,180(sp)
    4c58:	003c2306 	br	3ce8 <__alt_mem_ARM_A9_HPS_axi_sdram+0xc0003ce8>
    4c5c:	d8c02d17 	ldw	r3,180(sp)
    4c60:	d9002917 	ldw	r4,164(sp)
    4c64:	002d883a 	mov	r22,zero
    4c68:	18800104 	addi	r2,r3,4
    4c6c:	1cc0000b 	ldhu	r19,0(r3)
    4c70:	203dc10e 	bge	r4,zero,4378 <__alt_mem_ARM_A9_HPS_axi_sdram+0xc0004378>
    4c74:	003f7506 	br	4a4c <__alt_mem_ARM_A9_HPS_axi_sdram+0xc0004a4c>
    4c78:	04000074 	movhi	r16,1
    4c7c:	8418ff04 	addi	r16,r16,25596
    4c80:	003acc06 	br	37b4 <__alt_mem_ARM_A9_HPS_axi_sdram+0xc00037b4>
    4c84:	d9002c17 	ldw	r4,176(sp)
    4c88:	d9801e04 	addi	r6,sp,120
    4c8c:	b80b883a 	mov	r5,r23
    4c90:	000a7780 	call	a778 <__sprint_r>
    4c94:	103a3b1e 	bne	r2,zero,3584 <__alt_mem_ARM_A9_HPS_axi_sdram+0xc0003584>
    4c98:	dc402617 	ldw	r17,152(sp)
    4c9c:	d8c02017 	ldw	r3,128(sp)
    4ca0:	da000404 	addi	r8,sp,16
    4ca4:	003f9c06 	br	4b18 <__alt_mem_ARM_A9_HPS_axi_sdram+0xc0004b18>
    4ca8:	ac400043 	ldbu	r17,1(r21)
    4cac:	94800814 	ori	r18,r18,32
    4cb0:	ad400044 	addi	r21,r21,1
    4cb4:	8c403fcc 	andi	r17,r17,255
    4cb8:	8c40201c 	xori	r17,r17,128
    4cbc:	8c7fe004 	addi	r17,r17,-128
    4cc0:	00398f06 	br	3300 <__alt_mem_ARM_A9_HPS_axi_sdram+0xc0003300>
    4cc4:	d8c02d15 	stw	r3,180(sp)
    4cc8:	0039883a 	mov	fp,zero
    4ccc:	003e3506 	br	45a4 <__alt_mem_ARM_A9_HPS_axi_sdram+0xc00045a4>
    4cd0:	d9002c17 	ldw	r4,176(sp)
    4cd4:	d9801e04 	addi	r6,sp,120
    4cd8:	b80b883a 	mov	r5,r23
    4cdc:	000a7780 	call	a778 <__sprint_r>
    4ce0:	103a281e 	bne	r2,zero,3584 <__alt_mem_ARM_A9_HPS_axi_sdram+0xc0003584>
    4ce4:	d8c02017 	ldw	r3,128(sp)
    4ce8:	da000404 	addi	r8,sp,16
    4cec:	003cd006 	br	4030 <__alt_mem_ARM_A9_HPS_axi_sdram+0xc0004030>
    4cf0:	8009883a 	mov	r4,r16
    4cf4:	da003d15 	stw	r8,244(sp)
    4cf8:	00030e40 	call	30e4 <strlen>
    4cfc:	d8802e15 	stw	r2,184(sp)
    4d00:	da003d17 	ldw	r8,244(sp)
    4d04:	103c340e 	bge	r2,zero,3dd8 <__alt_mem_ARM_A9_HPS_axi_sdram+0xc0003dd8>
    4d08:	0005883a 	mov	r2,zero
    4d0c:	003c3206 	br	3dd8 <__alt_mem_ARM_A9_HPS_axi_sdram+0xc0003dd8>
    4d10:	d9002c17 	ldw	r4,176(sp)
    4d14:	d9801e04 	addi	r6,sp,120
    4d18:	b80b883a 	mov	r5,r23
    4d1c:	000a7780 	call	a778 <__sprint_r>
    4d20:	103a181e 	bne	r2,zero,3584 <__alt_mem_ARM_A9_HPS_axi_sdram+0xc0003584>
    4d24:	d8c02017 	ldw	r3,128(sp)
    4d28:	d8801f17 	ldw	r2,124(sp)
    4d2c:	da000404 	addi	r8,sp,16
    4d30:	d9403317 	ldw	r5,204(sp)
    4d34:	10800044 	addi	r2,r2,1
    4d38:	44000015 	stw	r16,0(r8)
    4d3c:	28c7883a 	add	r3,r5,r3
    4d40:	003b7d06 	br	3b38 <__alt_mem_ARM_A9_HPS_axi_sdram+0xc0003b38>
    4d44:	01000074 	movhi	r4,1
    4d48:	21191384 	addi	r4,r4,25678
    4d4c:	d9003515 	stw	r4,212(sp)
    4d50:	003b1406 	br	39a4 <__alt_mem_ARM_A9_HPS_axi_sdram+0xc00039a4>
    4d54:	013fffc4 	movi	r4,-1
    4d58:	003a3506 	br	3630 <__alt_mem_ARM_A9_HPS_axi_sdram+0xc0003630>
    4d5c:	0023883a 	mov	r17,zero
    4d60:	003d9d06 	br	43d8 <__alt_mem_ARM_A9_HPS_axi_sdram+0xc00043d8>
    4d64:	d9002c17 	ldw	r4,176(sp)
    4d68:	d9801e04 	addi	r6,sp,120
    4d6c:	b80b883a 	mov	r5,r23
    4d70:	000a7780 	call	a778 <__sprint_r>
    4d74:	103a031e 	bne	r2,zero,3584 <__alt_mem_ARM_A9_HPS_axi_sdram+0xc0003584>
    4d78:	d8c02017 	ldw	r3,128(sp)
    4d7c:	da000404 	addi	r8,sp,16
    4d80:	003d9406 	br	43d4 <__alt_mem_ARM_A9_HPS_axi_sdram+0xc00043d4>
    4d84:	01000074 	movhi	r4,1
    4d88:	21190f84 	addi	r4,r4,25662
    4d8c:	d9002b15 	stw	r4,172(sp)
    4d90:	d9002b17 	ldw	r4,172(sp)
    4d94:	1c47883a 	add	r3,r3,r17
    4d98:	10800044 	addi	r2,r2,1
    4d9c:	41000015 	stw	r4,0(r8)
    4da0:	44400115 	stw	r17,4(r8)
    4da4:	d8c02015 	stw	r3,128(sp)
    4da8:	d8801f15 	stw	r2,124(sp)
    4dac:	010001c4 	movi	r4,7
    4db0:	20bfd716 	blt	r4,r2,4d10 <__alt_mem_ARM_A9_HPS_axi_sdram+0xc0004d10>
    4db4:	42000204 	addi	r8,r8,8
    4db8:	003fdd06 	br	4d30 <__alt_mem_ARM_A9_HPS_axi_sdram+0xc0004d30>
    4dbc:	d9002c17 	ldw	r4,176(sp)
    4dc0:	d9801e04 	addi	r6,sp,120
    4dc4:	b80b883a 	mov	r5,r23
    4dc8:	000a7780 	call	a778 <__sprint_r>
    4dcc:	1039ed1e 	bne	r2,zero,3584 <__alt_mem_ARM_A9_HPS_axi_sdram+0xc0003584>
    4dd0:	d8802617 	ldw	r2,152(sp)
    4dd4:	d8c02017 	ldw	r3,128(sp)
    4dd8:	da000404 	addi	r8,sp,16
    4ddc:	003e1006 	br	4620 <__alt_mem_ARM_A9_HPS_axi_sdram+0xc0004620>
    4de0:	00800044 	movi	r2,1
    4de4:	10803fcc 	andi	r2,r2,255
    4de8:	00c00044 	movi	r3,1
